__check_pad3                    0x80004000      f
__set_debug_bba                 0x80004030      f
__get_debug_bba                 0x80004040      f
__start                         0x80004050      f
__init_registers                0x800041C0      f
__init_data                     0x80004250      f
__init_hardware                 0x80004300      f
__flush_cache                   0x80004330      f
memcpy                          0x80004364      f
__fill_mem                      0x80004600      f
memset                          0x800046B4      f
_rom_copy_info                  0x80006618      f
_bss_init_info                  0x8000669C      f
@340                            0x800066C0      l
@351                            0x800066D8      l
@383                            0x800066E0      l
@401                            0x800066F8      l
@427                            0x80006700      l
@341                            0x80006720      l
@352                            0x8000672C      l
@384                            0x80006738      l
@402                            0x80006744      l
@428                            0x80006750      l
_eti_init_info                  0x8000675C      l
hash_C6B6FABE_C6B6FABE          0x80006780      f
_ZN3d2d4initEv                  0x80006790      f
_ZN3d2d4drawEv                  0x800067A0      f
_ZN3d2d10drawBeforeEv           0x800067B0      f
_ZN3d2d9drawAfterEv             0x800067C0      f
_ZN3d2d10drawBtweenEhh          0x800067D0      f
_ZN4nw4r3lyt19ArcResourceAccessorD0Ev 0x800067E0 f
_ZN3d2d26setAlpha_patrolPane_patrolEPN4nw4r3lyt4PaneEPv 0x80006850 f
_ZN3d2d8setAlphaEPN3m2d8Simple_cEh 0x80006870   f
_ZN3d2d12ResAccMult_cC1Ev       0x800068B0      f
_ZN3d2d12ResAccMult_c16InternalAccessorD0Ev 0x80006930 f
_ZN3d2d12ResAccMult_cD0Ev       0x800069A0      f
_ZN3d2d12ResAccMult_c11getResourceEmPKc 0x80006A20 f
_ZN3d2d12ResAccMult_c7createrEv 0x80006A40      f
_ZN3d2d12ResAccMult_c16InternalAccessor11GetResourceEmPKcPm 0x80006A50 f
_ZN3d2d12ResAccMult_c16InternalAccessor7GetFontEPKc 0x80006A70 f
_ZN3d2d18ResAccMultLoader_cC1Ev 0x80006AA0      f
_ZN3d2d18ResAccMultLoader_cD0Ev 0x80006AF0      f
_ZN3d2d18ResAccMultLoader_c9requestExEPKci 0x80006B60 f
_ZN3d2d18ResAccMultLoader_c7requestEPKc 0x80006BE0 f
_ZN3d2d18ResAccMultLoader_c6removeEv 0x80006BF0 f
_ZN3d2d18ResAccMultLoader_c6createEPN3EGG4HeapEm 0x80006C50 f
_ZN3d2d7Multi_cC1Ev             0x80006CD0      f
_ZN3m2d8Layout_cD0Ev            0x80006D90      f
_ZN7mVec2_cD0Ev                 0x80006DF0      f
_ZN3d2d7Multi_cD0Ev             0x80006E30      f
_ZN3d2d7Multi_c5entryEv         0x80006EA0      f
_ZN3d2d7Multi_c4calcEv          0x80006EB0      f
_ZN3d2d7Multi_c10calcBeforeEv   0x80006F70      f
_ZN3d2d7Multi_c9calcAfterEv     0x80006FA0      f
_ZN3d2d7Multi_c4drawEv          0x80007010      f
_ZN3d2d7Multi_c11getRootPaneEv  0x80007220      f
_ZN3d2d7Multi_c5buildEPKcPN3d2d12ResAccMult_cE 0x80007230 f
_ZN3d2d7Multi_c14findPaneByNameEPKc 0x80007300  f
_ZN3d2d7Multi_c17findTextBoxByNameEPKc 0x80007320 f
_ZNK4nw4r3lyt4Pane18GetRuntimeTypeInfoEv 0x800073C0 f
_ZN3d2d7Multi_c17findPictureByNameEPKc 0x800073D0 f
_ZN3d2d7Multi_c16findWindowByNameEPKc 0x80007470 f
_ZN3d3d6proc_c6createEP12mAllocator_cPm 0x80007510 f
_ZN3d3d6createEPN3EGG4HeapE     0x80007520      f
_ZN4nw4r2ut5ColorD0Ev           0x800075D0      f
_ZN3d3d14createLightMgrEPN3EGG4HeapEtthbi 0x80007610 f
_ZN3d3d9texQuad_c6createEPN3EGG7ResTIMGEiiP12mAllocator_c 0x800077A0 f
_ZN3d3d9texQuad_c11drawTexQuadEv 0x80007860     f
_ZN3d3d14texQuad_snow_c6createEN4nw4r3g3d6ResTexEN4nw4r3g3d6ResTexEN4nw4r3g3d6ResTexEiiP12mAllocator_c 0x80007BC0 f
_ZN3d3d14texQuad_snow_c11drawTexQuadEv 0x80007DE0 f
_ZN3d3d16texQuad_sparks_c6createEN4nw4r3g3d6ResTexEiiP12mAllocator_c 0x80008440 f
_ZN3d3d16texQuad_sparks_c11drawTexQuadEv 0x800086C0 f
_ZN3d3d15texQuad_cloud_c6createEN4nw4r3g3d6ResTexEN4nw4r3g3d6ResTexEN4nw4r3g3d6ResTexEiiP12mAllocator_c 0x80008A70 f
_ZN3d3d15texQuad_cloud_c11drawTexQuadEv 0x80008C50 f
_ZN3d3d17texQuad_cloudlt_c6createEN4nw4r3g3d6ResTexEN4nw4r3g3d6ResTexEN4nw4r3g3d6ResTexEiiP12mAllocator_c 0x80009220 f
_ZN3d3d17texQuad_cloudlt_c11drawTexQuadEv 0x80009400 f
_ZN3d3d16texQuad_bubble_c6createEN4nw4r3g3d6ResTexEiiP12mAllocator_c 0x800099D0 f
_ZN3d3d16texQuad_bubble_c11drawTexQuadEv 0x80009BD0 f
_ZN3d3d15texQuad_grass_c6createEN4nw4r3g3d6ResTexEN4nw4r3g3d6ResTexEN4nw4r3g3d6ResTexEN4nw4r3g3d6ResTexEN4nw4r3g3d6ResTexEiiP12mAllocator_c 0x8000A0C0 f
_ZN3d3d15texQuad_grass_c11drawTexQuadEv 0x8000A3D0 f
_ZN3d3d10rtexQuad_c6createEN4nw4r3g3d6ResTexEiiP12mAllocator_c 0x8000AA70 f
_ZN3d3d10rtexQuad_c11drawTexQuadEv 0x8000AB50   f
_ZN3d3d10rtexQuad_c6setOfsEPK7mVec3_c 0x8000AE50 f
_ZN3d3d14rtexMagaDeco_c6createEN4nw4r3g3d6ResTexEiiP12mAllocator_c 0x8000AEC0 f
_ZN3d3d14rtexMagaDeco_c15drawTexMagaDecoEv 0x8000AFA0 f
_ZN3d3d14rtexMagaDeco_c9setTexObjEiN4nw4r3g3d6ResTexE 0x8000B320 f
_ZN3d3d18rtexQuadManyTwin_c6createEiN4nw4r3g3d6ResTexEN4nw4r3g3d6ResTexEiiP12mAllocator_c 0x8000B370 f
_ZN3d3d18rtexQuadManyTwin_c25drawTexQuadManyTwinNormalEv 0x8000B530 f
_ZN3d3d18rtexQuadManyTwin_c24drawTexQuadManyTwinMagmaEv 0x8000BA70 f
_ZN3d3d18rtexQuadManyTwin_c23drawTexQuadManyTwinSandEv 0x8000C020 f
_ZN3d3d18rtexQuadManyTwin_c26drawTexQuadManyTwinMagmaHiEv 0x8000C5C0 f
_ZN3d3d18rtexQuadManyTwin_c25drawTexQuadManyTwinPoisonEv 0x8000CA50 f
_ZN3d3d18rtexQuadManyTwin_c19drawTexQuadManyTwinEv 0x8000D000 f
_ZN3d3d18rtexQuadManyTwin_c6setOfsERK7mVec3_cii 0x8000D0A0 f
_ZN3d3d18rtexQuadManyTwin_c6setOfsEPK7mVec3_ci 0x8000D0D0 f
_ZNK4nw4r3g3d6G3dObj13IsDerivedFromEN4nw4r3g3d6G3dObj7TypeObjE 0x8000D170 f
_ZN3d3d14setMatCullModeEPN3m3d6bmdl_cEi11_GXCullMode 0x8000D190 f
_ZN3d3d16resetTevColorAllEPN3m3d6bmdl_cE11_GXTevRegIDb 0x8000D260 f
_ZN3d3d17resetTevKColorAllEPN3m3d6bmdl_cE14_GXTevKColorIDb 0x8000D3B0 f
_ZN3d3d11getTevColorEP8_GXColorPN3m3d6bmdl_cEi11_GXTevRegID 0x8000D500 f
_ZN3d3d12getTevKColorEP8_GXColorPN3m3d6bmdl_cEi14_GXTevKColorID 0x8000D5B0 f
_ZN3d3d17setNodeVisibilityEPN3m3d6bmdl_cEii 0x8000D660 f
__sinit_\d_3d_cpp               0x8000D720      f
_ZN3d3d16rtexKinokoKuki_c11set_b_pointEft 0x8000D740 f
_ZN3d3d16rtexKinokoKuki_c6createEN4nw4r3g3d6ResTexEiiP12mAllocator_c 0x8000D7E0 f
_ZN3d3d16rtexKinokoKuki_c8acm_lineEft 0x8000D820 f
hash_E36B84D3_98A5A669          0x8000D870      f
hash_17EC0855_847D51AF          0x8000D8A0      f
_ZNK3d3d10rtexLine_c11drawTexLineEv 0x8000D930  f
_ZN3d3d10rtexLine_c6createEN4nw4r3g3d6ResTexEiiP12mAllocator_cf 0x8000DE70 f
hash_98E6B2B6_36644DAC          0x8000DF60      f
_ZNK3d3d14rtexMovePipe_c15acm_l_len_totalEv 0x8000E030 f
_ZNK3d3d14rtexMovePipe_c15drawTexMovePipeEv 0x8000E060 f
_ZN3d3d14rtexMovePipe_c6createERKN3EGG7ResTIMGEiiP12mAllocator_c 0x8000E840 f
_ZN3d3d15drawScreenSetupEbbfN4nw4r4math4VEC2EN4nw4r4math4VEC2E 0x8000E910 f
_ZN3d3d9drawQuad_Ebb            0x8000EBF0      f
_ZN3d3d13drawScreenEndEv        0x8000EDD0      f
_ZN3d3d10drawScreenEbbf         0x8000EDF0      f
_ZN3d3d14drawScreenBaseEbbfN4nw4r4math4VEC2EN4nw4r4math4VEC2E 0x8000EEB0 f
_ZN3d3d17drawScreenProjMapEbfN4nw4r4math5MTX34EN4nw4r4math4VEC2EN4nw4r4math4VEC2E 0x8000EF20 f
hash_450D9645_D859BD6D          0x8000EFC0      f
hash_ACE3EC2C_39598EFC          0x8000F030      f
hash_149182BC_EE5C5023          0x8000F0F0      f
hash_9DE85554_0155E3AE          0x8000F1B0      f
_ZN16dProcShareProc_c6createEPN3d3d6proc_cEPN3EGG4HeapE 0x8000F270 f
_ZN16dProcShareProc_c7drawOpaEv 0x8000F2E0      f
_ZN16dProcShareProc_c7drawXluEv 0x8000F300      f
_ZN16dProcShareProc_c6removeEv  0x8000F320      f
_ZN20dScnGroupShareProc_c6createEP15dRailScnGroup_cPN3EGG4HeapE 0x8000F370 f
_ZN20dScnGroupShareProc_c7drawOpaEv 0x8000F3E0  f
_ZN20dScnGroupShareProc_c7drawXluEv 0x8000F400  f
_ZN20dScnGroupShareProc_c6removeEv 0x8000F410   f
_ZN15dRailScnGroup_cC1EP12mAllocator_cPPN4nw4r3g3d6ScnObjEm 0x8000F460 f
_ZN15dRailScnGroup_c9ConstructEP12mAllocator_cPmmi 0x8000F4B0 f
_ZN15dRailScnGroup_c7G3dProcEmmPv 0x8000F570    f
_ZNK3m3d6proc_c7getTypeEv       0x8000F720      f
_ZN20dScnGroupShareProc_cD0Ev   0x8000F730      f
_ZNK4nw4r3g3d8ScnGroup13IsDerivedFromEN4nw4r3g3d6G3dObj7TypeObjE 0x8000F7B0 f
_ZNK4nw4r3g3d8ScnGroup11GetTypeNameEv 0x8000F800 f
_ZNK4nw4r3g3d8ScnGroup10GetTypeObjEv 0x8000F830 f
_ZN15dRailScnGroup_cD0Ev        0x8000F840      f
_ZN16dProcShareProc_cD0Ev       0x8000F880      f
hash_7D477662_32835D98          0x8000F900      f
hash_44F47ACE_25CFE4F9          0x8000F950      f
hash_76FE292E_E239A199          0x8000FBA0      f
_ZN7mVec3_cD0Ev                 0x8000FBF0      f
_ZN20dCourseSelectGuide_cC1Ev   0x8000FC30      f
_ZN13sStateMgrIf_cD0Ev          0x8000FE50      f
_ZN15sStateIDChkIf_cD0Ev        0x8000FE90      f
_ZN13sStateIDChk_cD0Ev          0x8000FED0      f
_ZN20sStateMethodUsr_FI_cD0Ev   0x8000FF10      f
_ZN13sStateFctIf_cD0Ev          0x8000FF70      f
_ZN10sStateIf_cD0Ev             0x8000FFB0      f
_ZN9sFState_cI20dCourseSelectGuide_cED0Ev 0x8000FFF0 f
_ZN12sFStateFct_cI20dCourseSelectGuide_cED0Ev 0x80010030 f
_ZN11sStateMgr_cI20dCourseSelectGuide_c20sStateMethodUsr_FI_c12sFStateFct_c13sStateIDChk_cED0Ev 0x80010070 f
_ZN12sFStateMgr_cI20dCourseSelectGuide_c20sStateMethodUsr_FI_cED0Ev 0x800100D0 f
_ZN20dCourseSelectGuide_cD0Ev   0x80010140      f
_ZN20dCourseSelectGuide_c12createLayoutEv 0x80010290 f
_ZN9dScWMap_c10getWorldNoEv     0x800105B0      f
_ZN20dCourseSelectGuide_c14ScissorMaskSetEv 0x800105C0 f
hash_503824C6_A57A03E1          0x80010690      f
_ZN20dCourseSelectGuide_c14RestNumberDispEv 0x80010800 f
_ZN20dCourseSelectGuide_c13RestAlphaDispEv 0x800108C0 f
_ZN20dCourseSelectGuide_c7executeEv 0x80010950  f
_ZN11sStateMgr_cI20dCourseSelectGuide_c20sStateMethodUsr_FI_c12sFStateFct_c13sStateIDChk_cE12executeStateEv 0x80010B00 f
_ZN20dCourseSelectGuide_c4drawEv 0x80010B10     f
_ZN20dCourseSelectGuide_c8doDeleteEv 0x80010B40 f
hash_0B1B4768_FB22AD78          0x80010B50      f
_ZN20dCourseSelectGuide_c17CollectionCoinSetEv 0x80010DD0 f
_ZN20dCourseSelectGuide_c18isArrowDispRequestEi 0x80010F40 f
_ZN20dCourseSelectGuide_c38initializeState_WorldCourseOnStageWaitEv 0x80010F60 f
_ZN20dCourseSelectGuide_c35executeState_WorldCourseOnStageWaitEv 0x80010F70 f
_ZN11sStateMgr_cI20dCourseSelectGuide_c20sStateMethodUsr_FI_c12sFStateFct_c13sStateIDChk_cE11changeStateERK12sStateIDIf_c 0x80010FE0 f
_ZN20dCourseSelectGuide_c36finalizeState_WorldCourseOnStageWaitEv 0x80010FF0 f
_ZN20dCourseSelectGuide_c47initializeState_WorldCourseOnStageAnimeEndCheckEv 0x80011000 f
_ZN20dCourseSelectGuide_c44executeState_WorldCourseOnStageAnimeEndCheckEv 0x80011020 f
_ZN20dCourseSelectGuide_c45finalizeState_WorldCourseOnStageAnimeEndCheckEv 0x800110B0 f
_ZN20dCourseSelectGuide_c31initializeState_WorldCourseDispEv 0x800110C0 f
_ZN20dCourseSelectGuide_c28executeState_WorldCourseDispEv 0x800110D0 f
_ZN20dCourseSelectGuide_c29finalizeState_WorldCourseDispEv 0x80011110 f
_ZN20dCourseSelectGuide_c44initializeState_WorldCourseExitAnimeEndCheckEv 0x80011120 f
_ZN20dCourseSelectGuide_c41executeState_WorldCourseExitAnimeEndCheckEv 0x80011180 f
_ZN20dCourseSelectGuide_c42finalizeState_WorldCourseExitAnimeEndCheckEv 0x80011220 f
_ZN20dCourseSelectGuide_c32initializeState_GuideOnStageWaitEv 0x80011230 f
_ZN20dCourseSelectGuide_c29executeState_GuideOnStageWaitEv 0x80011240 f
_ZN20dCourseSelectGuide_c30finalizeState_GuideOnStageWaitEv 0x800112B0 f
_ZN20dCourseSelectGuide_c41initializeState_GuideOnStageAnimeEndCheckEv 0x800112C0 f
_ZN20dCourseSelectGuide_c38executeState_GuideOnStageAnimeEndCheckEv 0x80011310 f
_ZN20dCourseSelectGuide_c39finalizeState_GuideOnStageAnimeEndCheckEv 0x800113D0 f
_ZN20dCourseSelectGuide_c25initializeState_GuideDispEv 0x800113E0 f
_ZN20dCourseSelectGuide_c22executeState_GuideDispEv 0x80011420 f
_ZN20dCourseSelectGuide_c23finalizeState_GuideDispEv 0x80011460 f
_ZN20dCourseSelectGuide_c38initializeState_GuideExitAnimeEndCheckEv 0x80011470 f
_ZN20dCourseSelectGuide_c35executeState_GuideExitAnimeEndCheckEv 0x800114E0 f
_ZN20dCourseSelectGuide_c36finalizeState_GuideExitAnimeEndCheckEv 0x800115A0 f
_ZN20dCourseSelectGuide_c29initializeState_UpOnStageWaitEv 0x800115B0 f
_ZN20dCourseSelectGuide_c26executeState_UpOnStageWaitEv 0x800115C0 f
_ZN20dCourseSelectGuide_c27finalizeState_UpOnStageWaitEv 0x80011630 f
_ZN20dCourseSelectGuide_c38initializeState_UpOnStageAnimeEndCheckEv 0x80011640 f
_ZN20dCourseSelectGuide_c35executeState_UpOnStageAnimeEndCheckEv 0x80011660 f
_ZN20dCourseSelectGuide_c36finalizeState_UpOnStageAnimeEndCheckEv 0x80011720 f
_ZN20dCourseSelectGuide_c22initializeState_UpDispEv 0x80011730 f
_ZN20dCourseSelectGuide_c19executeState_UpDispEv 0x80011740 f
_ZN20dCourseSelectGuide_c20finalizeState_UpDispEv 0x800117A0 f
_ZN20dCourseSelectGuide_c35initializeState_UpExitAnimeEndCheckEv 0x800117B0 f
_ZN20dCourseSelectGuide_c32executeState_UpExitAnimeEndCheckEv 0x80011800 f
_ZN20dCourseSelectGuide_c33finalizeState_UpExitAnimeEndCheckEv 0x80011890 f
_ZN20dCourseSelectGuide_c31initializeState_DownOnStageWaitEv 0x800118A0 f
_ZN20dCourseSelectGuide_c28executeState_DownOnStageWaitEv 0x800118B0 f
_ZN20dCourseSelectGuide_c29finalizeState_DownOnStageWaitEv 0x80011920 f
_ZN20dCourseSelectGuide_c40initializeState_DownOnStageAnimeEndCheckEv 0x80011930 f
_ZN20dCourseSelectGuide_c37executeState_DownOnStageAnimeEndCheckEv 0x80011950 f
_ZN20dCourseSelectGuide_c38finalizeState_DownOnStageAnimeEndCheckEv 0x800119F0 f
_ZN20dCourseSelectGuide_c24initializeState_DownDispEv 0x80011A00 f
_ZN20dCourseSelectGuide_c21executeState_DownDispEv 0x80011A10 f
_ZN20dCourseSelectGuide_c22finalizeState_DownDispEv 0x80011A70 f
_ZN20dCourseSelectGuide_c37initializeState_DownExitAnimeEndCheckEv 0x80011A80 f
_ZN20dCourseSelectGuide_c34executeState_DownExitAnimeEndCheckEv 0x80011AD0 f
_ZN20dCourseSelectGuide_c35finalizeState_DownExitAnimeEndCheckEv 0x80011B60 f
_ZN20dCourseSelectGuide_c31initializeState_LeftOnStageWaitEv 0x80011B70 f
_ZN20dCourseSelectGuide_c28executeState_LeftOnStageWaitEv 0x80011B80 f
_ZN20dCourseSelectGuide_c29finalizeState_LeftOnStageWaitEv 0x80011BF0 f
_ZN20dCourseSelectGuide_c40initializeState_LeftOnStageAnimeEndCheckEv 0x80011C00 f
_ZN20dCourseSelectGuide_c37executeState_LeftOnStageAnimeEndCheckEv 0x80011C20 f
_ZN20dCourseSelectGuide_c38finalizeState_LeftOnStageAnimeEndCheckEv 0x80011CC0 f
_ZN20dCourseSelectGuide_c24initializeState_LeftDispEv 0x80011CD0 f
_ZN20dCourseSelectGuide_c21executeState_LeftDispEv 0x80011CE0 f
_ZN20dCourseSelectGuide_c22finalizeState_LeftDispEv 0x80011D40 f
_ZN20dCourseSelectGuide_c37initializeState_LeftExitAnimeEndCheckEv 0x80011D50 f
_ZN20dCourseSelectGuide_c34executeState_LeftExitAnimeEndCheckEv 0x80011DA0 f
_ZN20dCourseSelectGuide_c35finalizeState_LeftExitAnimeEndCheckEv 0x80011E30 f
_ZN20dCourseSelectGuide_c32initializeState_RightOnStageWaitEv 0x80011E40 f
_ZN20dCourseSelectGuide_c29executeState_RightOnStageWaitEv 0x80011E50 f
_ZN20dCourseSelectGuide_c30finalizeState_RightOnStageWaitEv 0x80011EC0 f
_ZN20dCourseSelectGuide_c41initializeState_RightOnStageAnimeEndCheckEv 0x80011ED0 f
_ZN20dCourseSelectGuide_c38executeState_RightOnStageAnimeEndCheckEv 0x80011EF0 f
_ZN20dCourseSelectGuide_c39finalizeState_RightOnStageAnimeEndCheckEv 0x80011F90 f
_ZN20dCourseSelectGuide_c25initializeState_RightDispEv 0x80011FA0 f
_ZN20dCourseSelectGuide_c22executeState_RightDispEv 0x80011FB0 f
_ZN20dCourseSelectGuide_c23finalizeState_RightDispEv 0x80012010 f
_ZN20dCourseSelectGuide_c38initializeState_RightExitAnimeEndCheckEv 0x80012020 f
_ZN20dCourseSelectGuide_c35executeState_RightExitAnimeEndCheckEv 0x80012070 f
_ZN20dCourseSelectGuide_c36finalizeState_RightExitAnimeEndCheckEv 0x80012100 f
_ZN20dCourseSelectGuide_c33initializeState_ShadowOnStageWaitEv 0x80012110 f
_ZN20dCourseSelectGuide_c30executeState_ShadowOnStageWaitEv 0x80012120 f
_ZN20dCourseSelectGuide_c31finalizeState_ShadowOnStageWaitEv 0x80012150 f
_ZN20dCourseSelectGuide_c42initializeState_ShadowOnStageAnimeEndCheckEv 0x80012160 f
_ZN20dCourseSelectGuide_c39executeState_ShadowOnStageAnimeEndCheckEv 0x80012170 f
_ZN20dCourseSelectGuide_c40finalizeState_ShadowOnStageAnimeEndCheckEv 0x800121D0 f
_ZN20dCourseSelectGuide_c26initializeState_ShadowDispEv 0x800121E0 f
_ZN20dCourseSelectGuide_c23executeState_ShadowDispEv 0x800121F0 f
_ZN20dCourseSelectGuide_c24finalizeState_ShadowDispEv 0x80012220 f
_ZN20dCourseSelectGuide_c39initializeState_ShadowExitAnimeEndCheckEv 0x80012230 f
_ZN20dCourseSelectGuide_c36executeState_ShadowExitAnimeEndCheckEv 0x80012240 f
_ZN20dCourseSelectGuide_c37finalizeState_ShadowExitAnimeEndCheckEv 0x800122A0 f
_ZN20dCourseSelectGuide_c38initializeState_ScrollGuideOnStageWaitEv 0x800122B0 f
_ZN20dCourseSelectGuide_c35executeState_ScrollGuideOnStageWaitEv 0x800122C0 f
_ZN20dCourseSelectGuide_c36finalizeState_ScrollGuideOnStageWaitEv 0x80012320 f
_ZN20dCourseSelectGuide_c47initializeState_ScrollGuideOnStageAnimeEndCheckEv 0x80012330 f
_ZN20dCourseSelectGuide_c44executeState_ScrollGuideOnStageAnimeEndCheckEv 0x800123C0 f
_ZN20dCourseSelectGuide_c45finalizeState_ScrollGuideOnStageAnimeEndCheckEv 0x80012450 f
_ZN20dCourseSelectGuide_c31initializeState_ScrollGuideDispEv 0x80012460 f
_ZN20dCourseSelectGuide_c28executeState_ScrollGuideDispEv 0x80012470 f
_ZN20dCourseSelectGuide_c29finalizeState_ScrollGuideDispEv 0x800124A0 f
_ZN20dCourseSelectGuide_c44initializeState_ScrollGuideExitAnimeEndCheckEv 0x800124B0 f
_ZN20dCourseSelectGuide_c41executeState_ScrollGuideExitAnimeEndCheckEv 0x80012500 f
_ZN20dCourseSelectGuide_c42finalizeState_ScrollGuideExitAnimeEndCheckEv 0x80012560 f
hash_EAE753FC_BB2B373A          0x800125C0      f
_ZN20dCourseSelectGuide_c22ControllerConnectCheckEv 0x800126A0 f
_ZNK13sStateIDChk_c10isNormalIDERK12sStateIDIf_c 0x80012770 f
_ZN12sFStateFct_cI20dCourseSelectGuide_cE5buildERK12sStateIDIf_c 0x80012780 f
_ZN12sFStateFct_cI20dCourseSelectGuide_cE7disposeERP10sStateIf_c 0x800127E0 f
_ZN9sFState_cI20dCourseSelectGuide_cE10initializeEv 0x800127F0 f
_ZN9sFState_cI20dCourseSelectGuide_cE7executeEv 0x80012810 f
_ZN9sFState_cI20dCourseSelectGuide_cE8finalizeEv 0x80012830 f
_ZN11sStateMgr_cI20dCourseSelectGuide_c20sStateMethodUsr_FI_c12sFStateFct_c13sStateIDChk_cE15initializeStateEv 0x80012850 f
_ZN11sStateMgr_cI20dCourseSelectGuide_c20sStateMethodUsr_FI_c12sFStateFct_c13sStateIDChk_cE13finalizeStateEv 0x80012860 f
_ZN11sStateMgr_cI20dCourseSelectGuide_c20sStateMethodUsr_FI_c12sFStateFct_c13sStateIDChk_cE12refreshStateEv 0x80012870 f
_ZN14sStateMethod_c18refreshStateMethodEv 0x80012880 f
_ZNK11sStateMgr_cI20dCourseSelectGuide_c20sStateMethodUsr_FI_c12sFStateFct_c13sStateIDChk_cE8getStateEv 0x80012890 f
_ZNK14sStateMethod_c8getStateEv 0x800128A0      f
_ZNK11sStateMgr_cI20dCourseSelectGuide_c20sStateMethodUsr_FI_c12sFStateFct_c13sStateIDChk_cE13getNewStateIDEv 0x800128B0 f
_ZNK14sStateMethod_c13getNewStateIDEv 0x800128C0 f
_ZNK11sStateMgr_cI20dCourseSelectGuide_c20sStateMethodUsr_FI_c12sFStateFct_c13sStateIDChk_cE10getStateIDEv 0x800128D0 f
_ZNK14sStateMethod_c10getStateIDEv 0x800128E0   f
_ZNK11sStateMgr_cI20dCourseSelectGuide_c20sStateMethodUsr_FI_c12sFStateFct_c13sStateIDChk_cE13getOldStateIDEv 0x800128F0 f
_ZNK14sStateMethod_c13getOldStateIDEv 0x80012900 f
_ZNK11sFStateID_cI20dCourseSelectGuide_cE13finalizeStateER20dCourseSelectGuide_c 0x80012910 f
_ZNK11sFStateID_cI20dCourseSelectGuide_cE12executeStateER20dCourseSelectGuide_c 0x80012940 f
_ZNK11sFStateID_cI20dCourseSelectGuide_cE15initializeStateER20dCourseSelectGuide_c 0x80012970 f
__sinit_\d_CourseSelectGuide_cpp 0x800129A0     f
__arraydtor$64535               0x800141E0      f
_ZN6dWmLib19ForceInCourseList_tD0Ev 0x80014200  f
_ZN11sFStateID_cI20dCourseSelectGuide_cED0Ev 0x80014240 f
_ZNK11sFStateID_cI20dCourseSelectGuide_cE10isSameNameEPKc 0x800142A0 f
_ZN13GXStateSave_cC1Ev          0x80014330      f
_ZN13GXStateSave_cD0Ev          0x80014340      f
_ZN13GXStateSave_c4saveEm       0x80014380      f
_ZN13GXStateSave_c7restoreEv    0x80014480      f
_ZN15dPanelObjList_cC1Ev        0x800145B0      f
_ZN15dPanelObjList_cD0Ev        0x800145F0      f
_ZNK15dPanelObjList_c8getValueEv 0x80014630     f
_ZNK15dPanelObjList_c8isChangeEv 0x80014640     f
_ZN15dPanelObjList_c9setChangeEb 0x80014660     f
_ZNK15dPanelObjList_c7getPosXEv 0x80014670      f
_ZNK15dPanelObjList_c7getPosYEv 0x80014680      f
_ZNK15dPanelObjList_c7getPosZEv 0x80014690      f
_ZN15dPanelObjList_c8setPosXYEff 0x800146A0     f
_ZN15dPanelObjList_c6setPosEfff 0x800146B0      f
_ZNK15dPanelObjList_c7getTypeEv 0x800146C0      f
_ZN15dPanelObjList_c12setScaleFootEf 0x800146D0 f
_ZN15dPanelObjList_c13setScaleAngleEfs 0x800146F0 f
_ZNK15dPanelObjList_c8getScaleEv 0x80014710     f
_ZNK15dPanelObjList_c9getAngleFEv 0x80014750    f
_ZNK15dPanelObjList_c9getAngleSEv 0x800147A0    f
_ZNK15dPanelObjList_c8getPartsEv 0x800147E0     f
_ZN14dPanelObjMgr_c15addPanelObjListEP15dPanelObjList_c 0x80014820 f
_ZN14dPanelObjMgr_c18removePanelObjListEP15dPanelObjList_c 0x80014860 f
_ZN14dPanelObjMgr_c21removeAllPanelObjListEv 0x800148B0 f
_ZN14dPanelObjMgr_cC1Ev         0x800148F0      f
_ZN14dPanelObjMgr_cD0Ev         0x80014910      f
_ZN16dSimpleCapture_cC1Ev       0x80014970      f
_ZN16dSimpleCapture_cD0Ev       0x800149C0      f
_ZN16dSimpleCapture_c7destroyEv 0x80014A20      f
_ZN16dSimpleCapture_c6createEP12mAllocator_cii 0x80014A30 f
_ZN16dSimpleCapture_c7drawXluEv 0x80014AD0      f
_ZN20dSimpleCaptureDraw_cC1Ev   0x80014B30      f
_ZN20dSimpleCaptureDraw_cD0Ev   0x80014B80      f
_ZN20dSimpleCaptureDraw_c6createEP12mAllocator_c 0x80014BE0 f
_ZN20dSimpleCaptureDraw_c7drawOpaEv 0x80014BF0  f
_ZN20dSimpleCaptureDraw_c7drawXluEv 0x80014EF0  f
_ZN16dSimpleCapture_c7drawOpaEv 0x80014F00      f
_ZN13dSmallScore_cC1Ev          0x80014F10      f
_ZN13dSmallScore_cD0Ev          0x80014F80      f
_ZN13dSmallScore_c12createLayoutEPN3d2d18ResAccMultLoader_cE 0x80014FF0 f
_ZN13dSmallScore_c7executeEv    0x80015160      f
_ZN13dSmallScore_c4drawEv       0x800151D0      f
_ZN13dSmallScore_c8doDeleteEv   0x800151F0      f
_ZN13dSmallScore_c17setPlayer1upColorEi 0x80015200 f
_ZN13dSmallScore_c18setPlayer1000ColorEi 0x80015210 f
_ZN13dSmallScore_c17setPlayer100ColorEi 0x800153B0 f
_ZN13dSmallScore_c8chgColorEv   0x800154E0      f
_ZN13dSmallScore_c20setNormalOrBlueColorEv 0x80015580 f
_ZN13dSmallScore_c14ScissorMaskSetEv 0x800156B0 f
_ZN13dSmallScore_c13BigSmallAnimeEv 0x80015780  f
_ZN13dSmallScore_c9MakeStartEv  0x80015860      f
_ZN13dSmallScore_c6UpMoveEv     0x80015A50      f
_ZN13dSmallScore_c8DispWaitEv   0x80015AD0      f
_ZN13dSmallScore_c13GoalScoreDispEv 0x80015C00  f
_ZN13dSmallScore_c11PositionSetEv 0x80015C10    f
_ZN13dSmallScore_c16CreateSmallScoreERK7mVec3_cii 0x80015CE0 f
_ZN13dSmallScore_c6PosSetERK7mVec3_c 0x80015D40 f
_ZN17dWarningBattery_cC1Ev      0x80015D60      f
_ZN7mVec3_cC1Ev                 0x80015E30      f
_ZN9sFState_cI17dWarningBattery_cED0Ev 0x80015E40 f
_ZN12sFStateFct_cI17dWarningBattery_cED0Ev 0x80015E80 f
_ZN11sStateMgr_cI17dWarningBattery_c20sStateMethodUsr_FI_c12sFStateFct_c13sStateIDChk_cED0Ev 0x80015EC0 f
_ZN12sFStateMgr_cI17dWarningBattery_c20sStateMethodUsr_FI_cED0Ev 0x80015F20 f
_ZN17dWarningBattery_cD0Ev      0x80015F90      f
_ZN17dWarningBattery_c12createLayoutEv 0x80016020 f
_ZN17dWarningBattery_c7executeEv 0x80016210     f
_ZN11sStateMgr_cI17dWarningBattery_c20sStateMethodUsr_FI_c12sFStateFct_c13sStateIDChk_cE11changeStateERK12sStateIDIf_c 0x800162A0 f
_ZN11sStateMgr_cI17dWarningBattery_c20sStateMethodUsr_FI_c12sFStateFct_c13sStateIDChk_cE12executeStateEv 0x800162B0 f
_ZN17dWarningBattery_c4drawEv   0x800162C0      f
_ZN17dWarningBattery_c8doDeleteEv 0x800162E0    f
_ZN17dWarningBattery_c24initializeState_DispWaitEv 0x800162F0 f
_ZN17dWarningBattery_c21executeState_DispWaitEv 0x80016300 f
_ZN17dWarningBattery_c22finalizeState_DispWaitEv 0x800163E0 f
_ZN17dWarningBattery_c32initializeState_OpenAnimeEndWaitEv 0x800163F0 f
_ZN17dWarningBattery_c29executeState_OpenAnimeEndWaitEv 0x80016430 f
_ZN17dWarningBattery_c30finalizeState_OpenAnimeEndWaitEv 0x80016690 f
_ZN17dWarningBattery_c38initializeState_LowBatteryAnimeEndWaitEv 0x800166A0 f
_ZN17dWarningBattery_c35executeState_LowBatteryAnimeEndWaitEv 0x800166B0 f
_ZN17dWarningBattery_c36finalizeState_LowBatteryAnimeEndWaitEv 0x80016750 f
_ZN17dWarningBattery_c27initializeState_DispEndWaitEv 0x80016760 f
_ZN17dWarningBattery_c24executeState_DispEndWaitEv 0x80016770 f
_ZN17dWarningBattery_c25finalizeState_DispEndWaitEv 0x800167A0 f
_ZN17dWarningBattery_c32initializeState_ExitAnimeEndWaitEv 0x800167B0 f
_ZN17dWarningBattery_c29executeState_ExitAnimeEndWaitEv 0x800167F0 f
_ZN17dWarningBattery_c30finalizeState_ExitAnimeEndWaitEv 0x80016860 f
_ZN17dWarningBattery_c7setDispEi 0x80016870     f
_ZN12sFStateFct_cI17dWarningBattery_cE5buildERK12sStateIDIf_c 0x800168B0 f
_ZN12sFStateFct_cI17dWarningBattery_cE7disposeERP10sStateIf_c 0x80016910 f
_ZN9sFState_cI17dWarningBattery_cE10initializeEv 0x80016920 f
_ZN9sFState_cI17dWarningBattery_cE7executeEv 0x80016940 f
_ZN9sFState_cI17dWarningBattery_cE8finalizeEv 0x80016960 f
_ZN11sStateMgr_cI17dWarningBattery_c20sStateMethodUsr_FI_c12sFStateFct_c13sStateIDChk_cE15initializeStateEv 0x80016980 f
_ZN11sStateMgr_cI17dWarningBattery_c20sStateMethodUsr_FI_c12sFStateFct_c13sStateIDChk_cE13finalizeStateEv 0x80016990 f
_ZN11sStateMgr_cI17dWarningBattery_c20sStateMethodUsr_FI_c12sFStateFct_c13sStateIDChk_cE12refreshStateEv 0x800169A0 f
_ZNK11sStateMgr_cI17dWarningBattery_c20sStateMethodUsr_FI_c12sFStateFct_c13sStateIDChk_cE8getStateEv 0x800169B0 f
_ZNK11sStateMgr_cI17dWarningBattery_c20sStateMethodUsr_FI_c12sFStateFct_c13sStateIDChk_cE13getNewStateIDEv 0x800169C0 f
_ZNK11sStateMgr_cI17dWarningBattery_c20sStateMethodUsr_FI_c12sFStateFct_c13sStateIDChk_cE10getStateIDEv 0x800169D0 f
_ZNK11sStateMgr_cI17dWarningBattery_c20sStateMethodUsr_FI_c12sFStateFct_c13sStateIDChk_cE13getOldStateIDEv 0x800169E0 f
_ZNK11sFStateID_cI17dWarningBattery_cE13finalizeStateER17dWarningBattery_c 0x800169F0 f
_ZNK11sFStateID_cI17dWarningBattery_cE12executeStateER17dWarningBattery_c 0x80016A20 f
_ZNK11sFStateID_cI17dWarningBattery_cE15initializeStateER17dWarningBattery_c 0x80016A50 f
__sinit_\d_WarningBattery_cpp   0x80016A80      f
_ZN11sFStateID_cI17dWarningBattery_cED0Ev 0x80016E80 f
_ZNK11sFStateID_cI17dWarningBattery_cE10isSameNameEPKc 0x80016EE0 f
_ZN19dWarningErrorInfo_cC1Ev    0x80016F70      f
_ZN9sFState_cI19dWarningErrorInfo_cED0Ev 0x80017020 f
_ZN12sFStateFct_cI19dWarningErrorInfo_cED0Ev 0x80017060 f
_ZN11sStateMgr_cI19dWarningErrorInfo_c20sStateMethodUsr_FI_c12sFStateFct_c13sStateIDChk_cED0Ev 0x800170A0 f
_ZN12sFStateMgr_cI19dWarningErrorInfo_c20sStateMethodUsr_FI_cED0Ev 0x80017100 f
_ZN19dWarningErrorInfo_cD0Ev    0x80017170      f
_ZN19dWarningErrorInfo_c12createLayoutEv 0x800171F0 f
_ZN19dWarningErrorInfo_c7executeEv 0x80017340   f
_ZN11sStateMgr_cI19dWarningErrorInfo_c20sStateMethodUsr_FI_c12sFStateFct_c13sStateIDChk_cE11changeStateERK12sStateIDIf_c 0x80017420 f
_ZN11sStateMgr_cI19dWarningErrorInfo_c20sStateMethodUsr_FI_c12sFStateFct_c13sStateIDChk_cE12executeStateEv 0x80017430 f
_ZN19dWarningErrorInfo_c4drawEv 0x80017440      f
_ZN19dWarningErrorInfo_c24initializeState_DispWaitEv 0x80017460 f
_ZN19dWarningErrorInfo_c21executeState_DispWaitEv 0x80017470 f
_ZN19dWarningErrorInfo_c22finalizeState_DispWaitEv 0x800174B0 f
_ZN19dWarningErrorInfo_c32initializeState_OpenAnimeEndWaitEv 0x800174C0 f
_ZN19dWarningErrorInfo_c29executeState_OpenAnimeEndWaitEv 0x800175C0 f
_ZN19dWarningErrorInfo_c30finalizeState_OpenAnimeEndWaitEv 0x80017620 f
_ZN19dWarningErrorInfo_c41initializeState_ButtonOnStageAnimeEndWaitEv 0x80017630 f
_ZN19dWarningErrorInfo_c38executeState_ButtonOnStageAnimeEndWaitEv 0x80017910 f
_ZN19dWarningErrorInfo_c39finalizeState_ButtonOnStageAnimeEndWaitEv 0x800179E0 f
_ZN19dWarningErrorInfo_c28initializeState_ButtonChangeEv 0x80017A10 f
_ZN19dWarningErrorInfo_c25executeState_ButtonChangeEv 0x80017A90 f
_ZN19dWarningErrorInfo_c26finalizeState_ButtonChangeEv 0x80017B10 f
_ZN19dWarningErrorInfo_c28initializeState_ButtonSelectEv 0x80017B20 f
_ZN19dWarningErrorInfo_c25executeState_ButtonSelectEv 0x80017BB0 f
_ZNK3EGG14CoreController11downTriggerEm 0x80017CE0 f
_ZN19dWarningErrorInfo_c26finalizeState_ButtonSelectEv 0x80017D00 f
_ZN19dWarningErrorInfo_c37initializeState_ButtonHitAnimeEndWaitEv 0x80017D60 f
_ZN19dWarningErrorInfo_c34executeState_ButtonHitAnimeEndWaitEv 0x80017DE0 f
_ZN19dWarningErrorInfo_c35finalizeState_ButtonHitAnimeEndWaitEv 0x80017EC0 f
_ZN19dWarningErrorInfo_c27initializeState_DispEndWaitEv 0x80017ED0 f
_ZN19dWarningErrorInfo_c24executeState_DispEndWaitEv 0x80017EE0 f
_ZN19dWarningErrorInfo_c25finalizeState_DispEndWaitEv 0x80017F60 f
_ZN19dWarningErrorInfo_c31initializeState_HitAnimeEndWaitEv 0x80017F70 f
_ZN19dWarningErrorInfo_c28executeState_HitAnimeEndWaitEv 0x80017FD0 f
_ZN19dWarningErrorInfo_c29finalizeState_HitAnimeEndWaitEv 0x80018040 f
_ZN19dWarningErrorInfo_c32initializeState_ExitAnimeEndWaitEv 0x80018050 f
_ZN19dWarningErrorInfo_c29executeState_ExitAnimeEndWaitEv 0x80018060 f
_ZN19dWarningErrorInfo_c30finalizeState_ExitAnimeEndWaitEv 0x800180D0 f
_ZN19dWarningErrorInfo_c30initializeState_FileDeleteWaitEv 0x800180E0 f
_ZN19dWarningErrorInfo_c27executeState_FileDeleteWaitEv 0x800180F0 f
_ZN19dWarningErrorInfo_c28finalizeState_FileDeleteWaitEv 0x80018120 f
_ZN19dWarningErrorInfo_c28initializeState_InfinityDispEv 0x80018130 f
_ZN19dWarningErrorInfo_c25executeState_InfinityDispEv 0x80018140 f
_ZN19dWarningErrorInfo_c26finalizeState_InfinityDispEv 0x80018150 f
_ZN11sStateMgr_cI19dWarningErrorInfo_c20sStateMethodUsr_FI_c12sFStateFct_c13sStateIDChk_cE15initializeStateEv 0x80018160 f
_ZN11sStateMgr_cI19dWarningErrorInfo_c20sStateMethodUsr_FI_c12sFStateFct_c13sStateIDChk_cE13finalizeStateEv 0x80018170 f
_ZN12sFStateFct_cI19dWarningErrorInfo_cE5buildERK12sStateIDIf_c 0x80018180 f
_ZN12sFStateFct_cI19dWarningErrorInfo_cE7disposeERP10sStateIf_c 0x800181E0 f
_ZN9sFState_cI19dWarningErrorInfo_cE10initializeEv 0x800181F0 f
_ZN9sFState_cI19dWarningErrorInfo_cE7executeEv 0x80018210 f
_ZN9sFState_cI19dWarningErrorInfo_cE8finalizeEv 0x80018230 f
_ZN11sStateMgr_cI19dWarningErrorInfo_c20sStateMethodUsr_FI_c12sFStateFct_c13sStateIDChk_cE12refreshStateEv 0x80018250 f
_ZNK11sStateMgr_cI19dWarningErrorInfo_c20sStateMethodUsr_FI_c12sFStateFct_c13sStateIDChk_cE8getStateEv 0x80018260 f
_ZNK11sStateMgr_cI19dWarningErrorInfo_c20sStateMethodUsr_FI_c12sFStateFct_c13sStateIDChk_cE13getNewStateIDEv 0x80018270 f
_ZNK11sStateMgr_cI19dWarningErrorInfo_c20sStateMethodUsr_FI_c12sFStateFct_c13sStateIDChk_cE10getStateIDEv 0x80018280 f
_ZNK11sStateMgr_cI19dWarningErrorInfo_c20sStateMethodUsr_FI_c12sFStateFct_c13sStateIDChk_cE13getOldStateIDEv 0x80018290 f
_ZNK11sFStateID_cI19dWarningErrorInfo_cE13finalizeStateER19dWarningErrorInfo_c 0x800182A0 f
_ZNK11sFStateID_cI19dWarningErrorInfo_cE12executeStateER19dWarningErrorInfo_c 0x800182D0 f
_ZNK11sFStateID_cI19dWarningErrorInfo_cE15initializeStateER19dWarningErrorInfo_c 0x80018300 f
__sinit_\d_WarningErrorInfo_cpp 0x80018330      f
_ZN11sFStateID_cI19dWarningErrorInfo_cED0Ev 0x80018BB0 f
_ZNK11sFStateID_cI19dWarningErrorInfo_cE10isSameNameEPKc 0x80018C10 f
_ZN17dWarningNunchuk_cC1Ev      0x80018CA0      f
_ZN9sFState_cI17dWarningNunchuk_cED0Ev 0x80018D50 f
_ZN12sFStateFct_cI17dWarningNunchuk_cED0Ev 0x80018D90 f
_ZN11sStateMgr_cI17dWarningNunchuk_c20sStateMethodUsr_FI_c12sFStateFct_c13sStateIDChk_cED0Ev 0x80018DD0 f
_ZN12sFStateMgr_cI17dWarningNunchuk_c20sStateMethodUsr_FI_cED0Ev 0x80018E30 f
_ZN17dWarningNunchuk_cD0Ev      0x80018EA0      f
_ZN17dWarningNunchuk_c12createLayoutEv 0x80018F20 f
_ZN17dWarningNunchuk_c7executeEv 0x80019080     f
_ZN11sStateMgr_cI17dWarningNunchuk_c20sStateMethodUsr_FI_c12sFStateFct_c13sStateIDChk_cE12executeStateEv 0x800190E0 f
_ZN17dWarningNunchuk_c4drawEv   0x800190F0      f
_ZN17dWarningNunchuk_c8doDeleteEv 0x80019110    f
_ZN17dWarningNunchuk_c25initializeState_StartWaitEv 0x80019120 f
_ZN17dWarningNunchuk_c22executeState_StartWaitEv 0x80019140 f
_ZN11sStateMgr_cI17dWarningNunchuk_c20sStateMethodUsr_FI_c12sFStateFct_c13sStateIDChk_cE11changeStateERK12sStateIDIf_c 0x800191B0 f
_ZN17dWarningNunchuk_c23finalizeState_StartWaitEv 0x800191C0 f
_ZN17dWarningNunchuk_c32initializeState_OpenAnimeEndWaitEv 0x800191D0 f
_ZN17dWarningNunchuk_c29executeState_OpenAnimeEndWaitEv 0x80019200 f
_ZN17dWarningNunchuk_c30finalizeState_OpenAnimeEndWaitEv 0x80019260 f
_ZN17dWarningNunchuk_c24initializeState_ExitWaitEv 0x80019270 f
_ZN17dWarningNunchuk_c21executeState_ExitWaitEv 0x80019290 f
_ZN17dWarningNunchuk_c22finalizeState_ExitWaitEv 0x800192C0 f
_ZN17dWarningNunchuk_c32initializeState_ExitAnimeEndWaitEv 0x800192D0 f
_ZN17dWarningNunchuk_c29executeState_ExitAnimeEndWaitEv 0x800192F0 f
_ZN17dWarningNunchuk_c30finalizeState_ExitAnimeEndWaitEv 0x80019350 f
_ZN17dWarningNunchuk_c11setPlayerNoEi 0x80019360 f
_ZN17dWarningNunchuk_c16WindowCloseSetupEv 0x80019380 f
_ZN12sFStateFct_cI17dWarningNunchuk_cE5buildERK12sStateIDIf_c 0x80019390 f
_ZN12sFStateFct_cI17dWarningNunchuk_cE7disposeERP10sStateIf_c 0x800193F0 f
_ZN9sFState_cI17dWarningNunchuk_cE10initializeEv 0x80019400 f
_ZN9sFState_cI17dWarningNunchuk_cE7executeEv 0x80019420 f
_ZN9sFState_cI17dWarningNunchuk_cE8finalizeEv 0x80019440 f
_ZN11sStateMgr_cI17dWarningNunchuk_c20sStateMethodUsr_FI_c12sFStateFct_c13sStateIDChk_cE15initializeStateEv 0x80019460 f
_ZN11sStateMgr_cI17dWarningNunchuk_c20sStateMethodUsr_FI_c12sFStateFct_c13sStateIDChk_cE13finalizeStateEv 0x80019470 f
_ZN11sStateMgr_cI17dWarningNunchuk_c20sStateMethodUsr_FI_c12sFStateFct_c13sStateIDChk_cE12refreshStateEv 0x80019480 f
_ZNK11sStateMgr_cI17dWarningNunchuk_c20sStateMethodUsr_FI_c12sFStateFct_c13sStateIDChk_cE8getStateEv 0x80019490 f
_ZNK11sStateMgr_cI17dWarningNunchuk_c20sStateMethodUsr_FI_c12sFStateFct_c13sStateIDChk_cE13getNewStateIDEv 0x800194A0 f
_ZNK11sStateMgr_cI17dWarningNunchuk_c20sStateMethodUsr_FI_c12sFStateFct_c13sStateIDChk_cE10getStateIDEv 0x800194B0 f
_ZNK11sStateMgr_cI17dWarningNunchuk_c20sStateMethodUsr_FI_c12sFStateFct_c13sStateIDChk_cE13getOldStateIDEv 0x800194C0 f
_ZNK11sFStateID_cI17dWarningNunchuk_cE13finalizeStateER17dWarningNunchuk_c 0x800194D0 f
_ZNK11sFStateID_cI17dWarningNunchuk_cE12executeStateER17dWarningNunchuk_c 0x80019500 f
_ZNK11sFStateID_cI17dWarningNunchuk_cE15initializeStateER17dWarningNunchuk_c 0x80019530 f
__sinit_\d_WarningNunchuk_cpp   0x80019560      f
_ZN11sFStateID_cI17dWarningNunchuk_cED0Ev 0x800198A0 f
_ZNK11sFStateID_cI17dWarningNunchuk_cE10isSameNameEPKc 0x80019900 f
_ZN15dWarningOther_cC1Ev        0x80019990      f
_ZN9sFState_cI15dWarningOther_cED0Ev 0x80019A40 f
_ZN12sFStateFct_cI15dWarningOther_cED0Ev 0x80019A80 f
_ZN11sStateMgr_cI15dWarningOther_c20sStateMethodUsr_FI_c12sFStateFct_c13sStateIDChk_cED0Ev 0x80019AC0 f
_ZN12sFStateMgr_cI15dWarningOther_c20sStateMethodUsr_FI_cED0Ev 0x80019B20 f
_ZN15dWarningOther_cD0Ev        0x80019B90      f
_ZN15dWarningOther_c12createLayoutEv 0x80019C10 f
_ZN15dWarningOther_c7executeEv  0x80019D70      f
_ZN11sStateMgr_cI15dWarningOther_c20sStateMethodUsr_FI_c12sFStateFct_c13sStateIDChk_cE12executeStateEv 0x80019DD0 f
_ZN15dWarningOther_c4drawEv     0x80019DE0      f
_ZN15dWarningOther_c8doDeleteEv 0x80019E00      f
_ZN15dWarningOther_c25initializeState_StartWaitEv 0x80019E10 f
_ZN15dWarningOther_c22executeState_StartWaitEv 0x80019E30 f
_ZN11sStateMgr_cI15dWarningOther_c20sStateMethodUsr_FI_c12sFStateFct_c13sStateIDChk_cE11changeStateERK12sStateIDIf_c 0x80019EA0 f
_ZN15dWarningOther_c23finalizeState_StartWaitEv 0x80019EB0 f
_ZN15dWarningOther_c32initializeState_OpenAnimeEndWaitEv 0x80019EC0 f
_ZN15dWarningOther_c29executeState_OpenAnimeEndWaitEv 0x80019EF0 f
_ZN15dWarningOther_c30finalizeState_OpenAnimeEndWaitEv 0x80019F50 f
_ZN15dWarningOther_c24initializeState_ExitWaitEv 0x80019F60 f
_ZN15dWarningOther_c21executeState_ExitWaitEv 0x80019F80 f
_ZN15dWarningOther_c22finalizeState_ExitWaitEv 0x80019FB0 f
_ZN15dWarningOther_c32initializeState_ExitAnimeEndWaitEv 0x80019FC0 f
_ZN15dWarningOther_c29executeState_ExitAnimeEndWaitEv 0x8001A010 f
_ZN15dWarningOther_c30finalizeState_ExitAnimeEndWaitEv 0x8001A070 f
_ZN15dWarningOther_c11setPlayerNoEi 0x8001A080  f
_ZN15dWarningOther_c16WindowCloseSetupEv 0x8001A0A0 f
_ZN12sFStateFct_cI15dWarningOther_cE5buildERK12sStateIDIf_c 0x8001A0B0 f
_ZN12sFStateFct_cI15dWarningOther_cE7disposeERP10sStateIf_c 0x8001A110 f
_ZN9sFState_cI15dWarningOther_cE10initializeEv 0x8001A120 f
_ZN9sFState_cI15dWarningOther_cE7executeEv 0x8001A140 f
_ZN9sFState_cI15dWarningOther_cE8finalizeEv 0x8001A160 f
_ZN11sStateMgr_cI15dWarningOther_c20sStateMethodUsr_FI_c12sFStateFct_c13sStateIDChk_cE15initializeStateEv 0x8001A180 f
_ZN11sStateMgr_cI15dWarningOther_c20sStateMethodUsr_FI_c12sFStateFct_c13sStateIDChk_cE13finalizeStateEv 0x8001A190 f
_ZN11sStateMgr_cI15dWarningOther_c20sStateMethodUsr_FI_c12sFStateFct_c13sStateIDChk_cE12refreshStateEv 0x8001A1A0 f
_ZNK11sStateMgr_cI15dWarningOther_c20sStateMethodUsr_FI_c12sFStateFct_c13sStateIDChk_cE8getStateEv 0x8001A1B0 f
_ZNK11sStateMgr_cI15dWarningOther_c20sStateMethodUsr_FI_c12sFStateFct_c13sStateIDChk_cE13getNewStateIDEv 0x8001A1C0 f
_ZNK11sStateMgr_cI15dWarningOther_c20sStateMethodUsr_FI_c12sFStateFct_c13sStateIDChk_cE10getStateIDEv 0x8001A1D0 f
_ZNK11sStateMgr_cI15dWarningOther_c20sStateMethodUsr_FI_c12sFStateFct_c13sStateIDChk_cE13getOldStateIDEv 0x8001A1E0 f
_ZNK11sFStateID_cI15dWarningOther_cE13finalizeStateER15dWarningOther_c 0x8001A1F0 f
_ZNK11sFStateID_cI15dWarningOther_cE12executeStateER15dWarningOther_c 0x8001A220 f
_ZNK11sFStateID_cI15dWarningOther_cE15initializeStateER15dWarningOther_c 0x8001A250 f
__sinit_\d_WarningOther_cpp     0x8001A280      f
_ZN11sFStateID_cI15dWarningOther_cED0Ev 0x8001A5C0 f
_ZNK11sFStateID_cI15dWarningOther_cE10isSameNameEPKc 0x8001A620 f
_ZN14dWarningYoKo_cC1Ev         0x8001A6B0      f
_ZN9sFState_cI14dWarningYoKo_cED0Ev 0x8001A760  f
_ZN12sFStateFct_cI14dWarningYoKo_cED0Ev 0x8001A7A0 f
_ZN11sStateMgr_cI14dWarningYoKo_c20sStateMethodUsr_FI_c12sFStateFct_c13sStateIDChk_cED0Ev 0x8001A7E0 f
_ZN12sFStateMgr_cI14dWarningYoKo_c20sStateMethodUsr_FI_cED0Ev 0x8001A840 f
_ZN14dWarningYoKo_cD0Ev         0x8001A8B0      f
_ZN14dWarningYoKo_c12createLayoutEv 0x8001A930  f
_ZN14dWarningYoKo_c7executeEv   0x8001AA90      f
_ZN11sStateMgr_cI14dWarningYoKo_c20sStateMethodUsr_FI_c12sFStateFct_c13sStateIDChk_cE12executeStateEv 0x8001AAF0 f
_ZN14dWarningYoKo_c4drawEv      0x8001AB00      f
_ZN14dWarningYoKo_c8doDeleteEv  0x8001AB20      f
_ZN14dWarningYoKo_c25initializeState_StartWaitEv 0x8001AB30 f
_ZN14dWarningYoKo_c22executeState_StartWaitEv 0x8001AB50 f
_ZN11sStateMgr_cI14dWarningYoKo_c20sStateMethodUsr_FI_c12sFStateFct_c13sStateIDChk_cE11changeStateERK12sStateIDIf_c 0x8001ABC0 f
_ZN14dWarningYoKo_c23finalizeState_StartWaitEv 0x8001ABD0 f
_ZN14dWarningYoKo_c32initializeState_OpenAnimeEndWaitEv 0x8001ABE0 f
_ZN14dWarningYoKo_c29executeState_OpenAnimeEndWaitEv 0x8001AC10 f
_ZN14dWarningYoKo_c30finalizeState_OpenAnimeEndWaitEv 0x8001AC70 f
_ZN14dWarningYoKo_c24initializeState_ExitWaitEv 0x8001AC80 f
_ZN14dWarningYoKo_c21executeState_ExitWaitEv 0x8001ACA0 f
_ZN14dWarningYoKo_c22finalizeState_ExitWaitEv 0x8001ACD0 f
_ZN14dWarningYoKo_c32initializeState_ExitAnimeEndWaitEv 0x8001ACE0 f
_ZN14dWarningYoKo_c29executeState_ExitAnimeEndWaitEv 0x8001AD00 f
_ZN14dWarningYoKo_c30finalizeState_ExitAnimeEndWaitEv 0x8001AD60 f
_ZN14dWarningYoKo_c11setPlayerNoEi 0x8001AD70   f
_ZN14dWarningYoKo_c16WindowCloseSetupEv 0x8001AD90 f
_ZN12sFStateFct_cI14dWarningYoKo_cE5buildERK12sStateIDIf_c 0x8001ADA0 f
_ZN12sFStateFct_cI14dWarningYoKo_cE7disposeERP10sStateIf_c 0x8001AE00 f
_ZN9sFState_cI14dWarningYoKo_cE10initializeEv 0x8001AE10 f
_ZN9sFState_cI14dWarningYoKo_cE7executeEv 0x8001AE30 f
_ZN9sFState_cI14dWarningYoKo_cE8finalizeEv 0x8001AE50 f
_ZN11sStateMgr_cI14dWarningYoKo_c20sStateMethodUsr_FI_c12sFStateFct_c13sStateIDChk_cE15initializeStateEv 0x8001AE70 f
_ZN11sStateMgr_cI14dWarningYoKo_c20sStateMethodUsr_FI_c12sFStateFct_c13sStateIDChk_cE13finalizeStateEv 0x8001AE80 f
_ZN11sStateMgr_cI14dWarningYoKo_c20sStateMethodUsr_FI_c12sFStateFct_c13sStateIDChk_cE12refreshStateEv 0x8001AE90 f
_ZNK11sStateMgr_cI14dWarningYoKo_c20sStateMethodUsr_FI_c12sFStateFct_c13sStateIDChk_cE8getStateEv 0x8001AEA0 f
_ZNK11sStateMgr_cI14dWarningYoKo_c20sStateMethodUsr_FI_c12sFStateFct_c13sStateIDChk_cE13getNewStateIDEv 0x8001AEB0 f
_ZNK11sStateMgr_cI14dWarningYoKo_c20sStateMethodUsr_FI_c12sFStateFct_c13sStateIDChk_cE10getStateIDEv 0x8001AEC0 f
_ZNK11sStateMgr_cI14dWarningYoKo_c20sStateMethodUsr_FI_c12sFStateFct_c13sStateIDChk_cE13getOldStateIDEv 0x8001AED0 f
_ZNK11sFStateID_cI14dWarningYoKo_cE13finalizeStateER14dWarningYoKo_c 0x8001AEE0 f
_ZNK11sFStateID_cI14dWarningYoKo_cE12executeStateER14dWarningYoKo_c 0x8001AF10 f
_ZNK11sFStateID_cI14dWarningYoKo_cE15initializeStateER14dWarningYoKo_c 0x8001AF40 f
__sinit_\d_WarningYoKo_cpp      0x8001AF70      f
_ZN11sFStateID_cI14dWarningYoKo_cED0Ev 0x8001B2B0 f
_ZNK11sFStateID_cI14dWarningYoKo_cE10isSameNameEPKc 0x8001B310 f
_ZN13dWipeCircle_cC1EN4nw4r2ut5ColorEN12mFaderBase_c7EStatusE 0x8001B3A0 f
_ZN13dWipeCircle_cD0Ev          0x8001B400      f
_ZN13dWipeCircle_c12createLayoutEv 0x8001B470   f
_ZN13dWipeCircle_c4calcEv       0x8001B580      f
_ZN13dWipeCircle_c4drawEv       0x8001B600      f
_ZN13dWipeCircle_c12CenterPosSetEv 0x8001B620   f
_ZN13dWipeCircle_c9OpenSetupEv  0x8001B8D0      f
_ZN13dWipeCircle_c13AnimeEndCheckEv 0x8001B920  f
_ZN13dWipeCircle_c10CloseSetupEv 0x8001B9D0     f
_ZN13dWipeCircle_c9setStatusEN12mFaderBase_c7EStatusE 0x8001BA20 f
_ZN13dWipeCircle_c6fadeInEv     0x8001BB10      f
_ZN13dWipeCircle_c7fadeOutEv    0x8001BB50      f
_ZN12dWipeDokan_cC1EN4nw4r2ut5ColorEN12mFaderBase_c7EStatusE 0x8001BB90 f
_ZN12dWipeDokan_cD0Ev           0x8001BBF0      f
_ZN12dWipeDokan_c12createLayoutEv 0x8001BC60    f
_ZN12dWipeDokan_c4calcEv        0x8001BD70      f
_ZN12dWipeDokan_c4drawEv        0x8001BDF0      f
_ZN12dWipeDokan_c9OpenSetupEv   0x8001BE10      f
_ZN12dWipeDokan_c13AnimeEndCheckEv 0x8001BE80   f
_ZN12dWipeDokan_c12MuKiDecisionEv 0x8001BF20    f
_ZN12dWipeDokan_c10CloseSetupEv 0x8001BF90      f
_ZN12dWipeDokan_c9setStatusEN12mFaderBase_c7EStatusE 0x8001C000 f
_ZN12dWipeDokan_c6fadeInEv      0x8001C0F0      f
_ZN12dWipeDokan_c7fadeOutEv     0x8001C130      f
_ZN12dWipeKuppa_cC1EN4nw4r2ut5ColorEN12mFaderBase_c7EStatusE 0x8001C170 f
_ZN12dWipeKuppa_cD0Ev           0x8001C1D0      f
_ZN12dWipeKuppa_c12createLayoutEv 0x8001C240    f
_ZN12dWipeKuppa_c4calcEv        0x8001C340      f
_ZN12dWipeKuppa_c4drawEv        0x8001C3C0      f
_ZN12dWipeKuppa_c9OpenSetupEv   0x8001C3E0      f
_ZN12dWipeKuppa_c13AnimeEndCheckEv 0x8001C430   f
_ZN12dWipeKuppa_c10CloseSetupEv 0x8001C4D0      f
_ZN12dWipeKuppa_c9setStatusEN12mFaderBase_c7EStatusE 0x8001C520 f
_ZN12dWipeKuppa_c6fadeInEv      0x8001C610      f
_ZN12dWipeKuppa_c7fadeOutEv     0x8001C650      f
_ZN12dWipeMario_cC1EN4nw4r2ut5ColorEN12mFaderBase_c7EStatusE 0x8001C690 f
_ZN12dWipeMario_cD0Ev           0x8001C6F0      f
_ZN12dWipeMario_c12createLayoutEv 0x8001C760    f
_ZN12dWipeMario_c4calcEv        0x8001C860      f
_ZN12dWipeMario_c4drawEv        0x8001C8E0      f
_ZN12dWipeMario_c9OpenSetupEv   0x8001C900      f
_ZN12dWipeMario_c13AnimeEndCheckEv 0x8001C950   f
_ZN12dWipeMario_c10CloseSetupEv 0x8001C9F0      f
_ZN12dWipeMario_c9setStatusEN12mFaderBase_c7EStatusE 0x8001CA40 f
_ZN12dWipeMario_c6fadeInEv      0x8001CB30      f
_ZN12dWipeMario_c7fadeOutEv     0x8001CB70      f
_Z12baseID_ReadyI10sStateID_cERK12sStateIDIf_cv 0x8001CBB0 f
_Z19baseID_BattleStDemoI10sStateID_cERK12sStateIDIf_cv 0x8001CBC0 f
_Z15baseID_BattleInI10sStateID_cERK12sStateIDIf_cv 0x8001CBD0 f
_Z19baseID_BattleEdDemoI10sStateID_cERK12sStateIDIf_cv 0x8001CBE0 f
_ZN12daBossDemo_c6createEv      0x8001CBF0      f
_ZN12daBossDemo_c10initializeEv 0x8001CC80      f
_ZN11sStateMgr_cI13dActorState_c20sStateMethodUsr_FI_c12sFStateFct_c13sStateIDChk_cE11changeStateERK12sStateIDIf_c 0x8001CC90 f
_ZN11sStateMgr_cI13dActorState_c20sStateMethodUsr_FI_c12sFStateFct_c13sStateIDChk_cE12refreshStateEv 0x8001CCA0 f
_ZN12daBossDemo_c7executeEv     0x8001CCB0      f
_ZN11sStateMgr_cI13dActorState_c20sStateMethodUsr_FI_c12sFStateFct_c13sStateIDChk_cE12executeStateEv 0x8001CCE0 f
_ZN12daBossDemo_c4drawEv        0x8001CCF0      f
_ZN12daBossDemo_c11deleteReadyEv 0x8001CD00     f
_ZN12daBossDemo_c8doDeleteEv    0x8001CD10      f
_ZN12daBossDemo_c15setBattleResultEv 0x8001CD20 f
_ZN12daBossDemo_c19setMultiCourseClearEv 0x8001CDB0 f
_ZN12daBossDemo_c28abandonRetryAfterOtehonClearEv 0x8001CE00 f
_ZN12daBossDemo_c21retryAfterOtehonClearEv 0x8001CE40 f
_ZN12daBossDemo_c15checkStartRetryEb 0x8001CE60 f
hash_1C9B8473_7967E673          0x8001CEE0      f
_ZN12daBossDemo_c21initializeState_ReadyEv 0x8001CF50 f
_ZN12daBossDemo_c19finalizeState_ReadyEv 0x8001CF60 f
_ZN12daBossDemo_c18executeState_ReadyEv 0x8001CF70 f
_ZN12daBossDemo_c10bossSearchEv 0x8001D030      f
_ZN12daBossDemo_c17checkBattleStDemoEv 0x8001D040 f
_ZN12daBossDemo_c10demoScrollEv 0x8001D050      f
_ZN12daBossDemo_c28initializeState_BattleStDemoEv 0x8001D060 f
_ZN12daBossDemo_c26finalizeState_BattleStDemoEv 0x8001D070 f
_ZN12daBossDemo_c25executeState_BattleStDemoEv 0x8001D080 f
_ZN12daBossDemo_c24initializeState_BattleInEv 0x8001D090 f
_ZN9dEnBoss_c14setBattleReadyEv 0x8001D0F0      f
_ZN12daBossDemo_c22finalizeState_BattleInEv 0x8001D100 f
_ZN12daBossDemo_c21executeState_BattleInEv 0x8001D110 f
_ZN12daBossDemo_c17checkBattleEdDemoEv 0x8001D170 f
_ZN12daBossDemo_c28initializeState_BattleEdDemoEv 0x8001D180 f
_ZN12daBossDemo_c26finalizeState_BattleEdDemoEv 0x8001D190 f
_ZN12daBossDemo_c25executeState_BattleEdDemoEv 0x8001D1A0 f
_ZN12dBaseActor_c11finalUpdateEv 0x8001D1B0     f
_ZN12dBaseActor_c12GetActorTypeEv 0x8001D1C0    f
_ZN8dActor_c11funsuiMoveXEv     0x8001D1D0      f
_ZN8dActor_c12setCarryFallEP8dActor_ci 0x8001D1E0 f
_ZN8dActor_c18isSpinLiftUpEnableEv 0x8001D1F0   f
_ZN8dActor_c8getPlrNoEv         0x8001D200      f
hash_A44205FF_FCA59383          0x8001D210      f
_ZN12daBossDemo_c9setBossIDE9fBaseID_e 0x8001D220 f
_ZN12daBossDemo_c9getBossIDEv   0x8001D230      f
_ZN12daBossDemo_c7stopBGMEv     0x8001D240      f
_ZN12daBossDemo_c8startBGMEv    0x8001D250      f
_ZN12daBossDemo_cD0Ev           0x8001D260      f
__sinit_\d_a_boss_demo_cpp      0x8001D2C0      f
__arraydtor$70930               0x8001D690      f
_ZN11sFStateID_cI12daBossDemo_cED0Ev 0x8001D6B0 f
_ZN18sFStateVirtualID_cI12daBossDemo_cED0Ev 0x8001D710 f
_ZNK18sFStateVirtualID_cI12daBossDemo_cE6numberEv 0x8001D770 f
_ZNK18sFStateVirtualID_cI12daBossDemo_cE7superIDEv 0x8001D850 f
_ZNK11sFStateID_cI12daBossDemo_cE10isSameNameEPKc 0x8001D930 f
_ZNK11sFStateID_cI12daBossDemo_cE15initializeStateER12daBossDemo_c 0x8001D9C0 f
_ZNK11sFStateID_cI12daBossDemo_cE12executeStateER12daBossDemo_c 0x8001D9F0 f
_ZNK11sFStateID_cI12daBossDemo_cE13finalizeStateER12daBossDemo_c 0x8001DA20 f
_Z12baseID_EatInI10sStateID_cERK12sStateIDIf_cv 0x8001DA50 f
_Z13baseID_EatNowI10sStateID_cERK12sStateIDIf_cv 0x8001DA60 f
_Z16baseID_SpiteMoveI10sStateID_cERK12sStateIDIf_cv 0x8001DA70 f
_Z14baseID_ReflectI10sStateID_cERK12sStateIDIf_cv 0x8001DA80 f
_Z17baseID_HitReflectI10sStateID_cERK12sStateIDIf_cv 0x8001DA90 f
_Z14baseID_HitStarI10sStateID_cERK12sStateIDIf_cv 0x8001DAA0 f
_Z15baseID_HitShellI10sStateID_cERK12sStateIDIf_cv 0x8001DAB0 f
_Z21baseID_HitYoshiBulletI10sStateID_cERK12sStateIDIf_cv 0x8001DAC0 f
_ZN10daBullet_c6createEv        0x8001DAD0      f
_ZN10daBullet_c10initializeEv   0x8001DB20      f
_ZN10daBullet_c8allocateEv      0x8001DB30      f
_ZN10daBullet_c9createMdlEv     0x8001DB90      f
_ZN10daBullet_c10preExecuteEv   0x8001DBA0      f
_ZN10daBullet_c7executeEv       0x8001DCB0      f
_ZN10daBullet_c11cullingProcEv  0x8001DD20      f
_ZN10daBullet_c4drawEv          0x8001DD30      f
_ZN10daBullet_c11deleteReadyEv  0x8001DD40      f
_ZN10daBullet_c8doDeleteEv      0x8001DD50      f
_ZN10daBullet_c9removeMdlEv     0x8001DDA0      f
_ZN10daBullet_c17collisionCallbackEP5dCc_cP5dCc_c 0x8001DDB0 f
_ZN10daBullet_c15revengeCallbackEP5dCc_cP5dCc_c 0x8001DF60 f
_ZN10daBullet_c12revengeHitSEEv 0x8001E0A0      f
_ZN10daBullet_c17checkPlayerDamageEP5dCc_cP5dCc_c 0x8001E0B0 f
_ZN10daBullet_c16checkYoshiDamageEP5dCc_cP5dCc_c 0x8001E100 f
_ZN10daBullet_c11setDeadMoveERK7mVec3_cs 0x8001E150 f
_ZN10daBullet_c12hitProc_StarEP5dCc_c 0x8001E1C0 f
_ZN10daBullet_c13hitProc_ShellEP5dCc_c 0x8001E2E0 f
_ZN10daBullet_c19hitProc_YoshiBulletEP5dCc_c 0x8001E400 f
_ZN10daBullet_c15hitProc_ReflectEP5dCc_c 0x8001E520 f
_ZN10daBullet_c12setEatTongueEP8dActor_c 0x8001E5A0 f
_ZN10daBullet_c13setEatSpitOutEP8dActor_c 0x8001E600 f
_ZN10daBullet_c14setSpitOutMoveEP8dActor_c 0x8001E6E0 f
_ZN10daBullet_c10splashProcEv   0x8001E6F0      f
_ZN10daBullet_c17waterSplashEffectERK7mVec3_cf 0x8001E790 f
_ZN10daBullet_c16setDamage_PlayerEP8dActor_c 0x8001E850 f
_ZN10daBullet_c21initializeState_EatInEv 0x8001E870 f
_ZN10daBullet_c19finalizeState_EatInEv 0x8001E880 f
_ZN10daBullet_c18executeState_EatInEv 0x8001E890 f
_ZN10daBullet_c22initializeState_EatNowEv 0x8001E8C0 f
_ZN10daBullet_c20finalizeState_EatNowEv 0x8001E8D0 f
_ZN10daBullet_c19executeState_EatNowEv 0x8001E8E0 f
_ZN10daBullet_c25initializeState_SpiteMoveEv 0x8001E8F0 f
_ZN10daBullet_c23finalizeState_SpiteMoveEv 0x8001E900 f
_ZN10daBullet_c22executeState_SpiteMoveEv 0x8001E910 f
_ZN10daBullet_c8spitRollEv      0x8001E980      f
_ZN10daBullet_c6moveSEEv        0x8001E990      f
_ZN10daBullet_c23initializeState_ReflectEv 0x8001E9A0 f
_ZN10daBullet_c21finalizeState_ReflectEv 0x8001E9B0 f
_ZN10daBullet_c20executeState_ReflectEv 0x8001E9C0 f
_ZN10daBullet_c26initializeState_HitReflectEv 0x8001EA00 f
_ZN10daBullet_c24finalizeState_HitReflectEv 0x8001EA10 f
_ZN10daBullet_c23executeState_HitReflectEv 0x8001EA20 f
_ZN10daBullet_c8deadRollEv      0x8001EA70      f
_ZN10daBullet_c23initializeState_HitStarEv 0x8001EAB0 f
_ZN10daBullet_c21finalizeState_HitStarEv 0x8001EAC0 f
_ZN10daBullet_c20executeState_HitStarEv 0x8001EAD0 f
_ZN10daBullet_c24initializeState_HitShellEv 0x8001EB20 f
_ZN10daBullet_c22finalizeState_HitShellEv 0x8001EB30 f
_ZN10daBullet_c21executeState_HitShellEv 0x8001EB40 f
_ZN10daBullet_c30initializeState_HitYoshiBulletEv 0x8001EB90 f
_ZN10daBullet_c28finalizeState_HitYoshiBulletEv 0x8001EBA0 f
_ZN10daBullet_c27executeState_HitYoshiBulletEv 0x8001EBB0 f
_ZN10daBullet_cD0Ev             0x8001EC00      f
__sinit_\d_a_bullet_cpp         0x8001EC70      f
_ZN11sFStateID_cI10daBullet_cED0Ev 0x8001F320   f
_ZN18sFStateVirtualID_cI10daBullet_cED0Ev 0x8001F380 f
_ZNK18sFStateVirtualID_cI10daBullet_cE6numberEv 0x8001F3E0 f
_ZNK18sFStateVirtualID_cI10daBullet_cE7superIDEv 0x8001F4C0 f
_ZNK11sFStateID_cI10daBullet_cE10isSameNameEPKc 0x8001F5A0 f
_ZNK11sFStateID_cI10daBullet_cE15initializeStateER10daBullet_c 0x8001F630 f
_ZNK11sFStateID_cI10daBullet_cE12executeStateER10daBullet_c 0x8001F660 f
_ZNK11sFStateID_cI10daBullet_cE13finalizeStateER10daBullet_c 0x8001F690 f
_ZN12BigPileMng_c5entryEP13daEnBigPile_c 0x8001F6C0 f
_ZN12BigPileMng_c6removeEP13daEnBigPile_c 0x8001F740 f
_ZN12BigPileMng_c4waitEv        0x8001F800      f
_ZN13daEnBigPile_c4waitEv       0x8001F890      f
_ZN12BigPileMng_c4moveEv        0x8001F8A0      f
_ZN13daEnBigPile_c6createEv     0x8001F900      f
_ZN13daEnBigPile_c6initCcEv     0x8001FA40      f
_ZN13daEnBigPile_c12initCullInfoEv 0x8001FA50   f
_ZN13daEnBigPile_c11initWaterStEv 0x8001FA60    f
_ZN13daEnBigPile_c9createMdlEv  0x8001FA70      f
_ZN13daEnBigPile_c7executeEv    0x8001FC50      f
_ZN13daEnBigPile_c4drawEv       0x8001FCA0      f
_ZN13daEnBigPile_c11deleteReadyEv 0x8001FCD0    f
_ZN13daEnBigPile_c8doDeleteEv   0x8001FCE0      f
_ZN13daEnBigPile_c7calcMdlEv    0x8001FD40      f
_ZN13daEnBigPile_c16calcDrawPosAngleER7mVec3_cR7mAng3_c 0x8001FE40 f
_ZN13daEnBigPile_c13PlDamageCheckEP5dCc_cP5dCc_c 0x8001FE50 f
_ZN13daEnBigPile_c19Normal_VsPlHitCheckEP5dCc_cP5dCc_c 0x8001FE60 f
_ZN13daEnBigPile_c14EtcDamageCheckEP5dCc_cP5dCc_c 0x8001FE80 f
_ZN13daEnBigPile_c16hitCallback_FireEP5dCc_cP5dCc_c 0x8001FF30 f
_ZN13daEnBigPile_c15hitCallback_IceEP5dCc_cP5dCc_c 0x8001FF60 f
_ZN13daEnBigPile_c8initMoveEv   0x8001FF90      f
_ZN13daEnBigPile_c13getAllPileNumEv 0x80020000  f
_ZN13daEnBigPile_c7initCntEv    0x80020020      f
_ZN13daEnBigPile_c8moveProcEv   0x80020070      f
_ZN13daEnBigPile_c4moveEv       0x80020100      f
_ZN13daEnBigPile_c7calcPosEf    0x80020390      f
_ZN13daEnBigPile_c11getMoveDistEv 0x800203A0    f
hash_DA80F1ED_7CAED36A          0x800203B0      f
_ZN13daEnBigPile_c12adjustOffsetERf 0x800203C0  f
_ZN13daEnBigPile_c12chkProcFrameERmm 0x80020440 f
_ZN13daEnBigPile_c9callQuakeEv  0x800204D0      f
_ZN13daEnBigPile_c13moveGo_NormalEm 0x800204F0  f
_ZN13daEnBigPile_c12moveGo_QuickEm 0x80020530   f
_ZN13daEnBigPile_c11moveGo_SlowEm 0x80020570    f
_ZN13daEnBigPile_c14moveRet_NormalEm 0x800205B0 f
_ZN13daEnBigPile_c13moveRet_QuickEm 0x80020600  f
_ZN13daEnBigPile_c12moveRet_SlowEm 0x80020640   f
_ZNK5dEn_c8isFunsuiEv           0x80020690      f
_ZN5dEn_c9endFunsuiEv           0x800206A0      f
_ZN5dEn_c11beginFunsuiEv        0x800206B0      f
_ZN5dEn_c14calcBoyonScaleEv     0x800206C0      f
_ZN5dEn_c13isQuakeDamageEv      0x800206D0      f
_ZN13daEnBigPile_c16YoshiDamageCheckEP5dCc_cP5dCc_c 0x800206E0 f
_ZN13daEnBigPile_c13EnDamageCheckEP5dCc_cP5dCc_c 0x800206F0 f
_ZN13daEnBigPile_cD0Ev          0x80020700      f
__sinit_\d_a_en_bigpile_cpp     0x800207A0      f
_ZN12BigPileMng_cC1Ev           0x80020800      f
_ZN12BigPileMng_cD0Ev           0x80020850      f
__arraydtor$68208               0x80020890      f
_Z13baseID_UpMoveI10sStateID_cERK12sStateIDIf_cv 0x800208B0 f
_Z15baseID_DownMoveI10sStateID_cERK12sStateIDIf_cv 0x800208C0 f
_Z18baseID_DownMoveEndI10sStateID_cERK12sStateIDIf_cv 0x800208D0 f
_Z18baseID_UpMove_DiffI10sStateID_cERK12sStateIDIf_cv 0x800208E0 f
_Z20baseID_DownMove_DiffI10sStateID_cERK12sStateIDIf_cv 0x800208F0 f
_Z23baseID_DownMove_DiffEndI10sStateID_cERK12sStateIDIf_cv 0x80020900 f
_ZN15daEnBlockMain_c22common_callBackF_enemyEP8dActor_cP8dActor_c 0x80020910 f
_ZN15daEnBlockMain_c16common_callBackHEP8dActor_cP8dActor_c 0x80020AA0 f
_ZN10daPlBase_c13isItemKinopioEv 0x80020BE0     f
_ZN15daEnBlockMain_c9callBackFEP8dActor_cP8dActor_c 0x80020BF0 f
_ZN15daEnBlockMain_c15nomal_callBackFEP8dActor_cP8dActor_c 0x80020D60 f
_ZN15daEnBlockMain_c9callBackHEP8dActor_cP8dActor_c 0x80020E70 f
_ZN15daEnBlockMain_c15nomal_callBackHEP8dActor_cP8dActor_c 0x80020EA0 f
_ZN15daEnBlockMain_c18side_block_movesetEP15daEnBlockMain_cP8dActor_ch 0x80020ED0 f
_ZN15daEnBlockMain_c15shell_callBackWEP8dActor_cP8dActor_ch 0x80020F40 f
_ZNK16sStateStateMgr_cI18dActorMultiState_c12sFStateMgr_c20sStateMethodUsr_FI_c20sStateMethodUsr_FI_cE10getStateIDEv 0x80020FF0 f
_ZN15daEnBlockMain_c9callBackWEP8dActor_cP8dActor_ch 0x80021010 f
_ZN15daEnBlockMain_c13obj_callBackWEP8dActor_cP8dActor_ch 0x800210F0 f
_ZN15daEnBlockMain_c20enemy_only_callBackWEP8dActor_cP8dActor_ch 0x80021100 f
_ZN15daEnBlockMain_c20playeronly_callBackFEP8dActor_cP8dActor_c 0x80021140 f
_ZN15daEnBlockMain_c20playeronly_callBackHEP8dActor_cP8dActor_c 0x80021150 f
_ZN15daEnBlockMain_c20playeronly_callBackWEP8dActor_cP8dActor_ch 0x80021160 f
_ZN15daEnBlockMain_c12checkRevHeadEP8dActor_cP8dActor_c 0x80021170 f
_ZN15daEnBlockMain_c12checkRevFootEP8dActor_cP8dActor_c 0x80021180 f
_ZN15daEnBlockMain_c12checkRevWallEP8dActor_cP8dActor_ch 0x800211A0 f
hash_D3D980AB_0817E788          0x800211B0      f
_ZN15daEnBlockMain_c24clear_block_collcallbackEP5dCc_cP5dCc_c 0x80021280 f
_ZN15daEnBlockMain_c13ObjBgHitCheckEv 0x800212C0 f
hash_414EA225_C5CA88D6          0x80021470      f
_ZN15daEnBlockMain_c14ObjBg_PonCheckEv 0x800214F0 f
hash_4575CA38_5A92E34B          0x80021580      f
_ZN15daEnBlockMain_c19ObjBg_PonCheck_jumpEv 0x80021600 f
_ZN15daEnBlockMain_c20Block_CreateClearSetEf 0x80021690 f
_ZN15daEnBlockMain_c17HopCoinBgcheckSetEv 0x80021740 f
_ZN15daEnBlockMain_c14HopCoinBgcheckEv 0x80021780 f
_ZN15daEnBlockMain_c21Block_ExecuteClearSetEv 0x800217B0 f
_ZN15daEnBlockMain_c11jumpdai_setEv 0x800217F0  f
_ZN15daEnBlockMain_c11itemkey_setEh 0x80021910  f
_ZN15daEnBlockMain_c12item_ivy_setEhh 0x80021A20 f
_ZN15daEnBlockMain_c12isYossyColorEt 0x80021AB0 f
_ZN15daEnBlockMain_c18yossy_color_searchEv 0x80021B30 f
_ZN15daEnBlockMain_c9yossy_setEm 0x80021BD0     f
_ZN15daEnBlockMain_c15multi_yossy_setEm 0x80021C80 f
_ZN15daEnBlockMain_c11eggitem_setEm 0x80021EA0  f
_ZN15daEnBlockMain_c17multi_eggitem_setEm 0x80021F50 f
_ZN15daEnBlockMain_c10player_setEii 0x80022080  f
_ZN15daEnBlockMain_c19continue_star_checkEPia 0x80022100 f
_ZNK10daPlBase_c6isStarEv       0x80022170      f
_ZN15daEnBlockMain_c21player_bigmario_checkEa 0x80022180 f
hash_0F7E075D_C0252AE4          0x800221E0      f
_ZN15daEnBlockMain_c22propeller_kinoko_checkEia 0x80022370 f
_ZN15daEnBlockMain_c16playernumber_setEv 0x80022390 f
_ZN15daEnBlockMain_c19YoshiEggCreateCheckEi 0x800223C0 f
_ZN15daEnBlockMain_c14item_sound_setER7mVec3_ciahh 0x80022490 f
hash_B6A83578_4E262E63          0x80022600      f
hash_D6274AA5_200794BE          0x800226D0      f
hash_DB59AF2F_7B481B96          0x80022770      f
hash_9CD6F40D_B8018556          0x80022780      f
hash_B09BF105_BE08C508          0x80022810      f
hash_B29E855B_0CD80100          0x80022B10      f
_ZN15daEnBlockMain_c15block_scale_setEh 0x80022DC0 f
_ZN15daEnBlockMain_c22initializeState_UpMoveEv 0x80022E60 f
_ZN15daEnBlockMain_c17initialize_upmoveEv 0x80022E80 f
_ZN15daEnBlockMain_c20finalizeState_UpMoveEv 0x80022E90 f
_ZN15daEnBlockMain_c19executeState_UpMoveEv 0x80022EA0 f
_ZN15daEnBlockMain_c12block_upmoveEv 0x80022F30 f
_ZN15daEnBlockMain_c24initializeState_DownMoveEv 0x80022F40 f
_ZN15daEnBlockMain_c19initialize_downmoveEv 0x80022F60 f
_ZN15daEnBlockMain_c22finalizeState_DownMoveEv 0x80022F70 f
_ZN15daEnBlockMain_c21executeState_DownMoveEv 0x80022F80 f
_ZN15daEnBlockMain_c14block_downmoveEv 0x80023010 f
_ZN15daEnBlockMain_c27initializeState_DownMoveEndEv 0x80023020 f
_ZN15daEnBlockMain_c25finalizeState_DownMoveEndEv 0x80023030 f
_ZN15daEnBlockMain_c24executeState_DownMoveEndEv 0x80023040 f
_ZN15daEnBlockMain_c18block_downmove_endEv 0x80023080 f
_ZN15daEnBlockMain_c27initializeState_UpMove_DiffEv 0x80023090 f
_ZN15daEnBlockMain_c25finalizeState_UpMove_DiffEv 0x800230C0 f
_ZN15daEnBlockMain_c24executeState_UpMove_DiffEv 0x800230D0 f
_ZN15daEnBlockMain_c17block_upmove_diffEv 0x800231A0 f
_ZN15daEnBlockMain_c29initializeState_DownMove_DiffEv 0x800231B0 f
_ZN15daEnBlockMain_c27finalizeState_DownMove_DiffEv 0x800231E0 f
_ZN15daEnBlockMain_c26executeState_DownMove_DiffEv 0x800231F0 f
_ZN15daEnBlockMain_c19block_downmove_diffEv 0x800232C0 f
_ZN15daEnBlockMain_c32initializeState_DownMove_DiffEndEv 0x800232D0 f
_ZN15daEnBlockMain_c30finalizeState_DownMove_DiffEndEv 0x800232E0 f
_ZN15daEnBlockMain_c29executeState_DownMove_DiffEndEv 0x800232F0 f
_ZN15daEnBlockMain_c22block_downmove_diffendEv 0x80023330 f
_ZN15daEnBlockMain_cD0Ev        0x80023340      f
__sinit_\d_a_en_blockmain_cpp   0x800233B0      f
_ZN11sFStateID_cI15daEnBlockMain_cED0Ev 0x800238C0 f
_ZN18sFStateVirtualID_cI15daEnBlockMain_cED0Ev 0x80023920 f
_ZNK18sFStateVirtualID_cI15daEnBlockMain_cE6numberEv 0x80023980 f
_ZNK18sFStateVirtualID_cI15daEnBlockMain_cE7superIDEv 0x80023A60 f
_ZNK11sFStateID_cI15daEnBlockMain_cE10isSameNameEPKc 0x80023B40 f
_ZNK11sFStateID_cI15daEnBlockMain_cE15initializeStateER15daEnBlockMain_c 0x80023BD0 f
_ZNK11sFStateID_cI15daEnBlockMain_cE12executeStateER15daEnBlockMain_c 0x80023C00 f
_ZNK11sFStateID_cI15daEnBlockMain_cE13finalizeStateER15daEnBlockMain_c 0x80023C30 f
_Z11baseID_MoveI10sStateID_cERK12sStateIDIf_cv 0x80023C60 f
_Z13baseID_AttackI10sStateID_cERK12sStateIDIf_cv 0x80023C70 f
_Z13baseID_JumpStI10sStateID_cERK12sStateIDIf_cv 0x80023C80 f
_Z11baseID_JumpI10sStateID_cERK12sStateIDIf_cv 0x80023C90 f
_Z13baseID_JumpEdI10sStateID_cERK12sStateIDIf_cv 0x80023CA0 f
_Z16baseID_AirAttackI10sStateID_cERK12sStateIDIf_cv 0x80023CB0 f
_ZN14daEnBrosBase_c6createEv    0x80023CC0      f
_ZN14daEnBrosBase_c8getColorEv  0x80023F10      f
_ZN14daEnBrosBase_c8initTypeEv  0x80023F20      f
_ZN14daEnBrosBase_c9initPosLvEv 0x80023F30      f
_ZN14daEnBrosBase_c11initMoveCntEv 0x80023F40   f
_ZN14daEnBrosBase_c8setSpeedEv  0x80023F50      f
_ZN14daEnBrosBase_c10setJumpCntEv 0x80023F60    f
_ZN14daEnBrosBase_c8entryHIOEv  0x80023F70      f
_ZN14daEnBrosBase_c9createMdlEv 0x80023F80      f
_ZN14daEnBrosBase_c7executeEv   0x800240B0      f
_ZN16sStateStateMgr_cI18dActorMultiState_c12sFStateMgr_c20sStateMethodUsr_FI_c20sStateMethodUsr_FI_cE12executeStateEv 0x80024100 f
_ZN14daEnBrosBase_c4drawEv      0x80024120      f
_ZN14daEnBrosBase_c8doDeleteEv  0x80024150      f
_ZN14daEnBrosBase_c9removeHIOEv 0x80024180      f
_ZN14daEnBrosBase_c7calcMdlEv   0x80024190      f
_ZN14daEnBrosBase_c10calcJntMtxEv 0x800242C0    f
_ZN14daEnBrosBase_c19Normal_VsPlHitCheckEP5dCc_cP5dCc_c 0x80024340 f
_ZN14daEnBrosBase_c22Normal_VsYoshiHitCheckEP5dCc_cP5dCc_c 0x80024440 f
_ZN14daEnBrosBase_c15hitCallback_IceEP5dCc_cP5dCc_c 0x800244D0 f
_ZN14daEnBrosBase_c9setIceAnmEv 0x80024570      f
_ZN14daEnBrosBase_c15returnState_IceEv 0x80024580 f
_ZN14daEnBrosBase_c16hitCallback_SpinEP5dCc_cP5dCc_c 0x800245A0 f
_ZN14daEnBrosBase_c19hitCallback_HipAttkEP5dCc_cP5dCc_c 0x80024720 f
_ZN14daEnBrosBase_c23hitCallback_YoshiBulletEP5dCc_cP5dCc_c 0x800248C0 f
_ZN14daEnBrosBase_c9setDamageEP8dActor_c 0x80024A70 f
_ZN14daEnBrosBase_c14createIceActorEv 0x80024B10 f
_ZN8dIceInfoD0Ev                0x80024C20      f
_ZN14daEnBrosBase_c13calcTurnAngleEv 0x80024C60 f
_ZN14daEnBrosBase_c11calcMoveDirEv 0x80024CF0   f
_ZN14daEnBrosBase_c12landonEffectEv 0x80024DE0  f
_ZN14daEnBrosBase_c6setAnmEPcN3m3d10playMode_eEf 0x80024E80 f
_ZN14daEnBrosBase_c10setMoveAnmEf 0x80024F10    f
_ZN14daEnBrosBase_c7dirProcEv   0x80024F40      f
_ZN14daEnBrosBase_c12setAttackAnmEv 0x80024F50  f
_ZN14daEnBrosBase_c20initializeState_MoveEv 0x80024F60 f
_ZN14daEnBrosBase_c11setAtkTimerEv 0x80025010   f
_ZN14daEnBrosBase_c18finalizeState_MoveEv 0x80025020 f
_ZN14daEnBrosBase_c17executeState_MoveEv 0x80025030 f
_ZN14daEnBrosBase_c9beginJumpEv 0x80025200      f
_ZN14daEnBrosBase_c7setJumpEv   0x80025260      f
_ZNK14daEnBrosBase_c10isAttackOKEv 0x80025270   f
_ZN14daEnBrosBase_c9beginAttkEv 0x80025280      f
_ZN14daEnBrosBase_c22initializeState_AttackEv 0x800252A0 f
_ZN14daEnBrosBase_c20finalizeState_AttackEv 0x800252E0 f
_ZN14daEnBrosBase_c19executeState_AttackEv 0x800252F0 f
_ZN14daEnBrosBase_c11isInvalidBgEv 0x800254F0   f
_ZNK14daEnBrosBase_c18getCreateWeaponFrmEv 0x80025500 f
_ZN14daEnBrosBase_c12weaponCreateEv 0x80025510  f
_ZNK14daEnBrosBase_c12getAttackFrmEv 0x80025520 f
_ZN14daEnBrosBase_c12weaponAttackEv 0x80025530  f
_ZN14daEnBrosBase_c12setWeaponPosEv 0x80025540  f
_ZN14daEnBrosBase_c22initializeState_JumpStEv 0x80025550 f
_ZN14daEnBrosBase_c20finalizeState_JumpStEv 0x800255A0 f
_ZN14daEnBrosBase_c19executeState_JumpStEv 0x800255B0 f
_ZN14daEnBrosBase_c20initializeState_JumpEv 0x800256C0 f
_ZN14daEnBrosBase_c18finalizeState_JumpEv 0x800256D0 f
_ZN14daEnBrosBase_c17executeState_JumpEv 0x800256E0 f
_ZN14daEnBrosBase_c25initializeState_AirAttackEv 0x800257A0 f
_ZN14daEnBrosBase_c23finalizeState_AirAttackEv 0x800257F0 f
_ZN14daEnBrosBase_c22executeState_AirAttackEv 0x80025800 f
_ZN14daEnBrosBase_c22initializeState_JumpEdEv 0x80025A00 f
_ZNK16sStateStateMgr_cI18dActorMultiState_c12sFStateMgr_c20sStateMethodUsr_FI_c20sStateMethodUsr_FI_cE13getOldStateIDEv 0x80025AA0 f
_ZN14daEnBrosBase_c20finalizeState_JumpEdEv 0x80025AC0 f
_ZN14daEnBrosBase_c19executeState_JumpEdEv 0x80025AD0 f
_ZN14daEnBrosBase_c23initializeState_DieFumiEv 0x80025B80 f
_ZN14daEnBrosBase_c21finalizeState_DieFumiEv 0x80025BC0 f
_ZN14daEnBrosBase_c20executeState_DieFumiEv 0x80025BD0 f
_ZN14daEnBrosBase_c23initializeState_DieFallEv 0x80025C40 f
_ZN14daEnBrosBase_c21finalizeState_DieFallEv 0x80025C80 f
_ZN14daEnBrosBase_c20executeState_DieFallEv 0x80025C90 f
_ZN14daEnBrosBase_c14nodeCallback_c7timingAEmPN4nw4r3g3d12ChrAnmResultEN4nw4r3g3d6ResMdlE 0x80025D20 f
_ZN14daEnBrosBase_c15getAdjustOffsetEv 0x80025E20 f
_ZN14daEnBrosBase_c12checkAtkAreaEv 0x80025E40  f
_ZN14daEnBrosBase_c11finalUpdateEv 0x80025E50   f
_ZN14daEnBrosBase_cD0Ev         0x80025E90      f
_ZN3mEf13levelEffect_cD0Ev      0x80025F60      f
_ZN3mEf8effect_cD0Ev            0x80025FE0      f
_ZN14daEnBrosBase_c14nodeCallback_cD0Ev 0x80026040 f
_ZN3m3d5mdl_c10callback_cD0Ev   0x80026080      f
_ZN3m3d8anmChr_cD0Ev            0x800260C0      f
_ZN3m3d5mdl_c10callback_c7timingCEPN4nw4r4math5MTX34EN4nw4r3g3d6ResMdlE 0x80026120 f
_ZN3m3d5mdl_c10callback_c7timingBEmPN4nw4r3g3d13WorldMtxManipEN4nw4r3g3d6ResMdlE 0x80026130 f
__sinit_\d_a_en_bros_base_cpp   0x80026140      f
_ZN11sFStateID_cI14daEnBrosBase_cED0Ev 0x800267F0 f
_ZN18sFStateVirtualID_cI14daEnBrosBase_cED0Ev 0x80026850 f
_Z14baseID_DieFallI5dEn_cERK12sStateIDIf_cv 0x800268B0 f
_Z14baseID_DieFumiI5dEn_cERK12sStateIDIf_cv 0x800268C0 f
_ZNK18sFStateVirtualID_cI14daEnBrosBase_cE6numberEv 0x800268D0 f
_ZNK18sFStateVirtualID_cI14daEnBrosBase_cE7superIDEv 0x800269B0 f
_ZNK11sFStateID_cI14daEnBrosBase_cE10isSameNameEPKc 0x80026A90 f
_ZNK11sFStateID_cI14daEnBrosBase_cE15initializeStateER14daEnBrosBase_c 0x80026B20 f
_ZNK11sFStateID_cI14daEnBrosBase_cE12executeStateER14daEnBrosBase_c 0x80026B50 f
_ZNK11sFStateID_cI14daEnBrosBase_cE13finalizeStateER14daEnBrosBase_c 0x80026B80 f
_Z12baseID_CarryI10sStateID_cERK12sStateIDIf_cv 0x80026BB0 f
_ZN11daEnCarry_c15acmIsCarryEnemyEP8dActor_c 0x80026BC0 f
_ZNK11daEnCarry_c16acmShellPlayerNoEP8dActor_c 0x80026C00 f
_ZN11daEnCarry_c17shellDamageEffectEP5dCc_cP8dActor_c 0x80026CA0 f
_ZN11daEnCarry_c21initializeState_CarryEv 0x80026D90 f
_ZN11daEnCarry_c19finalizeState_CarryEv 0x80026DA0 f
_ZN11daEnCarry_c18executeState_CarryEv 0x80026DB0 f
_ZN11daEnCarry_cD0Ev            0x80026DC0      f
__sinit_\d_a_en_carry_cpp       0x80026E20      f
_ZN11sFStateID_cI11daEnCarry_cED0Ev 0x80026F50  f
_ZN18sFStateVirtualID_cI11daEnCarry_cED0Ev 0x80026FB0 f
_ZNK18sFStateVirtualID_cI11daEnCarry_cE6numberEv 0x80027010 f
_ZNK18sFStateVirtualID_cI11daEnCarry_cE7superIDEv 0x800270F0 f
_ZNK11sFStateID_cI11daEnCarry_cE10isSameNameEPKc 0x800271D0 f
_ZNK11sFStateID_cI11daEnCarry_cE15initializeStateER11daEnCarry_c 0x80027260 f
_ZNK11sFStateID_cI11daEnCarry_cE12executeStateER11daEnCarry_c 0x80027290 f
_ZNK11sFStateID_cI11daEnCarry_cE13finalizeStateER11daEnCarry_c 0x800272C0 f
_ZN14daEnCoinMain_c4initEv      0x800272F0      f
_ZN14daEnCoinMain_c21set_coin_objbg_centerEi 0x80027310 f
_ZN14daEnCoinMain_c14set_coin_objbgEi 0x80027380 f
_ZN14daEnCoinMain_c17NormalCullSizeSetEv 0x800273F0 f
_ZN14daEnCoinMain_c13coll_foot_setEi 0x80027420 f
_ZN14daEnCoinMain_c11set_bgcheckEi 0x80027470   f
_ZN14daEnCoinMain_c16bgin_bgcheck_setEi 0x80027510 f
_ZN14daEnCoinMain_c15sand_effect_setEv 0x800275F0 f
_ZN14daEnCoinMain_c11beginFunsuiEv 0x80027670   f
_ZN14daEnCoinMain_c9endFunsuiEv 0x80027690      f
_ZN14daEnCoinMain_c25bound_non_collision_checkEv 0x800276B0 f
_ZN14daEnCoinMain_c13setWaterSpeedEv 0x80027710 f
_ZN14daEnCoinMain_c9model_setEi 0x800277A0      f
hash_CFC20393_68447C13          0x800279F0      f
_ZN14daEnCoinMain_c9angle_addEv 0x80027A60      f
_ZN14daEnCoinMain_c13FootBgInCheckEv 0x80027A70 f
_ZN14daEnCoinMain_c12drop_bgcheckEhhf 0x80027B00 f
_ZN14daEnCoinMain_c19bg_insert_death_setEv 0x80027D00 f
_ZN14daEnCoinMain_c10flash_moveEv 0x80027D70    f
_ZN14daEnCoinMain_c14base_speed_setEv 0x80027DD0 f
_ZN14daEnCoinMain_c9draw_coinEif 0x80027E00     f
_ZN14daEnCoinMain_cD0Ev         0x80028070      f
__sinit_\d_a_en_coin_main_cpp   0x80028150      f
_ZN14daEnDfpakkun_cC1Ev         0x800281C0      f
_ZN17daEnDpakkunBase_c14nodeCallback_cD0Ev 0x800282A0 f
_ZN17daEnDpakkunBase_cD0Ev      0x800282E0      f
_ZN3m3d13anmChrBlend_cD0Ev      0x80028370      f
_ZN14daEnDfpakkun_cD0Ev         0x800283D0      f
_ZN14daEnDfpakkun_c10initializeEv 0x80028490    f
_ZN14daEnDfpakkun_c9createMdlEv 0x800284B0      f
_ZN14daEnDfpakkun_c12setMoveSpeedEi 0x800286F0  f
_ZN14daEnDfpakkun_c10setMoveAnmEf 0x80028780    f
_ZN14daEnDfpakkun_c12setSearchAnmEff 0x80028930 f
_ZN14daEnDfpakkun_c12setAttackAnmEff 0x80028B60 f
_ZN14daEnDfpakkun_c9setEatAnmEf 0x80028D90      f
_ZN14daEnDfpakkun_c9setIceAnmEv 0x80028FC0      f
_ZN14daEnDfpakkun_c14setIceBreakAnmEv 0x80029180 f
_ZN14daEnDfpakkun_c12setVanishAnmEv 0x80029340  f
_ZN14daEnDfpakkun_c13returnAnm_IceEv 0x80029500 f
_ZNK16sStateStateMgr_cI18dActorMultiState_c12sFStateMgr_c20sStateMethodUsr_FI_c20sStateMethodUsr_FI_cE14getMainStateIDEv 0x80029580 f
_ZNK11sStateMgr_cI18dActorMultiState_c20sStateMethodUsr_FI_c12sFStateFct_c13sStateIDChk_cE10getStateIDEv 0x80029590 f
_ZN14daEnDfpakkun_c9neckChaseEi 0x800295A0      f
_ZN14daEnDfpakkun_c7fireSetEv   0x80029600      f
_ZN14daEnDfpakkun_c25initializeState_DieVanishEv 0x80029670 f
_ZN17daEnDpakkunBase_c8removeCcEv 0x800296D0    f
_ZN14daEnDfpakkun_c23finalizeState_DieVanishEv 0x80029710 f
_ZN14daEnDfpakkun_c22executeState_DieVanishEv 0x80029720 f
_ZN14daEnDfpakkun_c27initializeState_DieIceBreakEv 0x800297B0 f
_ZN14daEnDfpakkun_c25finalizeState_DieIceBreakEv 0x800297C0 f
_ZN14daEnDfpakkun_c24executeState_DieIceBreakEv 0x800297D0 f
_ZN14daEnDfpakkun_c20initializeState_WaitEv 0x80029830 f
_ZN14daEnDfpakkun_c18finalizeState_WaitEv 0x80029890 f
_ZN14daEnDfpakkun_c17executeState_WaitEv 0x800298A0 f
_ZN14daEnDfpakkun_c11checkAppearEv 0x80029940   f
_ZN17daEnDpakkunBase_c8reviveCcEv 0x80029950    f
_ZN14daEnDfpakkun_c22initializeState_AppearEv 0x80029990 f
_ZN14daEnDfpakkun_c9searchDirEv 0x80029A00      f
_ZN14daEnDfpakkun_c20finalizeState_AppearEv 0x80029A10 f
_ZN14daEnDfpakkun_c19executeState_AppearEv 0x80029A20 f
_ZN14daEnDfpakkun_c22initializeState_AttackEv 0x80029B40 f
_ZN14daEnDfpakkun_c20finalizeState_AttackEv 0x80029C10 f
_ZN14daEnDfpakkun_c19executeState_AttackEv 0x80029C20 f
_ZN14daEnDfpakkun_c6searchEv    0x80029FD0      f
_ZN14daEnDfpakkun_c10adjustNeckEv 0x80029FE0    f
_ZN14daEnDfpakkun_c25initializeState_DisappearEv 0x80029FF0 f
_ZN14daEnDfpakkun_c23finalizeState_DisappearEv 0x8002A020 f
_ZN14daEnDfpakkun_c22executeState_DisappearEv 0x8002A030 f
_ZN17daEnDpakkunBase_c8updateCcEv 0x8002A140    f
_ZN17daEnDpakkunBase_c11finalUpdateEv 0x8002A150 f
_ZN17daEnDpakkunBase_c13initPakkunDirEv 0x8002A160 f
_ZN17daEnDpakkunBase_c17YoshiFumiScoreSetEP8dActor_c 0x8002A170 f
_ZN17daEnDpakkunBase_c24hitCallback_PenguinSlideEP5dCc_cP5dCc_c 0x8002A180 f
_ZN17daEnDpakkunBase_c16hitCallback_SlipEP5dCc_cP5dCc_c 0x8002A1B0 f
_ZN17daEnDpakkunBase_c19hitCallback_HipAttkEP5dCc_cP5dCc_c 0x8002A1C0 f
_ZN17daEnDpakkunBase_c16hitCallback_SpinEP5dCc_cP5dCc_c 0x8002A1D0 f
_ZN14daEnDfpakkun_c11calcFirePrmEv 0x8002A1E0   f
_ZN3m3d6banm_c4playEv           0x8002A1F0      f
_ZNK3m3d13anmChrBlend_c7getTypeEv 0x8002A200    f
_ZNK3m3d8anmChr_c7getTypeEv     0x8002A210      f
_ZN3m3d5mdl_c10callback_c7timingAEmPN4nw4r3g3d12ChrAnmResultEN4nw4r3g3d6ResMdlE 0x8002A220 f
__sinit_\d_a_en_dfpakkun_cpp    0x8002A230      f
_ZN11sFStateID_cI14daEnDfpakkun_cED0Ev 0x8002A740 f
_ZN18sFStateVirtualID_cI14daEnDfpakkun_cED0Ev 0x8002A7A0 f
_Z18baseID_DieIceBreakI17daEnDpakkunBase_cERK12sStateIDIf_cv 0x8002A800 f
_Z16baseID_DieVanishI17daEnDpakkunBase_cERK12sStateIDIf_cv 0x8002A810 f
_Z16baseID_DisappearI17daEnDpakkunBase_cERK12sStateIDIf_cv 0x8002A820 f
_Z13baseID_AttackI17daEnDpakkunBase_cERK12sStateIDIf_cv 0x8002A830 f
_Z13baseID_AppearI17daEnDpakkunBase_cERK12sStateIDIf_cv 0x8002A840 f
_Z11baseID_WaitI17daEnDpakkunBase_cERK12sStateIDIf_cv 0x8002A850 f
_ZNK18sFStateVirtualID_cI14daEnDfpakkun_cE6numberEv 0x8002A860 f
_ZNK18sFStateVirtualID_cI14daEnDfpakkun_cE7superIDEv 0x8002A940 f
_ZNK11sFStateID_cI14daEnDfpakkun_cE10isSameNameEPKc 0x8002AA20 f
_ZNK11sFStateID_cI14daEnDfpakkun_cE15initializeStateER14daEnDfpakkun_c 0x8002AAB0 f
_ZNK11sFStateID_cI14daEnDfpakkun_cE12executeStateER14daEnDfpakkun_c 0x8002AAE0 f
_ZNK11sFStateID_cI14daEnDfpakkun_cE13finalizeStateER14daEnDfpakkun_c 0x8002AB10 f
_ZN10daEnDoor_c20searchParent_centerAEj 0x8002AB40 f
_ZN10daEnDoor_c20searchParent_centerBEj 0x8002ABA0 f
_ZN10daEnDoor_c12searchParentEj 0x8002AC00      f
_ZN10daEnDoor_c13setParentInfoEP8dActor_c 0x8002AC40 f
_ZN10daEnDoor_c13rotation_moveEP8dActor_c 0x8002AC90 f
_ZN10daEnDoor_c13rotation_moveEv 0x8002AD70     f
_ZN10daEnDoor_c13setParentInfoEj 0x8002ADD0     f
_ZN10daEnDoor_c6createEv        0x8002AE50      f
_ZN10daEnDoor_c10initCcDataEv   0x8002AFA0      f
_ZN10daEnDoor_c7initAnmEv       0x8002AFB0      f
_ZN10daEnDoor_c10initializeEv   0x8002AFC0      f
_ZN10daEnDoor_c8allocateEv      0x8002AFD0      f
_ZN10daEnDoor_c9createMdlEv     0x8002B030      f
_ZN10daEnDoor_c7executeEv       0x8002B040      f
_ZN10daEnDoor_c4drawEv          0x8002B0E0      f
_ZN10daEnDoor_c8doDeleteEv      0x8002B110      f
_ZN10daEnDoor_c7calcMdlEv       0x8002B180      f
_ZN10daEnDoor_c10ccCallbackEP5dCc_cP5dCc_c 0x8002B260 f
_ZN10daEnDoor_c11isDummyOpenEv  0x8002B360      f
_ZN10daEnDoor_c8isClosedEv      0x8002B370      f
_ZN10daEnDoor_c11checkOpenOkEv  0x8002B3C0      f
_ZN10daEnDoor_c22initializeState_SearchEv 0x8002B460 f
_ZN10daEnDoor_c20finalizeState_SearchEv 0x8002B470 f
_ZN10daEnDoor_c19executeState_SearchEv 0x8002B480 f
_ZN10daEnDoor_c20initializeState_OpenEv 0x8002B490 f
_ZN10daEnDoor_c10setOpenAnmEv   0x8002B4E0      f
_ZN10daEnDoor_c9setOpenSEEv     0x8002B4F0      f
_ZN10daEnDoor_c18finalizeState_OpenEv 0x8002B500 f
_ZN10daEnDoor_c17executeState_OpenEv 0x8002B510 f
_ZN10daEnDoor_c21initializeState_DummyEv 0x8002B590 f
_ZN10daEnDoor_c19finalizeState_DummyEv 0x8002B640 f
_ZN10daEnDoor_c18executeState_DummyEv 0x8002B650 f
_ZN10daEnDoor_c21initializeState_CloseEv 0x8002B660 f
_ZN10daEnDoor_c11setCloseAnmEv  0x8002B670      f
_ZN10daEnDoor_c19finalizeState_CloseEv 0x8002B680 f
_ZN10daEnDoor_c18executeState_CloseEv 0x8002B690 f
_ZN10daEnDoor_c14setCloseMoveSEEv 0x8002B720    f
_ZN10daEnDoor_c10setCloseSEEv   0x8002B730      f
_ZN10daEnDoor_c20initializeState_WaitEv 0x8002B740 f
_ZN10daEnDoor_c10setWaitAnmEv   0x8002B760      f
_ZN10daEnDoor_c18finalizeState_WaitEv 0x8002B770 f
_ZN10daEnDoor_c17executeState_WaitEv 0x8002B780 f
_ZN10daEnDoor_c8waitProcEv      0x8002B810      f
_ZN10daEnDoor_c18ActorDrawCullCheckEv 0x8002B820 f
_ZN10daEnDoor_cD0Ev             0x8002B830      f
__sinit_\d_a_en_door_cpp        0x8002B8C0      f
_ZN11sFStateID_cI10daEnDoor_cED0Ev 0x8002BCC0   f
_ZNK11sFStateID_cI10daEnDoor_cE10isSameNameEPKc 0x8002BD20 f
_ZNK11sFStateID_cI10daEnDoor_cE15initializeStateER10daEnDoor_c 0x8002BDB0 f
_ZNK11sFStateID_cI10daEnDoor_cE12executeStateER10daEnDoor_c 0x8002BDE0 f
_ZNK11sFStateID_cI10daEnDoor_cE13finalizeStateER10daEnDoor_c 0x8002BE10 f
_ZN13daEnDpakkun_c10initializeEv 0x8002BE40     f
_ZN13daEnDpakkun_c12setAttackAnmEf 0x8002BE60   f
_ZN13daEnDpakkun_c12setVanishAnmEv 0x8002BEF0   f
_ZN13daEnDpakkun_c13returnAnm_IceEv 0x8002BF50  f
_ZN13daEnDpakkun_c12setMoveSpeedEi 0x8002BF60   f
_ZN13daEnDpakkun_c20initializeState_WaitEv 0x8002BFF0 f
_ZN13daEnDpakkun_c18finalizeState_WaitEv 0x8002C060 f
_ZN13daEnDpakkun_c17executeState_WaitEv 0x8002C070 f
_ZN13daEnDpakkun_c11checkAppearEv 0x8002C110    f
_ZN13daEnDpakkun_c22initializeState_AppearEv 0x8002C120 f
_ZN13daEnDpakkun_c20finalizeState_AppearEv 0x8002C140 f
_ZN13daEnDpakkun_c19executeState_AppearEv 0x8002C150 f
_ZN13daEnDpakkun_c22initializeState_AttackEv 0x8002C200 f
_ZN13daEnDpakkun_c20finalizeState_AttackEv 0x8002C220 f
_ZN13daEnDpakkun_c19executeState_AttackEv 0x8002C230 f
_ZN13daEnDpakkun_c25initializeState_DisappearEv 0x8002C2A0 f
_ZN13daEnDpakkun_c23finalizeState_DisappearEv 0x8002C2B0 f
_ZN13daEnDpakkun_c22executeState_DisappearEv 0x8002C2C0 f
_ZN13daEnDpakkun_cD0Ev          0x8002C370      f
__sinit_\d_a_en_dpakkun_cpp     0x8002C410      f
_ZN11sFStateID_cI13daEnDpakkun_cED0Ev 0x8002C790 f
_ZN18sFStateVirtualID_cI13daEnDpakkun_cED0Ev 0x8002C7F0 f
_Z16baseID_DisappearI17daEnDpakkunBase_cERK12sStateIDIf_cv 0x8002C850 f
_Z13baseID_AttackI17daEnDpakkunBase_cERK12sStateIDIf_cv 0x8002C860 f
_Z13baseID_AppearI17daEnDpakkunBase_cERK12sStateIDIf_cv 0x8002C870 f
_Z11baseID_WaitI17daEnDpakkunBase_cERK12sStateIDIf_cv 0x8002C880 f
_ZNK18sFStateVirtualID_cI13daEnDpakkun_cE6numberEv 0x8002C890 f
_ZNK18sFStateVirtualID_cI13daEnDpakkun_cE7superIDEv 0x8002C970 f
_ZNK11sFStateID_cI13daEnDpakkun_cE10isSameNameEPKc 0x8002CA50 f
_ZNK11sFStateID_cI13daEnDpakkun_cE15initializeStateER13daEnDpakkun_c 0x8002CAE0 f
_ZNK11sFStateID_cI13daEnDpakkun_cE12executeStateER13daEnDpakkun_c 0x8002CB10 f
_ZNK11sFStateID_cI13daEnDpakkun_cE13finalizeStateER13daEnDpakkun_c 0x8002CB40 f
_Z11baseID_WaitI10sStateID_cERK12sStateIDIf_cv 0x8002CB70 f
_Z13baseID_AppearI10sStateID_cERK12sStateIDIf_cv 0x8002CB80 f
_Z13baseID_AttackI10sStateID_cERK12sStateIDIf_cv 0x8002CB90 f
_Z16baseID_DisappearI10sStateID_cERK12sStateIDIf_cv 0x8002CBA0 f
_Z18baseID_DieIceBreakI10sStateID_cERK12sStateIDIf_cv 0x8002CBB0 f
_Z16baseID_DieVanishI10sStateID_cERK12sStateIDIf_cv 0x8002CBC0 f
_ZN17daEnDpakkunBase_c6createEv 0x8002CBD0      f
_ZN17daEnDpakkunBase_c10initializeEv 0x8002CD00 f
_ZN17daEnDpakkunBase_c8allocateEv 0x8002CD10    f
_ZN17daEnDpakkunBase_c9createMdlEv 0x8002CD70   f
_ZN17daEnDpakkunBase_c7executeEv 0x8002CE30     f
_ZN17daEnDpakkunBase_c11postExecuteEN7fBase_c12MAIN_STATE_eE 0x8002CF80 f
_ZN17daEnDpakkunBase_c7preDrawEv 0x8002CFD0     f
_ZN17daEnDpakkunBase_c4drawEv   0x8002D050      f
_ZN17daEnDpakkunBase_c11deleteReadyEv 0x8002D080 f
_ZN17daEnDpakkunBase_c8doDeleteEv 0x8002D090    f
_ZN17daEnDpakkunBase_c7calcMdlEv 0x8002D0C0     f
_ZN17daEnDpakkunBase_c7calcJntEv 0x8002D260     f
_ZN17daEnDpakkunBase_c13isQuakeDamageEv 0x8002D340 f
_ZN17daEnDpakkunBase_c22Normal_VsYoshiHitCheckEP5dCc_cP5dCc_c 0x8002D420 f
_ZN17daEnDpakkunBase_c16hitCallback_FireEP5dCc_cP5dCc_c 0x8002D480 f
_ZN17daEnDpakkunBase_c21hitCallback_YoshiFireEP5dCc_cP5dCc_c 0x8002D5E0 f
_ZN17daEnDpakkunBase_c24hitCallback_YoshiHipAttkEP5dCc_cP5dCc_c 0x8002D730 f
_ZN17daEnDpakkunBase_c16hitCallback_StarEP5dCc_cP5dCc_c 0x8002D840 f
_ZNK10daPlBase_c12getStarCountEv 0x8002D970     f
_ZN17daEnDpakkunBase_c17hitCallback_ShellEP5dCc_cP5dCc_c 0x8002D980 f
_ZN17daEnDpakkunBase_c16YoshiFumiJumpSetEP8dActor_c 0x8002DAA0 f
_ZN17daEnDpakkunBase_c12isPlayerDemoEv 0x8002DAB0 f
_ZN17daEnDpakkunBase_c4killEP8dActor_c 0x8002DB10 f
_ZN17daEnDpakkunBase_c9setIceAnmEv 0x8002DBE0   f
_ZN17daEnDpakkunBase_c15checkQuakeDeathEv 0x8002DCB0 f
_ZN17daEnDpakkunBase_c19setDeathInfo_VanishEP8dActor_c 0x8002DE80 f
_ZN17daEnDpakkunBase_c21setDeathInfo_IceBreakEv 0x8002DF30 f
_ZN17daEnDpakkunBase_c18setDeathInfo_QuakeEi 0x8002E020 f
_ZN17daEnDpakkunBase_c14setIceBreakAnmEv 0x8002E1F0 f
_ZN17daEnDpakkunBase_c25initializeState_DieVanishEv 0x8002E250 f
_ZN17daEnDpakkunBase_c12setVanishAnmEv 0x8002E2B0 f
_ZN17daEnDpakkunBase_c23finalizeState_DieVanishEv 0x8002E2C0 f
_ZN17daEnDpakkunBase_c22executeState_DieVanishEv 0x8002E2D0 f
_ZN17daEnDpakkunBase_c27initializeState_DieIceBreakEv 0x8002E330 f
_ZN17daEnDpakkunBase_c25finalizeState_DieIceBreakEv 0x8002E430 f
_ZN17daEnDpakkunBase_c24executeState_DieIceBreakEv 0x8002E440 f
_ZN17daEnDpakkunBase_c20initializeState_WaitEv 0x8002E500 f
_ZN17daEnDpakkunBase_c18finalizeState_WaitEv 0x8002E510 f
_ZN17daEnDpakkunBase_c17executeState_WaitEv 0x8002E520 f
_ZN17daEnDpakkunBase_c22initializeState_AppearEv 0x8002E530 f
_ZN17daEnDpakkunBase_c20finalizeState_AppearEv 0x8002E540 f
_ZN17daEnDpakkunBase_c19executeState_AppearEv 0x8002E550 f
_ZN17daEnDpakkunBase_c22initializeState_AttackEv 0x8002E560 f
_ZN17daEnDpakkunBase_c20finalizeState_AttackEv 0x8002E570 f
_ZN17daEnDpakkunBase_c19executeState_AttackEv 0x8002E580 f
_ZN17daEnDpakkunBase_c25initializeState_DisappearEv 0x8002E590 f
_ZN17daEnDpakkunBase_c23finalizeState_DisappearEv 0x8002E5A0 f
_ZN17daEnDpakkunBase_c22executeState_DisappearEv 0x8002E5B0 f
_ZN17daEnDpakkunBase_c14nodeCallback_c7timingAEmPN4nw4r3g3d12ChrAnmResultEN4nw4r3g3d6ResMdlE 0x8002E5C0 f
__sinit_\d_a_en_dpakkun_base_cpp 0x8002E660     f
_ZN11sFStateID_cI17daEnDpakkunBase_cED0Ev 0x8002EBB0 f
_ZN18sFStateVirtualID_cI17daEnDpakkunBase_cED0Ev 0x8002EC10 f
_ZNK18sFStateVirtualID_cI17daEnDpakkunBase_cE6numberEv 0x8002EC70 f
_ZNK18sFStateVirtualID_cI17daEnDpakkunBase_cE7superIDEv 0x8002ED50 f
_ZNK11sFStateID_cI17daEnDpakkunBase_cE10isSameNameEPKc 0x8002EE30 f
_ZNK11sFStateID_cI17daEnDpakkunBase_cE15initializeStateER17daEnDpakkunBase_c 0x8002EEC0 f
_ZNK11sFStateID_cI17daEnDpakkunBase_cE12executeStateER17daEnDpakkunBase_c 0x8002EEF0 f
_ZNK11sFStateID_cI17daEnDpakkunBase_cE13finalizeStateER17daEnDpakkunBase_c 0x8002EF20 f
_Z18baseID_DieIceBreakI10sStateID_cERK12sStateIDIf_cv 0x8002EF50 f
_Z13baseID_AttackI10sStateID_cERK12sStateIDIf_cv 0x8002EF60 f
_Z19baseID_SakasaAttackI10sStateID_cERK12sStateIDIf_cv 0x8002EF70 f
_ZN21daEnJimenPakkunBase_c6createEv 0x8002EF80  f
_ZN21daEnJimenPakkunBase_c8entryHIOEv 0x8002F0D0 f
_ZN21daEnJimenPakkunBase_c9createMdlEv 0x8002F0E0 f
_ZN21daEnJimenPakkunBase_c7executeEv 0x8002F250 f
_ZN21daEnJimenPakkunBase_c11postExecuteEN7fBase_c12MAIN_STATE_eE 0x8002F2F0 f
_ZN21daEnJimenPakkunBase_c4drawEv 0x8002F350    f
_ZN21daEnJimenPakkunBase_c11deleteReadyEv 0x8002F380 f
_ZN21daEnJimenPakkunBase_c8doDeleteEv 0x8002F390 f
_ZN21daEnJimenPakkunBase_c9removeHIOEv 0x8002F3E0 f
_ZN21daEnJimenPakkunBase_c7calcMdlEv 0x8002F3F0 f
_ZN21daEnJimenPakkunBase_c10calcCcInfoEv 0x8002F540 f
_ZN21daEnJimenPakkunBase_c10initializeEv 0x8002F5F0 f
_ZN21daEnJimenPakkunBase_c10initActionEv 0x8002F640 f
_ZNK21daEnJimenPakkunBase_c12getSakasaOfsEv 0x8002F6E0 f
_ZN21daEnJimenPakkunBase_c15returnState_IceEv 0x8002F6F0 f
_ZN21daEnJimenPakkunBase_c7calcJntEv 0x8002F730 f
_ZN21daEnJimenPakkunBase_c19Normal_VsPlHitCheckEP5dCc_cP5dCc_c 0x8002F870 f
_ZN21daEnJimenPakkunBase_c22Normal_VsYoshiHitCheckEP5dCc_cP5dCc_c 0x8002F910 f
_ZN21daEnJimenPakkunBase_c24hitCallback_YoshiHipAttkEP5dCc_cP5dCc_c 0x8002F970 f
_ZN21daEnJimenPakkunBase_c16hitCallback_FireEP5dCc_cP5dCc_c 0x8002FA50 f
_ZN21daEnJimenPakkunBase_c15hitCallback_IceEP5dCc_cP5dCc_c 0x8002FBA0 f
_ZN21daEnJimenPakkunBase_c17hitCallback_ShellEP5dCc_cP5dCc_c 0x8002FBE0 f
_ZN21daEnJimenPakkunBase_c16hitCallback_StarEP5dCc_cP5dCc_c 0x8002FD50 f
_ZN21daEnJimenPakkunBase_c21hitCallback_YoshiFireEP5dCc_cP5dCc_c 0x8002FE60 f
_ZN21daEnJimenPakkunBase_c18ActorDrawCullCheckEv 0x8002FF80 f
_ZN21daEnJimenPakkunBase_c16YoshiFumiJumpSetEP8dActor_c 0x80030000 f
_ZN21daEnJimenPakkunBase_c14createIceActorEv 0x80030010 f
_ZN21daEnJimenPakkunBase_c6setAnmEPcN3m3d10playMode_eEf 0x80030140 f
_ZN21daEnJimenPakkunBase_c9setIceAnmEv 0x800301B0 f
_ZN21daEnJimenPakkunBase_c21setDeathInfo_IceBreakEv 0x80030230 f
_ZN21daEnJimenPakkunBase_c18setDeathInfo_QuakeEi 0x80030310 f
_ZN21daEnJimenPakkunBase_c24initializeState_DieOtherEv 0x80030440 f
_ZN21daEnJimenPakkunBase_c8removeCcEv 0x80030500 f
_ZN21daEnJimenPakkunBase_c6downSEEv 0x80030540  f
_ZN21daEnJimenPakkunBase_c22finalizeState_DieOtherEv 0x80030590 f
_ZN21daEnJimenPakkunBase_c21executeState_DieOtherEv 0x800305A0 f
_ZN21daEnJimenPakkunBase_c27initializeState_DieIceBreakEv 0x80030680 f
_ZN21daEnJimenPakkunBase_c25finalizeState_DieIceBreakEv 0x800307A0 f
_ZN21daEnJimenPakkunBase_c24executeState_DieIceBreakEv 0x800307B0 f
_ZN21daEnJimenPakkunBase_c22initializeState_AttackEv 0x80030870 f
_ZN21daEnJimenPakkunBase_c20finalizeState_AttackEv 0x80030880 f
_ZN21daEnJimenPakkunBase_c19executeState_AttackEv 0x80030890 f
_ZN21daEnJimenPakkunBase_c28initializeState_SakasaAttackEv 0x800308A0 f
_ZN21daEnJimenPakkunBase_c26finalizeState_SakasaAttackEv 0x800308B0 f
_ZN21daEnJimenPakkunBase_c25executeState_SakasaAttackEv 0x800308C0 f
_ZN21daEnJimenPakkunBase_c8reviveCcEv 0x800308D0 f
_ZN21daEnJimenPakkunBase_c11finalUpdateEv 0x80030910 f
_ZN21daEnJimenPakkunBase_c13isQuakeDamageEv 0x80030950 f
_ZN21daEnJimenPakkunBase_c17YoshiFumiScoreSetEP8dActor_c 0x800309B0 f
_ZN21daEnJimenPakkunBase_c14block_hit_initEv 0x800309C0 f
_ZN21daEnJimenPakkunBase_c16hitCallback_SlipEP5dCc_cP5dCc_c 0x800309D0 f
_ZN21daEnJimenPakkunBase_c19hitCallback_HipAttkEP5dCc_cP5dCc_c 0x800309E0 f
_ZN21daEnJimenPakkunBase_c16hitCallback_SpinEP5dCc_cP5dCc_c 0x800309F0 f
_ZN21daEnJimenPakkunBase_cD0Ev  0x80030A00      f
__sinit_\d_a_en_jimen_pakkun_base_cpp 0x80030AB0 f
_ZN11sFStateID_cI21daEnJimenPakkunBase_cED0Ev 0x80030E30 f
_ZN18sFStateVirtualID_cI21daEnJimenPakkunBase_cED0Ev 0x80030E90 f
_Z15baseID_DieOtherI5dEn_cERK12sStateIDIf_cv 0x80030EF0 f
_ZNK18sFStateVirtualID_cI21daEnJimenPakkunBase_cE6numberEv 0x80030F00 f
_ZNK18sFStateVirtualID_cI21daEnJimenPakkunBase_cE7superIDEv 0x80030FE0 f
_ZNK11sFStateID_cI21daEnJimenPakkunBase_cE10isSameNameEPKc 0x800310C0 f
_ZNK11sFStateID_cI21daEnJimenPakkunBase_cE15initializeStateER21daEnJimenPakkunBase_c 0x80031150 f
_ZNK11sFStateID_cI21daEnJimenPakkunBase_cE12executeStateER21daEnJimenPakkunBase_c 0x80031180 f
_ZNK11sFStateID_cI21daEnJimenPakkunBase_cE13finalizeStateER21daEnJimenPakkunBase_c 0x800311B0 f
_Z11baseID_WalkI10sStateID_cERK12sStateIDIf_cv 0x800311E0 f
_Z11baseID_TurnI10sStateID_cERK12sStateIDIf_cv 0x800311F0 f
_Z16baseID_TrplnJumpI10sStateID_cERK12sStateIDIf_cv 0x80031200 f
_ZN16daEnKuriboBase_c6createEv  0x80031210      f
_ZN16daEnKuriboBase_c10initializeEv 0x800312D0  f
_ZN16daEnKuriboBase_c11createModelEv 0x800312E0 f
_ZN16daEnKuriboBase_c16createOtherModelEv 0x80031360 f
_ZN16daEnKuriboBase_c15createBodyModelEv 0x80031370 f
_ZN16daEnKuriboBase_c8doDeleteEv 0x80031460     f
_ZN16daEnKuriboBase_c7executeEv 0x80031470      f
_ZNK16daEnKuriboBase_c11isWakidashiEv 0x800315A0 f
_ZN16daEnKuriboBase_c4drawEv    0x800315B0      f
_ZN16daEnKuriboBase_c9drawModelEv 0x800315E0    f
_ZN16daEnKuriboBase_c9calcModelEv 0x800315F0    f
_ZN16daEnKuriboBase_c19Normal_VsEnHitCheckEP5dCc_cP5dCc_c 0x80031730 f
_ZN16daEnKuriboBase_c17setTurnByEnemyHitEv 0x80031780 f
_ZN16daEnKuriboBase_c19Normal_VsPlHitCheckEP5dCc_cP5dCc_c 0x80031790 f
_ZN16daEnKuriboBase_c17reactSpinFumiProcEP8dActor_c 0x80031870 f
_ZN16daEnKuriboBase_c15isDamageInvalidEv 0x80031880 f
_ZN16daEnKuriboBase_c22Normal_VsYoshiHitCheckEP5dCc_cP5dCc_c 0x80031890 f
_ZN16daEnKuriboBase_c18reactYoshiFumiProcEP8dActor_c 0x80031940 f
_ZN16daEnKuriboBase_c13reactFumiProcEP8dActor_c 0x80031950 f
_ZN16daEnKuriboBase_c17reactMameFumiProcEP8dActor_c 0x80031990 f
_ZN16daEnKuriboBase_c10checkRyusaEv 0x800319A0  f
_ZN16daEnKuriboBase_c11ryusaEffectEv 0x80031A30 f
_ZN16daEnKuriboBase_c9setDamageEP8dActor_c 0x80031AB0 f
_ZN16daEnKuriboBase_c11setLayerPosEv 0x80031B30 f
_ZN16daEnKuriboBase_c19setDeathInfo_HasamiEv 0x80031B70 f
_ZN16daEnKuriboBase_c9setCcLineEv 0x80031CC0    f
_ZN16daEnKuriboBase_c10setWalkAnmEv 0x80031DF0  f
_ZN16daEnKuriboBase_c18setTurnByPlayerHitEP8dActor_c 0x80031EC0 f
_ZN16daEnKuriboBase_c12setWalkSpeedEv 0x80031F90 f
_ZN16daEnKuriboBase_c12landonEffectEv 0x80031FA0 f
hash_CD30B169_F6BE178B          0x80032080      f
_ZN16daEnKuriboBase_c20initializeState_WalkEv 0x800320C0 f
_ZN16daEnKuriboBase_c18finalizeState_WalkEv 0x80032160 f
_ZN16daEnKuriboBase_c17executeState_WalkEv 0x80032170 f
_ZN16daEnKuriboBase_c11playWalkAnmEv 0x80032300 f
_ZN16daEnKuriboBase_c10walkEffectEv 0x80032350  f
_ZNK16daEnKuriboBase_c9isBgmSyncEv 0x80032360   f
_ZN16daEnKuriboBase_c20initializeState_TurnEv 0x80032370 f
_ZN16daEnKuriboBase_c18finalizeState_TurnEv 0x800323E0 f
_ZN16daEnKuriboBase_c17executeState_TurnEv 0x800323F0 f
_ZN16daEnKuriboBase_c25initializeState_TrplnJumpEv 0x80032570 f
_ZN16daEnKuriboBase_c23finalizeState_TrplnJumpEv 0x800325B0 f
_ZN16daEnKuriboBase_c22executeState_TrplnJumpEv 0x800325C0 f
_ZN16daEnKuriboBase_c24initializeState_DieOtherEv 0x800326F0 f
_ZN16daEnKuriboBase_c22finalizeState_DieOtherEv 0x80032780 f
_ZN16daEnKuriboBase_c21executeState_DieOtherEv 0x80032790 f
_ZN16daEnKuriboBase_c11finalUpdateEv 0x800327F0 f
_ZNK16daEnKuriboBase_c8isFunsuiEv 0x80032800    f
_ZN16daEnKuriboBase_c9endFunsuiEv 0x80032810    f
_ZN16daEnKuriboBase_c11beginFunsuiEv 0x80032860 f
_ZN16daEnKuriboBase_c12fumidamageSEERK7mVec3_ci 0x800328C0 f
_ZN16daEnKuriboBase_cD0Ev       0x80032930      f
_ZN3mEf16levelOneEffect_cD0Ev   0x80032A30      f
__sinit_\d_a_en_kuribo_base_cpp 0x80032AB0      f
_ZN11sFStateID_cI16daEnKuriboBase_cED0Ev 0x80032E30 f
_ZN18sFStateVirtualID_cI16daEnKuriboBase_cED0Ev 0x80032E90 f
_Z15baseID_DieOtherI5dEn_cERK12sStateIDIf_cv 0x80032EF0 f
_ZNK18sFStateVirtualID_cI16daEnKuriboBase_cE6numberEv 0x80032F00 f
_ZNK18sFStateVirtualID_cI16daEnKuriboBase_cE7superIDEv 0x80032FE0 f
_ZNK11sFStateID_cI16daEnKuriboBase_cE10isSameNameEPKc 0x800330C0 f
_ZNK11sFStateID_cI16daEnKuriboBase_cE15initializeStateER16daEnKuriboBase_c 0x80033150 f
_ZNK11sFStateID_cI16daEnKuriboBase_cE12executeStateER16daEnKuriboBase_c 0x80033180 f
_ZNK11sFStateID_cI16daEnKuriboBase_cE13finalizeStateER16daEnKuriboBase_c 0x800331B0 f
_Z11baseID_WalkI10sStateID_cERK12sStateIDIf_cv 0x800331E0 f
_Z11baseID_TurnI10sStateID_cERK12sStateIDIf_cv 0x800331F0 f
_Z12baseID_PressI10sStateID_cERK12sStateIDIf_cv 0x80033200 f
_Z12baseID_SplitI10sStateID_cERK12sStateIDIf_cv 0x80033210 f
_Z15baseID_HipSplitI10sStateID_cERK12sStateIDIf_cv 0x80033220 f
_ZN17daEnLkuriboBase_c6createEv 0x80033230      f
_ZN17daEnLkuriboBase_c10initializeEv 0x80033300 f
_ZN17daEnLkuriboBase_c9createMdlEv 0x80033310   f
_ZN17daEnLkuriboBase_c8doDeleteEv 0x80033440    f
_ZN17daEnLkuriboBase_c7executeEv 0x80033450     f
_ZN17daEnLkuriboBase_c4drawEv   0x800334C0      f
_ZN17daEnLkuriboBase_c7calcMdlEv 0x800334F0     f
_ZN17daEnLkuriboBase_c7calcJntEv 0x80033650     f
_ZN17daEnLkuriboBase_c19Normal_VsEnHitCheckEP5dCc_cP5dCc_c 0x80033740 f
_ZN17daEnLkuriboBase_c19Normal_VsPlHitCheckEP5dCc_cP5dCc_c 0x800337F0 f
_ZN17daEnLkuriboBase_c7splitSEEv 0x80033910     f
_ZN17daEnLkuriboBase_c11splitEffectEv 0x80033960 f
_ZN17daEnLkuriboBase_c22Normal_VsYoshiHitCheckEP5dCc_cP5dCc_c 0x80033970 f
_ZN17daEnLkuriboBase_c16hitCallback_FireEP5dCc_cP5dCc_c 0x80033A30 f
_ZN17daEnLkuriboBase_c9firehitSEEv 0x80033C00   f
_ZN17daEnLkuriboBase_c19hitCallback_HipAttkEP5dCc_cP5dCc_c 0x80033C50 f
_ZN17daEnLkuriboBase_c10hipsplitSEEv 0x80033D40 f
_ZN17daEnLkuriboBase_c14hipsplitEffectEv 0x80033D90 f
_ZN17daEnLkuriboBase_c16hitCallback_SpinEP5dCc_cP5dCc_c 0x80033DA0 f
_ZN17daEnLkuriboBase_c9setDamageEP8dActor_c 0x80033E90 f
_ZN17daEnLkuriboBase_c19setDeathInfo_HasamiEv 0x80033F10 f
_ZN17daEnLkuriboBase_c11setBoyoFuncEM17daEnLkuriboBase_cFvPKvPvE 0x80034060 f
_ZN17daEnLkuriboBase_c14calcBoyonScaleEv 0x800340F0 f
_ZN17daEnLkuriboBase_c11nonBoyoProcEv 0x80034120 f
_ZN17daEnLkuriboBase_c12fireBoyoProcEv 0x80034140 f
_ZN17daEnLkuriboBase_c6setAnmEPcN3m3d10playMode_eEf 0x80034260 f
_ZN17daEnLkuriboBase_c9setTexAnmEPcN3m3d10playMode_eE 0x800342F0 f
_ZN17daEnLkuriboBase_c18setTurnByPlayerHitEP8dActor_c 0x80034380 f
_ZN17daEnLkuriboBase_c12setWalkSpeedEv 0x80034450 f
_ZN17daEnLkuriboBase_c11FumiJumpSetEP8dActor_c 0x80034460 f
_ZN17daEnLkuriboBase_c11pressAttachEv 0x800344C0 f
_ZN17daEnLkuriboBase_c20initializeState_WalkEv 0x80034520 f
_ZN17daEnLkuriboBase_c10setWalkAnmEv 0x800345C0 f
_ZN17daEnLkuriboBase_c18finalizeState_WalkEv 0x800345D0 f
_ZN17daEnLkuriboBase_c17executeState_WalkEv 0x800345E0 f
_ZN17daEnLkuriboBase_c10walkEffectEv 0x800346F0 f
_ZN16sStateStateMgr_cI18dActorMultiState_c12sFStateMgr_c20sStateMethodUsr_FI_c20sStateMethodUsr_FI_cE12refreshStateEv 0x80034700 f
_ZN17daEnLkuriboBase_c20initializeState_TurnEv 0x80034720 f
_ZN17daEnLkuriboBase_c18finalizeState_TurnEv 0x80034740 f
_ZN17daEnLkuriboBase_c17executeState_TurnEv 0x80034750 f
_ZN17daEnLkuriboBase_c21initializeState_PressEv 0x80034840 f
_ZN17daEnLkuriboBase_c19finalizeState_PressEv 0x800348B0 f
_ZN17daEnLkuriboBase_c18executeState_PressEv 0x800348C0 f
_ZN17daEnLkuriboBase_c5splitEv  0x80034960      f
_ZN17daEnLkuriboBase_c21initializeState_SplitEv 0x80034970 f
_ZN17daEnLkuriboBase_c19finalizeState_SplitEv 0x800349E0 f
_ZN17daEnLkuriboBase_c18executeState_SplitEv 0x800349F0 f
_ZN17daEnLkuriboBase_c24initializeState_HipSplitEv 0x80034A90 f
_ZN17daEnLkuriboBase_c22finalizeState_HipSplitEv 0x80034B00 f
_ZN17daEnLkuriboBase_c21executeState_HipSplitEv 0x80034B10 f
_ZN17daEnLkuriboBase_c8hipsplitEv 0x80034BB0    f
_ZN17daEnLkuriboBase_c23initializeState_DieFallEv 0x80034BC0 f
_ZN17daEnLkuriboBase_c21finalizeState_DieFallEv 0x80034C00 f
_ZN17daEnLkuriboBase_c20executeState_DieFallEv 0x80034C10 f
_ZN17daEnLkuriboBase_c11finalUpdateEv 0x80034C70 f
_ZN17daEnLkuriboBase_c17setTurnByEnemyHitEv 0x80034CB0 f
_ZN17daEnLkuriboBase_c12fumidamageSEERK7mVec3_ci 0x80034CC0 f
_ZN17daEnLkuriboBase_c24hitCallback_YoshiHipAttkEP5dCc_cP5dCc_c 0x80034D30 f
_ZN17daEnLkuriboBase_cD0Ev      0x80034D40      f
__sinit_\d_a_en_lkuribo_base_cpp 0x80034E10     f
_ZN11sFStateID_cI17daEnLkuriboBase_cED0Ev 0x80035320 f
_ZN18sFStateVirtualID_cI17daEnLkuriboBase_cED0Ev 0x80035380 f
_Z14baseID_DieFallI5dEn_cERK12sStateIDIf_cv 0x800353E0 f
_ZNK18sFStateVirtualID_cI17daEnLkuriboBase_cE6numberEv 0x800353F0 f
_ZNK18sFStateVirtualID_cI17daEnLkuriboBase_cE7superIDEv 0x800354D0 f
_ZNK11sFStateID_cI17daEnLkuriboBase_cE10isSameNameEPKc 0x800355B0 f
_ZNK11sFStateID_cI17daEnLkuriboBase_cE15initializeStateER17daEnLkuriboBase_c 0x80035640 f
_ZNK11sFStateID_cI17daEnLkuriboBase_cE12executeStateER17daEnLkuriboBase_c 0x80035670 f
_ZNK11sFStateID_cI17daEnLkuriboBase_cE13finalizeStateER17daEnLkuriboBase_c 0x800356A0 f
_ZN13daEnNetNoko_c6createEv     0x800356D0      f
_ZN13daEnNetNoko_c10initializeEv 0x80035800     f
_ZN13daEnNetNoko_c8entryHIOEv   0x80035810      f
_ZN13daEnNetNoko_c9createMdlEv  0x80035820      f
_ZN13daEnNetNoko_c4drawEv       0x80035960      f
_ZN13daEnNetNoko_c11deleteReadyEv 0x80035990    f
_ZN13daEnNetNoko_c8doDeleteEv   0x800359A0      f
_ZN13daEnNetNoko_c9removeHIOEv  0x800359D0      f
_ZN13daEnNetNoko_c7calcMdlEv    0x800359E0      f
_ZN13daEnNetNoko_c8setColorEv   0x80035B10      f
_ZN13daEnNetNoko_c11wireBgCheckERK7mVec2_c 0x80035BB0 f
_ZN13daEnNetNoko_c13PlDamageCheckEP5dCc_cP5dCc_c 0x80035C70 f
_ZN13daEnNetNoko_c13setEatSpitOutEP8dActor_c 0x80035CA0 f
_ZN13daEnNetNoko_c15MameFumiJumpSetEP8dActor_c 0x80035D60 f
_ZN13daEnNetNoko_c19Normal_VsPlHitCheckEP5dCc_cP5dCc_c 0x80035DC0 f
_ZN13daEnNetNoko_c22Normal_VsYoshiHitCheckEP5dCc_cP5dCc_c 0x80035E80 f
_ZN13daEnNetNoko_c23initializeState_DieFumiEv 0x80035F10 f
_ZN13daEnNetNoko_c21finalizeState_DieFumiEv 0x80035F90 f
_ZN13daEnNetNoko_c20executeState_DieFumiEv 0x80035FA0 f
_ZN13daEnNetNoko_c23initializeState_DieFallEv 0x80036060 f
_ZN13daEnNetNoko_c21finalizeState_DieFallEv 0x80036110 f
_ZN13daEnNetNoko_c20executeState_DieFallEv 0x80036120 f
_ZN13daEnNetNoko_c7mdlPlayEv    0x80036270      f
_ZN13daEnNetNoko_c13isQuakeDamageEv 0x80036280  f
_ZN13daEnNetNoko_cD0Ev          0x80036290      f
_ZN12daNetEnemy_cD0Ev           0x80036330      f
__sinit_\d_a_en_net_nokonoko_base_cpp 0x80036390 f
_ZN11sFStateID_cI13daEnNetNoko_cED0Ev 0x80036570 f
_ZN18sFStateVirtualID_cI13daEnNetNoko_cED0Ev 0x800365D0 f
_Z14baseID_DieFallI5dEn_cERK12sStateIDIf_cv 0x80036630 f
_Z14baseID_DieFumiI5dEn_cERK12sStateIDIf_cv 0x80036640 f
_ZNK18sFStateVirtualID_cI13daEnNetNoko_cE6numberEv 0x80036650 f
_ZNK18sFStateVirtualID_cI13daEnNetNoko_cE7superIDEv 0x80036730 f
_ZNK11sFStateID_cI13daEnNetNoko_cE10isSameNameEPKc 0x80036810 f
_ZNK11sFStateID_cI13daEnNetNoko_cE15initializeStateER13daEnNetNoko_c 0x800368A0 f
_ZNK11sFStateID_cI13daEnNetNoko_cE12executeStateER13daEnNetNoko_c 0x800368D0 f
_ZNK11sFStateID_cI13daEnNetNoko_cE13finalizeStateER13daEnNetNoko_c 0x80036900 f
_ZN18daEnObjCoinBlock_c11nice_searchEv 0x80036930 f
_ZN18daEnObjCoinBlock_c11getInfoSaveEv 0x800369D0 f
_ZN18daEnObjCoinBlock_c19coin_collisionCheckEv 0x80036A70 f
_ZN18daEnObjCoinBlock_c20block_collisionCheckEv 0x80036AB0 f
_ZN18daEnObjCoinBlock_c14coin_objbg_setEmh 0x80036C90 f
_ZN18daEnObjCoinBlock_c15block_objbg_setEmh 0x80036D40 f
_ZN18daEnObjCoinBlock_c14swich_on_checkEv 0x80036E20 f
_ZN18daEnObjCoinBlock_c12rail_serchIDEv 0x80037060 f
_ZN18daEnObjCoinBlock_c14objpol_serchIDEv 0x80037110 f
_ZN18daEnObjCoinBlock_c17watermove_serchIDEv 0x80037190 f
_ZN18daEnObjCoinBlock_c16spinlift_serchIDEv 0x80037220 f
_ZN18daEnObjCoinBlock_c22spinlift_child_serchIDEv 0x800372B0 f
_ZN18daEnObjCoinBlock_c27initializeState_SerchRailIDEv 0x80037340 f
_ZN18daEnObjCoinBlock_c25finalizeState_SerchRailIDEv 0x80037350 f
_ZN18daEnObjCoinBlock_c24executeState_SerchRailIDEv 0x80037360 f
_ZN18daEnObjCoinBlock_c29initializeState_SerchObjPolIDEv 0x800373E0 f
_ZN18daEnObjCoinBlock_c27finalizeState_SerchObjPolIDEv 0x800373F0 f
_ZN18daEnObjCoinBlock_c26executeState_SerchObjPolIDEv 0x80037400 f
_ZN18daEnObjCoinBlock_c32initializeState_SerchWaterMoveIDEv 0x80037480 f
_ZN18daEnObjCoinBlock_c30finalizeState_SerchWaterMoveIDEv 0x80037490 f
_ZN18daEnObjCoinBlock_c29executeState_SerchWaterMoveIDEv 0x800374A0 f
_ZN18daEnObjCoinBlock_c31initializeState_SerchSpinLiftIDEv 0x80037520 f
_ZN18daEnObjCoinBlock_c29finalizeState_SerchSpinLiftIDEv 0x80037530 f
_ZN18daEnObjCoinBlock_c28executeState_SerchSpinLiftIDEv 0x80037540 f
_ZN18daEnObjCoinBlock_c36initializeState_SerchSpinLiftChildIDEv 0x800375C0 f
_ZN18daEnObjCoinBlock_c34finalizeState_SerchSpinLiftChildIDEv 0x800375D0 f
_ZN18daEnObjCoinBlock_c33executeState_SerchSpinLiftChildIDEv 0x800375E0 f
_ZN18daEnObjCoinBlock_c24initializeState_CoinWaitEv 0x80037660 f
_ZN18daEnObjCoinBlock_c22finalizeState_CoinWaitEv 0x80037680 f
_ZN18daEnObjCoinBlock_c21executeState_CoinWaitEv 0x80037690 f
_ZN18daEnObjCoinBlock_c25initializeState_BlockWaitEv 0x800376E0 f
_ZN18daEnObjCoinBlock_c23finalizeState_BlockWaitEv 0x800376F0 f
_ZN18daEnObjCoinBlock_c22executeState_BlockWaitEv 0x80037700 f
__sinit_\d_a_en_obj_coinblock_cpp 0x80037750    f
_ZN11sFStateID_cI18daEnObjCoinBlock_cED0Ev 0x80037D20 f
_ZNK11sFStateID_cI18daEnObjCoinBlock_cE10isSameNameEPKc 0x80037D80 f
_ZNK11sFStateID_cI18daEnObjCoinBlock_cE15initializeStateER18daEnObjCoinBlock_c 0x80037E10 f
_ZNK11sFStateID_cI18daEnObjCoinBlock_cE12executeStateER18daEnObjCoinBlock_c 0x80037E40 f
_ZNK11sFStateID_cI18daEnObjCoinBlock_cE13finalizeStateER18daEnObjCoinBlock_c 0x80037E70 f
_Z12baseID_SleepI10sStateID_cERK12sStateIDIf_cv 0x80037EA0 f
_Z12baseID_SlideI10sStateID_cERK12sStateIDIf_cv 0x80037EB0 f
_Z13baseID_WakeupI10sStateID_cERK12sStateIDIf_cv 0x80037EC0 f
_Z20baseID_WakeupReverseI10sStateID_cERK12sStateIDIf_cv 0x80037ED0 f
_Z17baseID_WakeupTurnI10sStateID_cERK12sStateIDIf_cv 0x80037EE0 f
_ZN11daEnShell_cC1Ev            0x80037EF0      f
_ZN20UniqueFumiCheckInf_cD0Ev   0x80038040      f
_ZN11daEnShell_cD0Ev            0x80038080      f
_ZN11daEnShell_c11createShellEPKcPKcPKcPKcf 0x800381B0 f
_ZN11daEnShell_c12calcShellMdlEv 0x80038360     f
_ZN11daEnShell_c18calcShellEffectPosEv 0x80038660 f
_ZN11daEnShell_c11postExecuteEN7fBase_c12MAIN_STATE_eE 0x80038670 f
_ZN11daEnShell_c9drawShellEv    0x800387D0      f
_ZN11daEnShell_c14EtcDamageCheckEP5dCc_cP5dCc_c 0x80038800 f
_ZN11daEnShell_c19Normal_VsEnHitCheckEP5dCc_cP5dCc_c 0x80038830 f
_ZN11daEnShell_c12setEnemyTurnEv 0x800389D0     f
_ZN11daEnShell_c19Normal_VsPlHitCheckEP5dCc_cP5dCc_c 0x800389E0 f
_ZN7dAcPy_c13isItemKinopioEv    0x80038FD0      f
_ZNK11daEnShell_c13isFumiInvalidEv 0x80038FF0   f
_ZN11daEnShell_c15specialFumiProcEP8dActor_c 0x80039000 f
_ZN11daEnShell_c22Normal_VsYoshiHitCheckEP5dCc_cP5dCc_c 0x80039010 f
_ZN11daEnShell_c21specialFumiProc_YoshiEP8dActor_c 0x800392B0 f
_ZN11daEnShell_c14checkComboClapEi 0x800392C0   f
_ZN11daEnShell_c11FumiJumpSetEP8dActor_c 0x800392F0 f
_ZN11daEnShell_c17hitCallback_ShellEP5dCc_cP5dCc_c 0x800393A0 f
_ZN11daEnShell_c12FumiScoreSetEP8dActor_c 0x80039590 f
_ZN11daEnShell_c12setCarryFallEP8dActor_ci 0x80039610 f
_ZN11daEnShell_c9setDamageEP8dActor_c 0x80039680 f
_ZN11daEnShell_c15setPlayerDamageEP8dActor_c 0x80039690 f
_ZN11daEnShell_c12setKickSlideEP5dCc_cP8dActor_c 0x800396A0 f
_ZN11daEnShell_c10kickEffectE7mVec3_c 0x80039790 f
hash_62A3F107_942AC5C2          0x800397B0      f
_ZN11daEnShell_c15checkMugenComboEP8dActor_c 0x80039880 f
_ZN11daEnShell_c16hitCallback_SpinEP5dCc_cP5dCc_c 0x80039B40 f
_ZN11daEnShell_c19hitCallback_HipAttkEP5dCc_cP5dCc_c 0x80039BF0 f
_ZN11daEnShell_c24hitCallback_YoshiHipAttkEP5dCc_cP5dCc_c 0x80039D70 f
_ZN11daEnShell_c9cullCheckEv    0x80039E50      f
_ZN11daEnShell_c15cullCheck_ShellEv 0x80039EF0  f
_ZN11daEnShell_c18ActorDrawCullCheckEv 0x8003A010 f
_ZN11daEnShell_c14block_hit_initEv 0x8003A0C0   f
_ZNK11daEnShell_c15isBlockHitDeathEv 0x8003A210 f
_ZN16sStateStateMgr_cI18dActorMultiState_c12sFStateMgr_c20sStateMethodUsr_FI_c20sStateMethodUsr_FI_cE15initializeStateEv 0x8003A220 f
_ZN11daEnShell_c18setSlideThrowSpeedEP8dActor_c 0x8003A240 f
_ZN11daEnShell_c17setSlideKickSpeedEP8dActor_c 0x8003A360 f
_ZN11daEnShell_c9slideSpinEv    0x8003A3A0      f
_ZN11daEnShell_c6kickSEEi       0x8003A410      f
_ZN11daEnShell_c22setDeathInfo_CarryBgInEP8dActor_c 0x8003A490 f
_ZN11daEnShell_c12setEatTongueEP8dActor_c 0x8003A570 f
_ZN11daEnShell_c13setEatSpitOutEP8dActor_c 0x8003A5D0 f
_ZN11daEnShell_c15hitCallback_IceEP5dCc_cP5dCc_c 0x8003A7B0 f
_ZN11daEnShell_c15returnState_IceEv 0x8003A8C0  f
_ZN11daEnShell_c13adjustCarryCcEv 0x8003A900    f
_ZN11daEnShell_c10checkSleepEv  0x8003AA60      f
_ZN11daEnShell_c18setSpinLiftUpActorEP8dActor_c 0x8003AB80 f
_ZN11daEnShell_c11hasamiCheckEv 0x8003AC00      f
_ZN11daEnShell_c19setDeathInfo_HasamiEv 0x8003ACD0 f
_ZN11daEnShell_c21initializeState_SleepEv 0x8003AE40 f
_ZN11daEnShell_c19finalizeState_SleepEv 0x8003AEB0 f
_ZN11daEnShell_c18executeState_SleepEv 0x8003AEE0 f
_ZN11daEnShell_c21initializeState_CarryEv 0x8003B020 f
_ZN11daEnShell_c19finalizeState_CarryEv 0x8003B140 f
_ZN11daEnShell_c18executeState_CarryEv 0x8003B200 f
_ZN11daEnShell_c21initializeState_SlideEv 0x8003B3E0 f
_ZN11daEnShell_c19finalizeState_SlideEv 0x8003B6F0 f
_ZN11daEnShell_c18executeState_SlideEv 0x8003B830 f
_ZN11daEnShell_c11slideEffectEv 0x8003BB30      f
_ZN11daEnShell_c22initializeState_WakeupEv 0x8003BB40 f
_ZN11daEnShell_c20finalizeState_WakeupEv 0x8003BBA0 f
_ZN11daEnShell_c19executeState_WakeupEv 0x8003BBB0 f
_ZN11daEnShell_c26initializeState_WakeupTurnEv 0x8003BC30 f
_ZN11daEnShell_c24finalizeState_WakeupTurnEv 0x8003BC70 f
_ZN11daEnShell_c23executeState_WakeupTurnEv 0x8003BC80 f
_ZN11daEnShell_c8turnProcEv     0x8003BD10      f
_ZN11daEnShell_c18setAfterSleepStateEv 0x8003BD20 f
_ZN11daEnShell_c29initializeState_WakeupReverseEv 0x8003BD30 f
_ZN11daEnShell_c27finalizeState_WakeupReverseEv 0x8003BD50 f
_ZN11daEnShell_c26executeState_WakeupReverseEv 0x8003BD60 f
_ZN11daEnShell_c23initializeState_DieFallEv 0x8003BE00 f
_ZN11daEnShell_c10isDieShellEv  0x8003BE60      f
_ZN11daEnShell_c21finalizeState_DieFallEv 0x8003BE70 f
_ZN11daEnShell_c20executeState_DieFallEv 0x8003BE80 f
_ZN11daEnShell_c17YoshiFumiScoreSetEP8dActor_c 0x8003BF80 f
_ZN11daEnShell_c18isSpinLiftUpEnableEv 0x8003BF90 f
_ZN11daEnShell_c10boyonBeginEv  0x8003BFF0      f
_ZN20NonUniqueFumiCheck_c7operateERiP5dEn_cR12FumiCcInfo_c 0x8003C000 f
_ZN20NonUniqueFumiCheck_cD0Ev   0x8003C010      f
__sinit_\d_a_en_shell_cpp       0x8003C050      f
_ZN11sFStateID_cI11daEnShell_cED0Ev 0x8003C630  f
_ZN18sFStateVirtualID_cI11daEnShell_cED0Ev 0x8003C690 f
_Z14baseID_DieFallI5dEn_cERK12sStateIDIf_cv 0x8003C6F0 f
_Z12baseID_CarryI11daEnCarry_cERK12sStateIDIf_cv 0x8003C700 f
_ZNK18sFStateVirtualID_cI11daEnShell_cE6numberEv 0x8003C710 f
_ZNK18sFStateVirtualID_cI11daEnShell_cE7superIDEv 0x8003C7F0 f
_ZNK11sFStateID_cI11daEnShell_cE10isSameNameEPKc 0x8003C8D0 f
_ZNK11sFStateID_cI11daEnShell_cE15initializeStateER11daEnShell_c 0x8003C960 f
_ZNK11sFStateID_cI11daEnShell_cE12executeStateER11daEnShell_c 0x8003C990 f
_ZNK11sFStateID_cI11daEnShell_cE13finalizeStateER11daEnShell_c 0x8003C9C0 f
_Z13baseID_GoWaitI10sStateID_cERK12sStateIDIf_cv 0x8003C9F0 f
_Z13baseID_GoMoveI10sStateID_cERK12sStateIDIf_cv 0x8003CA00 f
_Z14baseID_RetWaitI10sStateID_cERK12sStateIDIf_cv 0x8003CA10 f
_Z14baseID_RetMoveI10sStateID_cERK12sStateIDIf_cv 0x8003CA20 f
_ZN18daEnSuperBigPile_c6createEv 0x8003CA30     f
_ZN18daEnSuperBigPile_c10initializeEv 0x8003CB00 f
_ZN18daEnSuperBigPile_c9createMdlEv 0x8003CB10  f
_ZN18daEnSuperBigPile_c7executeEv 0x8003CCC0    f
_ZN18daEnSuperBigPile_c12isEffectCallEv 0x8003CD40 f
_ZN18daEnSuperBigPile_c9setCcInfoEv 0x8003CD50  f
_ZN18daEnSuperBigPile_c4drawEv  0x8003CD60      f
_ZN18daEnSuperBigPile_c11deleteReadyEv 0x8003CD90 f
_ZN18daEnSuperBigPile_c8doDeleteEv 0x8003CDA0   f
_ZN18daEnSuperBigPile_c11postExecuteEN7fBase_c12MAIN_STATE_eE 0x8003CDD0 f
_ZN18daEnSuperBigPile_c7calcMdlEv 0x8003CE20    f
_ZN18daEnSuperBigPile_c12setTexRotateEv 0x8003CF10 f
_ZN18daEnSuperBigPile_c10getDrawPosEv 0x8003CF20 f
_ZN18daEnSuperBigPile_c7rollingEv 0x8003CF40    f
_ZN18daEnSuperBigPile_c11getMoveDistEv 0x8003CFF0 f
_ZNK18daEnSuperBigPile_c19getDefaultRollSpeedEv 0x8003D000 f
_ZN18daEnSuperBigPile_c13calcFallSpeedEv 0x8003D010 f
_ZN18daEnSuperBigPile_c13calcRiseSpeedEv 0x8003D030 f
_ZN18daEnSuperBigPile_c13PlDamageCheckEP5dCc_cP5dCc_c 0x8003D050 f
_ZN18daEnSuperBigPile_c14EtcDamageCheckEP5dCc_cP5dCc_c 0x8003D060 f
_ZN18daEnSuperBigPile_c16hitCallback_FireEP5dCc_cP5dCc_c 0x8003D110 f
_ZN18daEnSuperBigPile_c15hitCallback_IceEP5dCc_cP5dCc_c 0x8003D140 f
_ZN18daEnSuperBigPile_c8setQuakeEv 0x8003D170   f
_ZN18daEnSuperBigPile_c10fallDownSEEv 0x8003D190 f
_ZN18daEnSuperBigPile_c11crashEffectEv 0x8003D200 f
_ZN18daEnSuperBigPile_c22initializeState_GoWaitEv 0x8003D250 f
_ZN18daEnSuperBigPile_c8riseUpSEEv 0x8003D270   f
_ZN18daEnSuperBigPile_c20finalizeState_GoWaitEv 0x8003D280 f
_ZN18daEnSuperBigPile_c19executeState_GoWaitEv 0x8003D290 f
_ZN18daEnSuperBigPile_c22initializeState_GoMoveEv 0x8003D2C0 f
_ZN18daEnSuperBigPile_c20finalizeState_GoMoveEv 0x8003D2D0 f
_ZN18daEnSuperBigPile_c19executeState_GoMoveEv 0x8003D2E0 f
_ZN18daEnSuperBigPile_c23initializeState_RetWaitEv 0x8003D2F0 f
_ZN18daEnSuperBigPile_c21finalizeState_RetWaitEv 0x8003D370 f
_ZN18daEnSuperBigPile_c20executeState_RetWaitEv 0x8003D380 f
_ZN18daEnSuperBigPile_c23initializeState_RetMoveEv 0x8003D3B0 f
_ZN18daEnSuperBigPile_c21finalizeState_RetMoveEv 0x8003D3C0 f
_ZN18daEnSuperBigPile_c20executeState_RetMoveEv 0x8003D3D0 f
_ZN18daEnSuperBigPile_c10getCamDistEv 0x8003D3E0 f
_ZN18daEnSuperBigPile_c16YoshiDamageCheckEP5dCc_cP5dCc_c 0x8003D3F0 f
_ZN18daEnSuperBigPile_c13EnDamageCheckEP5dCc_cP5dCc_c 0x8003D400 f
_ZN18daEnSuperBigPile_cD0Ev     0x8003D410      f
__sinit_\d_a_en_super_bigpile_cpp 0x8003D4B0    f
_ZN11sFStateID_cI18daEnSuperBigPile_cED0Ev 0x8003D830 f
_ZN18sFStateVirtualID_cI18daEnSuperBigPile_cED0Ev 0x8003D890 f
_ZNK18sFStateVirtualID_cI18daEnSuperBigPile_cE6numberEv 0x8003D8F0 f
_ZNK18sFStateVirtualID_cI18daEnSuperBigPile_cE7superIDEv 0x8003D9D0 f
_ZNK11sFStateID_cI18daEnSuperBigPile_cE10isSameNameEPKc 0x8003DAB0 f
_ZNK11sFStateID_cI18daEnSuperBigPile_cE15initializeStateER18daEnSuperBigPile_c 0x8003DB40 f
_ZNK11sFStateID_cI18daEnSuperBigPile_cE12executeStateER18daEnSuperBigPile_c 0x8003DB70 f
_ZNK11sFStateID_cI18daEnSuperBigPile_cE13finalizeStateER18daEnSuperBigPile_c 0x8003DBA0 f
_ZN16daEnTogezoBase_c6createEv  0x8003DBD0      f
_ZN16daEnTogezoBase_c10initializeEv 0x8003DCC0  f
_ZN16daEnTogezoBase_c11createModelEv 0x8003DCD0 f
_ZN16daEnTogezoBase_c7executeEv 0x8003DE00      f
_ZN16daEnTogezoBase_c13isCullCheckOkEv 0x8003DEF0 f
_ZN16daEnTogezoBase_c4drawEv    0x8003DF00      f
_ZN16daEnTogezoBase_c7calcMdlEv 0x8003DF50      f
_ZN16daEnTogezoBase_c12calcCatchPosEv 0x8003DFC0 f
_ZN16daEnTogezoBase_c12calcPaipoMdlEv 0x8003DFD0 f
_ZN16daEnTogezoBase_c13calcTogezoMdlEv 0x8003E0D0 f
_ZN16daEnTogezoBase_c10drawTogezoEv 0x8003E210  f
_ZN16daEnTogezoBase_c9drawPaipoEv 0x8003E220    f
_ZN16daEnTogezoBase_c11deleteReadyEv 0x8003E230 f
_ZN16daEnTogezoBase_c8doDeleteEv 0x8003E240     f
_ZN16daEnTogezoBase_c18setAfterSleepStateEv 0x8003E2C0 f
_ZN16daEnTogezoBase_c15specialFumiProcEP8dActor_c 0x8003E2F0 f
_ZN16daEnTogezoBase_c21specialFumiProc_YoshiEP8dActor_c 0x8003E340 f
_ZN16daEnTogezoBase_c10checkRyusaEv 0x8003E350  f
_ZN16daEnTogezoBase_c11ryusaEffectEv 0x8003E3E0 f
_ZN16daEnTogezoBase_c15setPlayerDamageEP8dActor_c 0x8003E460 f
_ZN16daEnTogezoBase_c8turnProcEv 0x8003E530     f
_ZN16daEnTogezoBase_c13setEatSpitOutEP8dActor_c 0x8003E5C0 f
_ZN16daEnTogezoBase_c14createIceActorEv 0x8003E6E0 f
_ZN16daEnTogezoBase_c11pipoRollingEv 0x8003E850 f
_ZN16daEnTogezoBase_c13pipoWallBoundEv 0x8003E900 f
_ZN16daEnTogezoBase_c14block_hit_initEv 0x8003E940 f
_ZNK16daEnTogezoBase_c15isBlockHitDeathEv 0x8003EB00 f
_ZN16daEnTogezoBase_c10isDieShellEv 0x8003EB30  f
_ZN16daEnTogezoBase_c12landonEffectEf 0x8003EB50 f
_ZN16daEnTogezoBase_c23initializeState_DieFallEv 0x8003EC40 f
_ZN16daEnTogezoBase_c21finalizeState_DieFallEv 0x8003EC80 f
_ZN16daEnTogezoBase_c20executeState_DieFallEv 0x8003EC90 f
_ZN16daEnTogezoBase_c20initializeState_PipoEv 0x8003ED70 f
_ZN16daEnTogezoBase_c18finalizeState_PipoEv 0x8003EDB0 f
_ZN16daEnTogezoBase_c17executeState_PipoEv 0x8003EDD0 f
_ZN16daEnTogezoBase_c20initializeState_WalkEv 0x8003F010 f
_ZN16daEnTogezoBase_c18finalizeState_WalkEv 0x8003F170 f
_ZN16daEnTogezoBase_c17executeState_WalkEv 0x8003F180 f
_ZN16daEnTogezoBase_c20initializeState_TurnEv 0x8003F360 f
_ZN16daEnTogezoBase_c18finalizeState_TurnEv 0x8003F420 f
_ZN16daEnTogezoBase_c17executeState_TurnEv 0x8003F430 f
_ZN16daEnTogezoBase_c27initializeState_Change_PipoEv 0x8003F530 f
_ZN16daEnTogezoBase_c25finalizeState_Change_PipoEv 0x8003F550 f
_ZN16daEnTogezoBase_c24executeState_Change_PipoEv 0x8003F5E0 f
_ZN16daEnTogezoBase_c29initializeState_Change_TogezoEv 0x8003F6B0 f
_ZN16daEnTogezoBase_c27finalizeState_Change_TogezoEv 0x8003F7B0 f
_ZN16daEnTogezoBase_c26executeState_Change_TogezoEv 0x8003F7D0 f
_ZN16daEnTogezoBase_c22initializeState_WakeupEv 0x8003F8B0 f
_ZN16daEnTogezoBase_c20finalizeState_WakeupEv 0x8003F8C0 f
_ZN16daEnTogezoBase_c19executeState_WakeupEv 0x8003F8D0 f
_ZN16daEnTogezoBase_c26initializeState_WakeupTurnEv 0x8003F920 f
_ZN16daEnTogezoBase_c24finalizeState_WakeupTurnEv 0x8003F990 f
_ZN16daEnTogezoBase_c23executeState_WakeupTurnEv 0x8003F9A0 f
_ZN16daEnTogezoBase_c29initializeState_WakeupReverseEv 0x8003F9F0 f
_ZN16daEnTogezoBase_c27finalizeState_WakeupReverseEv 0x8003FB00 f
_ZN16daEnTogezoBase_c26executeState_WakeupReverseEv 0x8003FB10 f
_ZN16daEnTogezoBase_c12setEnemyTurnEv 0x8003FC90 f
_ZNK16daEnTogezoBase_c13isFumiInvalidEv 0x8003FD10 f
_ZN16daEnTogezoBase_c11finalUpdateEv 0x8003FD20 f
_ZN16daEnTogezoBase_c16hitCallback_SlipEP5dCc_cP5dCc_c 0x8003FD30 f
_ZN16daEnTogezoBase_cD0Ev       0x8003FD40      f
__sinit_\d_a_en_togezo_base_cpp 0x8003FE10      f
_ZN11sFStateID_cI16daEnTogezoBase_cED0Ev 0x80040540 f
_ZN18sFStateVirtualID_cI16daEnTogezoBase_cED0Ev 0x800405A0 f
_Z20baseID_WakeupReverseI11daEnShell_cERK12sStateIDIf_cv 0x80040600 f
_Z17baseID_WakeupTurnI11daEnShell_cERK12sStateIDIf_cv 0x80040610 f
_Z13baseID_WakeupI11daEnShell_cERK12sStateIDIf_cv 0x80040620 f
_Z14baseID_DieFallI11daEnShell_cERK12sStateIDIf_cv 0x80040630 f
_ZNK18sFStateVirtualID_cI16daEnTogezoBase_cE6numberEv 0x80040640 f
_ZNK18sFStateVirtualID_cI16daEnTogezoBase_cE7superIDEv 0x80040720 f
_ZNK11sFStateID_cI16daEnTogezoBase_cE10isSameNameEPKc 0x80040800 f
_ZNK11sFStateID_cI16daEnTogezoBase_cE15initializeStateER16daEnTogezoBase_c 0x80040890 f
_ZNK11sFStateID_cI16daEnTogezoBase_cE12executeStateER16daEnTogezoBase_c 0x800408C0 f
_ZNK11sFStateID_cI16daEnTogezoBase_cE13finalizeStateER16daEnTogezoBase_c 0x800408F0 f
_Z11baseID_MoveI10sStateID_cERK12sStateIDIf_cv 0x80040920 f
_Z11baseID_KillI10sStateID_cERK12sStateIDIf_cv 0x80040930 f
_Z12baseID_EatInI10sStateID_cERK12sStateIDIf_cv 0x80040940 f
_Z13baseID_EatNowI10sStateID_cERK12sStateIDIf_cv 0x80040950 f
_ZN17daFireBall_Base_c6createEv 0x80040960      f
_ZN17daFireBall_Base_c11createCheckEv 0x80040AD0 f
_ZN17daFireBall_Base_c10initializeEv 0x80040AE0 f
_ZN17daFireBall_Base_c5setCcEv  0x80040AF0      f
_ZN17daFireBall_Base_c10preExecuteEv 0x80040B00 f
_ZNK11sStateMgr_cI13dActorState_c20sStateMethodUsr_FI_c12sFStateFct_c13sStateIDChk_cE10getStateIDEv 0x80040BC0 f
_ZN17daFireBall_Base_c7executeEv 0x80040BD0     f
_ZN17daFireBall_Base_c7chgZposEv 0x80040D70     f
_ZN17daFireBall_Base_c10fireEffectEv 0x80040D80 f
_ZN17daFireBall_Base_c4drawEv   0x80040D90      f
_ZN17daFireBall_Base_c11deleteReadyEv 0x80040DC0 f
_ZN17daFireBall_Base_c8doDeleteEv 0x80040DD0    f
_ZN17daFireBall_Base_c9cullCheckEv 0x80040DE0   f
_ZN17daFireBall_Base_c5setBcEv  0x80040E70      f
_ZN17daFireBall_Base_c4killEv   0x80040EC0      f
_ZN17daFireBall_Base_c12setEatTongueEP8dActor_c 0x80040F10 f
_ZN17daFireBall_Base_c9lightProcEv 0x80040F70   f
_ZNK17daFireBall_Base_c11getLightRadEv 0x80040FF0 f
_ZN17daFireBall_Base_c11beginSplashEf 0x80041000 f
_ZN17daFireBall_Base_c16beginYoganSplashEf 0x800410F0 f
_ZN17daFireBall_Base_c17beginPoisonSplashEf 0x800411D0 f
_ZN17daFireBall_Base_c20initializeState_MoveEv 0x800412B0 f
_ZN17daFireBall_Base_c18finalizeState_MoveEv 0x800412C0 f
_ZN17daFireBall_Base_c17executeState_MoveEv 0x800412D0 f
_ZN17daFireBall_Base_c21initializeState_EatInEv 0x800412E0 f
_ZN17daFireBall_Base_c19finalizeState_EatInEv 0x800412F0 f
_ZN17daFireBall_Base_c18executeState_EatInEv 0x80041300 f
_ZN17daFireBall_Base_c22initializeState_EatNowEv 0x80041330 f
_ZN17daFireBall_Base_c20finalizeState_EatNowEv 0x80041340 f
_ZN17daFireBall_Base_c19executeState_EatNowEv 0x80041350 f
_ZN17daFireBall_Base_c20initializeState_KillEv 0x80041360 f
_ZN17daFireBall_Base_c18finalizeState_KillEv 0x800413A0 f
_ZN17daFireBall_Base_c17executeState_KillEv 0x800413B0 f
_ZN17daFireBall_Base_c13retireHIOnodeEv 0x800413D0 f
_ZN17daFireBall_Base_c12entryHIOnodeEv 0x800413E0 f
_ZN17daFireBall_Base_c15setEatTongueOffEP8dActor_c 0x800413F0 f
_ZN17daFireBall_Base_cD0Ev      0x80041400      f
_ZN18dCircleLightMask_cD0Ev     0x800414A0      f
__sinit_\d_a_fireball_base_cpp  0x800414E0      f
_ZN11sFStateID_cI17daFireBall_Base_cED0Ev 0x80041860 f
_ZN18sFStateVirtualID_cI17daFireBall_Base_cED0Ev 0x800418C0 f
_ZNK18sFStateVirtualID_cI17daFireBall_Base_cE6numberEv 0x80041920 f
_ZNK18sFStateVirtualID_cI17daFireBall_Base_cE7superIDEv 0x80041A00 f
_ZNK11sFStateID_cI17daFireBall_Base_cE10isSameNameEPKc 0x80041AE0 f
_ZNK11sFStateID_cI17daFireBall_Base_cE15initializeStateER17daFireBall_Base_c 0x80041B70 f
_ZNK11sFStateID_cI17daFireBall_Base_cE12executeStateER17daFireBall_Base_c 0x80041BA0 f
_ZNK11sFStateID_cI17daFireBall_Base_cE13finalizeStateER17daFireBall_Base_c 0x80041BD0 f
_ZN12daFlyDokan_c6createEv      0x80041C00      f
_ZN12daFlyDokan_c9createMdlEv   0x80041D40      f
_ZN12daFlyDokan_c7executeEv     0x80041EC0      f
_ZN12daFlyDokan_c4drawEv        0x80041F00      f
_ZN12daFlyDokan_c11deleteReadyEv 0x800422A0     f
_ZN12daFlyDokan_c8doDeleteEv    0x800422B0      f
_ZN12daFlyDokan_c3flyEv         0x80042350      f
_ZN12daFlyDokan_c13calcMoveSpeedEv 0x800423C0   f
_ZN12daFlyDokan_c12loadBreakMdlEv 0x800423D0    f
_ZN12daFlyDokan_cD0Ev           0x800423E0      f
_ZN17daIceAshibaBase_c9callBackFEP8dActor_cP8dActor_c 0x80042480 f
_ZN17daIceAshibaBase_c9callBackHEP8dActor_cP8dActor_c 0x80042500 f
_ZN17daIceAshibaBase_c9callBackWEP8dActor_cP8dActor_ch 0x80042550 f
_ZN17daIceAshibaBase_c12checkRevFootEP8dActor_cP8dActor_c 0x800425D0 f
_ZN17daIceAshibaBase_c12checkRevHeadEP8dActor_cP8dActor_c 0x800425F0 f
_ZN17daIceAshibaBase_c12checkRevWallEP8dActor_cP8dActor_ch 0x80042610 f
_ZN17daIceAshibaBase_c9createMdlEPKc 0x80042650 f
_ZN17daIceAshibaBase_c6createEv 0x80042700      f
_ZN17daIceAshibaBase_c7executeEv 0x80042870     f
_ZN17daIceAshibaBase_c4drawEv   0x800428C0      f
_ZN17daIceAshibaBase_c8doDeleteEv 0x80042970    f
_ZN17daIceAshibaBase_c4initEff  0x800429C0      f
_ZN17daIceAshibaBase_c4moveEv   0x800429D0      f
_ZN17daIceAshibaBase_c4quitEv   0x800429E0      f
_ZN17daIceAshibaBase_cD0Ev      0x800429F0      f
_ZN17daKawanagareObj_c6createEv 0x80042A70      f
_ZN17daKawanagareObj_c7executeEv 0x80042AA0     f
_ZN17daKawanagareObj_c4drawEv   0x80042AB0      f
_ZN17daKawanagareObj_c11deleteReadyEv 0x80042AC0 f
_ZN17daKawanagareObj_c8doDeleteEv 0x80042AD0    f
_Z11baseID_WaitI10sStateID_cERK12sStateIDIf_cv 0x80042AE0 f
_Z9baseID_GoI10sStateID_cERK12sStateIDIf_cv 0x80042AF0 f
_Z13baseID_ReturnI10sStateID_cERK12sStateIDIf_cv 0x80042B00 f
_Z22baseID_WaitMoveForeverI10sStateID_cERK12sStateIDIf_cv 0x80042B10 f
_Z18baseID_MoveForeverI10sStateID_cERK12sStateIDIf_cv 0x80042B20 f
_Z19baseID_StillForeverI10sStateID_cERK12sStateIDIf_cv 0x80042B30 f
_ZN18daLiftDownOnBase_c6createEv 0x80042B40     f
_ZN18daLiftDownOnBase_c20initializeState_WaitEv 0x80042C70 f
_ZN18daLiftDownOnBase_c18finalizeState_WaitEv 0x80042C80 f
_ZN18daLiftDownOnBase_c17executeState_WaitEv 0x80042C90 f
_ZN18daLiftDownOnBase_c18initializeState_GoEv 0x80042CC0 f
_ZN18daLiftDownOnBase_c16finalizeState_GoEv 0x80042CD0 f
_ZN18daLiftDownOnBase_c15executeState_GoEv 0x80042CE0 f
_ZN18daLiftDownOnBase_c22initializeState_ReturnEv 0x80042D40 f
_ZN18daLiftDownOnBase_c20finalizeState_ReturnEv 0x80042D50 f
_ZN18daLiftDownOnBase_c19executeState_ReturnEv 0x80042D60 f
_ZN18daLiftDownOnBase_c31initializeState_WaitMoveForeverEv 0x80042E10 f
_ZN18daLiftDownOnBase_c29finalizeState_WaitMoveForeverEv 0x80042E20 f
_ZN18daLiftDownOnBase_c28executeState_WaitMoveForeverEv 0x80042E30 f
_ZN18daLiftDownOnBase_c27initializeState_MoveForeverEv 0x80042E60 f
_ZN18daLiftDownOnBase_c25finalizeState_MoveForeverEv 0x80042E70 f
_ZN18daLiftDownOnBase_c24executeState_MoveForeverEv 0x80042E80 f
_ZN18daLiftDownOnBase_c28initializeState_StillForeverEv 0x80042E90 f
_ZN18daLiftDownOnBase_c26finalizeState_StillForeverEv 0x80042EA0 f
_ZN18daLiftDownOnBase_c25executeState_StillForeverEv 0x80042EB0 f
_ZN18daLiftDownOnBase_cD0Ev     0x80042EC0      f
__sinit_\d_a_lift_down_on_base_cpp 0x80042F20   f
_ZN11sFStateID_cI18daLiftDownOnBase_cED0Ev 0x80043430 f
_ZN18sFStateVirtualID_cI18daLiftDownOnBase_cED0Ev 0x80043490 f
_ZNK18sFStateVirtualID_cI18daLiftDownOnBase_cE6numberEv 0x800434F0 f
_ZNK18sFStateVirtualID_cI18daLiftDownOnBase_cE7superIDEv 0x800435D0 f
_ZNK11sFStateID_cI18daLiftDownOnBase_cE10isSameNameEPKc 0x800436B0 f
_ZNK11sFStateID_cI18daLiftDownOnBase_cE15initializeStateER18daLiftDownOnBase_c 0x80043740 f
_ZNK11sFStateID_cI18daLiftDownOnBase_cE12executeStateER18daLiftDownOnBase_c 0x80043770 f
_ZNK11sFStateID_cI18daLiftDownOnBase_cE13finalizeStateER18daLiftDownOnBase_c 0x800437A0 f
_ZN12daLiftMain_c15RideLiftInitSetER7mVec3_cRf 0x800437D0 f
_ZN12daLiftMain_c8calcLavaEff   0x80043820      f
_ZN19daLiftRemoconMain_c20MultiRemoconShockSetEh 0x800439B0 f
_ZNK19daLiftRemoconMain_c21RidePlayerCancelCheckEa 0x80043A30 f
_ZN19daLiftRemoconMain_c17PlayerNoRideClearEv 0x80043CA0 f
hash_DC66A128_E8554526          0x80043CD0      f
_ZN19daLiftRemoconMain_c17PlayerNoRideEntryEh 0x80043DA0 f
_ZN19daLiftRemoconMain_c16PlayerNoRideSortEi 0x80043E60 f
_ZN19daLiftRemoconMain_c18PlayerNoRideDeleteEh 0x80043EB0 f
_ZN19daLiftRemoconMain_c17PlayerNoEntryHeadEh 0x80043F10 f
_ZN19daLiftRemoconMain_c17PlayerNoRideCheckEh 0x800440C0 f
_ZN19daLiftRemoconMain_c15PlayerRideCheckERa 0x800441E0 f
_ZN19daLiftRemoconMain_cD0Ev    0x80044390      f
_ZN11dRideRoll_cD0Ev            0x80044400      f
_ZN12daMovePipe_c9createMdlEv   0x80044460      f
_ZN12daMovePipe_c14make_line_dataEv 0x80044550  f
_ZN12daMovePipe_c6createEv      0x80044760      f
_ZN12daMovePipe_c4drawEv        0x800447C0      f
_ZN12daMovePipe_c8doDeleteEv    0x80044850      f
_ZN12daMovePipe_cD0Ev           0x800448A0      f
__sinit_\d_a_move_pipe_cpp      0x80044920      f
_Z14baseID_NetWaitI10sStateID_cERK12sStateIDIf_cv 0x80044940 f
_Z14baseID_NetMoveI10sStateID_cERK12sStateIDIf_cv 0x80044950 f
_ZN12daNetEnemy_c7executeEv     0x80044960      f
_ZN12daNetEnemy_c7calcMdlEv     0x80044AB0      f
_ZN12daNetEnemy_c11setWireTurnEi 0x80044AC0     f
_ZN12daNetEnemy_c23initializeState_NetWaitEv 0x80044AD0 f
_ZN12daNetEnemy_c21finalizeState_NetWaitEv 0x80044AE0 f
_ZN12daNetEnemy_c20executeState_NetWaitEv 0x80044AF0 f
_ZN12daNetEnemy_c7mdlPlayEv     0x80044B70      f
_ZN12daNetEnemy_c23initializeState_NetMoveEv 0x80044B80 f
_ZN12daNetEnemy_c21finalizeState_NetMoveEv 0x80044B90 f
_ZN12daNetEnemy_c20executeState_NetMoveEv 0x80044BF0 f
__sinit_\d_a_net_enemy_cpp      0x80044C70      f
_ZN11sFStateID_cI12daNetEnemy_cED0Ev 0x80044E50 f
_ZN18sFStateVirtualID_cI12daNetEnemy_cED0Ev 0x80044EB0 f
_ZNK18sFStateVirtualID_cI12daNetEnemy_cE6numberEv 0x80044F10 f
_ZNK18sFStateVirtualID_cI12daNetEnemy_cE7superIDEv 0x80044FF0 f
_ZNK11sFStateID_cI12daNetEnemy_cE10isSameNameEPKc 0x800450D0 f
_ZNK11sFStateID_cI12daNetEnemy_cE15initializeStateER12daNetEnemy_c 0x80045160 f
_ZNK11sFStateID_cI12daNetEnemy_cE12executeStateER12daNetEnemy_c 0x80045190 f
_ZNK11sFStateID_cI12daNetEnemy_cE13finalizeStateER12daNetEnemy_c 0x800451C0 f
_ZN17daObjMoveOnBase_c9callBackFEP8dActor_cP8dActor_c 0x800451F0 f
_ZN17daObjMoveOnBase_c9callBackHEP8dActor_cP8dActor_c 0x80045270 f
_ZN17daObjMoveOnBase_c9callBackWEP8dActor_cP8dActor_ch 0x800452E0 f
_ZN17daObjMoveOnBase_c12checkRevFootEP8dActor_cP8dActor_c 0x80045380 f
_ZN17daObjMoveOnBase_c12checkRevHeadEP8dActor_cP8dActor_c 0x800453B0 f
_ZN17daObjMoveOnBase_c12checkRevWallEP8dActor_cP8dActor_ch 0x800453E0 f
_ZN17daObjMoveOnBase_c7executeEv 0x80045450     f
_ZN17daObjMoveOnBase_c8doDeleteEv 0x80045490    f
_ZN17daObjMoveOnBase_c20setObjBgInfoCallBackER10sBgSetInfo 0x800454C0 f
_ZN17daObjMoveOnBase_c19setCheckRevCallBackEv 0x800454F0 f
_ZN17daObjMoveOnBase_cD0Ev      0x80045520      f
hash_EB707AB1_4EDC9E62          0x80045590      f
_ZN11daObjPipe_c7executeEv      0x80045600      f
_ZN15daObjPipeBase_cD0Ev        0x80045650      f
_ZN15daObjPipeBase_c9createMdlEf 0x80045710     f
_ZN15daObjPipeBase_c10calc_scaleEv 0x800459F0   f
hash_EFA42B69_2145E248          0x80045A10      f
_ZN15daObjPipeBase_c7executeEv  0x80045B10      f
_ZN15daObjPipeBase_c4drawEv     0x80045B50      f
_ZN15daObjPipeBase_c8doDeleteEv 0x80045CD0      f
_ZN15daObjPipeBase_c14calcDownLengthEf 0x80045D00 f
_ZN20daObjSpinChildBase_c9callBackFEP8dActor_cP8dActor_c 0x80045D20 f
_ZN20daObjSpinChildBase_c9callBackHEP8dActor_cP8dActor_c 0x80045D80 f
_ZN20daObjSpinChildBase_c9callBackWEP8dActor_cP8dActor_ch 0x80045DE0 f
_ZN20daObjSpinChildBase_c12checkRevFootEP8dActor_cP8dActor_c 0x80045E70 f
_ZN20daObjSpinChildBase_c12checkRevHeadEP8dActor_cP8dActor_c 0x80045E90 f
_ZN20daObjSpinChildBase_c12checkRevWallEP8dActor_cP8dActor_ch 0x80045EB0 f
_ZN20daObjSpinChildBase_c8doDeleteEv 0x80045EF0 f
_ZN20daObjSpinChildBase_c9init_moveEv 0x80045F20 f
_ZN20daObjSpinChildBase_c18post_execute_stateEv 0x80045F30 f
_ZN20daObjSpinChildBase_c11obj_bg_initERK7mVec2_cRK7mVec2_c 0x80045F40 f
_ZN20daObjSpinChildBase_cD0Ev   0x80046000      f
_ZN17daSpinChildBase_cD0Ev      0x80046070      f
_ZN10daPlBase_cC1Ev             0x800460D0      f
_ZN3dEf14followEffect_cD0Ev     0x80046410      f
_ZN11NMSndObjectIXLi4EEE14SoundHandlePrmC1Ev 0x80046470 f
_ZN11NMSndObjectIXLi4EEE14SoundHandlePrmD0Ev 0x80046490 f
_ZN11NMSndObjectIXLi4EEED0Ev    0x800464F0      f
_ZN6dAudio17SndObjctPlyBase_cD0Ev 0x80046570    f
_ZN6dAudio13SndObjctPly_cD0Ev   0x800465F0      f
_ZN9sFState_cI10daPlBase_cED0Ev 0x80046670      f
_ZN12sFStateFct_cI10daPlBase_cED0Ev 0x800466B0  f
_ZN11sStateMgr_cI10daPlBase_c20sStateMethodUsr_FI_c12sFStateFct_c13sStateIDChk_cED0Ev 0x800466F0 f
_ZN12sFStateMgr_cI10daPlBase_c20sStateMethodUsr_FI_cED0Ev 0x80046750 f
_ZN10daPlBase_cD0Ev             0x800467C0      f
_ZN10daPlBase_c6createEv        0x80046A50      f
_ZN10daPlBase_c10preExecuteEv   0x80046AB0      f
_ZN10daPlBase_c7executeEv       0x80046BB0      f
_ZN10daPlBase_c11executeMainEv  0x80046DF0      f
_ZN11NMSndObjectIXLi4EEE4calcERKN4nw4r4math4VEC2E 0x80046E00 f
_ZN10daPlBase_c11postExecuteEN7fBase_c12MAIN_STATE_eE 0x80046FC0 f
_ZN10daPlBase_c8doDeleteEv      0x80047190      f
_ZN11sStateMgr_cI10daPlBase_c20sStateMethodUsr_FI_c12sFStateFct_c13sStateIDChk_cE13finalizeStateEv 0x800471E0 f
_ZN10daPlBase_c7preDrawEv       0x800471F0      f
_ZN10daPlBase_c4drawEv          0x80047260      f
_Z11baseID_NoneI10sStateID_cERK12sStateIDIf_cv 0x80047270 f
_Z11baseID_WalkI10sStateID_cERK12sStateIDIf_cv 0x80047280 f
_Z11baseID_JumpI10sStateID_cERK12sStateIDIf_cv 0x80047290 f
_Z14baseID_SitJumpI10sStateID_cERK12sStateIDIf_cv 0x800472A0 f
_Z11baseID_FallI10sStateID_cERK12sStateIDIf_cv 0x800472B0 f
_Z11baseID_LandI10sStateID_cERK12sStateIDIf_cv 0x800472C0 f
_Z13baseID_CrouchI10sStateID_cERK12sStateIDIf_cv 0x800472D0 f
_Z11baseID_SlipI10sStateID_cERK12sStateIDIf_cv 0x800472E0 f
_Z11baseID_TurnI10sStateID_cERK12sStateIDIf_cv 0x800472F0 f
_Z16baseID_HipAttackI10sStateID_cERK12sStateIDIf_cv 0x80047300 f
_Z11baseID_SwimI10sStateID_cERK12sStateIDIf_cv 0x80047310 f
_Z14baseID_JumpDaiI10sStateID_cERK12sStateIDIf_cv 0x80047320 f
_Z20baseID_PlayerJumpDaiI10sStateID_cERK12sStateIDIf_cv 0x80047330 f
_Z13baseID_FunsuiI10sStateID_cERK12sStateIDIf_cv 0x80047340 f
_Z11baseID_KaniI10sStateID_cERK12sStateIDIf_cv 0x80047350 f
_Z12baseID_CloudI10sStateID_cERK12sStateIDIf_cv 0x80047360 f
_Z16baseID_AnimePlayI10sStateID_cERK12sStateIDIf_cv 0x80047370 f
_Z15baseID_WaitJumpI10sStateID_cERK12sStateIDIf_cv 0x80047380 f
_ZN10daPlBase_c11changeStateERK12sStateIDIf_cPv 0x80047390 f
_ZN11sStateMgr_cI10daPlBase_c20sStateMethodUsr_FI_c12sFStateFct_c13sStateIDChk_cE11changeStateERK12sStateIDIf_c 0x80047430 f
_ZN10daPlBase_c12executeStateEv 0x80047440      f
_ZN11sStateMgr_cI10daPlBase_c20sStateMethodUsr_FI_c12sFStateFct_c13sStateIDChk_cE12executeStateEv 0x80047470 f
_ZN10daPlBase_c12getMukiAngleEh 0x80047480      f
_ZN10daPlBase_c9turnAngleEv     0x80047490      f
_ZN10daPlBase_c13addCalcAngleYEss 0x800474E0    f
_ZN10daPlBase_c18getBesideMukiAngleEh 0x80047520 f
_ZN10daPlBase_c15turnBesideAngleEv 0x80047530   f
_ZN10daPlBase_c14checkRideActorEP10daPlBase_c 0x80047580 f
_ZN10daPlBase_c20initializeState_NoneEv 0x800475B0 f
_ZN10daPlBase_c18finalizeState_NoneEv 0x800475C0 f
_ZN10daPlBase_c17executeState_NoneEv 0x800475D0 f
_ZN10daPlBase_c16setWaitActionAnmEN10daPlBase_c10AnmBlend_eE 0x800475E0 f
_ZN10daPlBase_c16setWalkActionAnmEN10daPlBase_c10AnmBlend_eE 0x800475F0 f
_ZN10daPlBase_c19walkActionInit_WaitEN10daPlBase_c10AnmBlend_eE 0x80047600 f
_ZN10daPlBase_c15walkAction_WaitEv 0x80047610   f
_ZN10daPlBase_c19walkActionInit_MoveEN10daPlBase_c10AnmBlend_eE 0x80047620 f
_ZN10daPlBase_c15walkAction_MoveEv 0x80047630   f
_ZN10daPlBase_c20initializeState_WalkEv 0x80047790 f
_ZN10daPlBase_c18finalizeState_WalkEv 0x800477A0 f
_ZN10daPlBase_c17executeState_WalkEv 0x800477B0 f
_ZN10daPlBase_c18calcSpeedOnIceLiftEv 0x80047800 f
_ZN10daPlBase_c16calcAccOnIceLiftEv 0x80047920  f
_ZN10daPlBase_c20initializeState_JumpEv 0x800479A0 f
_ZN10daPlBase_c18finalizeState_JumpEv 0x80047A00 f
_ZN10daPlBase_c17executeState_JumpEv 0x80047AC0 f
_ZN10daPlBase_c13setCrouchJumpEv 0x80047B70     f
_ZN10daPlBase_c23initializeState_SitJumpEv 0x80047BE0 f
_ZN10daPlBase_c21finalizeState_SitJumpEv 0x80047BF0 f
_ZN10daPlBase_c20executeState_SitJumpEv 0x80047C00 f
_ZN10daPlBase_c13setFallActionEv 0x80047C10     f
_ZN10daPlBase_c20initializeState_FallEv 0x80047C40 f
_ZN10daPlBase_c18finalizeState_FallEv 0x80047D10 f
_ZN10daPlBase_c17executeState_FallEv 0x80047D60 f
_ZN10daPlBase_c20initializeState_LandEv 0x80047D80 f
_ZN10daPlBase_c18finalizeState_LandEv 0x80047D90 f
_ZN10daPlBase_c17executeState_LandEv 0x80047DA0 f
_ZN10daPlBase_c11checkCrouchEv  0x80047DB0      f
_ZN10daPlBase_c15setCancelCrouchEv 0x80047DC0   f
_ZN10daPlBase_c22checkStandUpRoofOnLiftEv 0x80047EE0 f
_ZN10daPlBase_c16checkStandUpRoofEv 0x80047F10  f
_ZN10daPlBase_c18getHeadBgPointDataEv 0x80048080 f
_ZN10daPlBase_c20getStandHeadBgPointYEv 0x80048090 f
_ZN10daPlBase_c22initializeState_CrouchEv 0x800480A0 f
_ZN10daPlBase_c20finalizeState_CrouchEv 0x800480B0 f
_ZN10daPlBase_c19executeState_CrouchEv 0x800480C0 f
_ZN10daPlBase_c20initializeState_SlipEv 0x800480D0 f
_ZN10daPlBase_c18finalizeState_SlipEv 0x80048170 f
_ZN10daPlBase_c17executeState_SlipEv 0x800481C0 f
_ZN4sLib9calcTimerIaEEaPa       0x800483F0      f
_ZN10daPlBase_c21setSlipAction_ToStoopEv 0x80048410 f
_ZN10daPlBase_c19setSlipAction_ToEndEv 0x800484B0 f
_ZN10daPlBase_c16setSlipActionEndEv 0x80048550  f
_ZN10daPlBase_c25setSlipActionViewLimitEndEv 0x800485A0 f
_ZN10daPlBase_c14slipActionMoveEi 0x80048630    f
_ZN10daPlBase_c19changeActionSlipEndEN10daPlBase_c10AnmBlend_eE 0x800488F0 f
_ZN10daPlBase_c9checkTurnEv     0x80048A60      f
_ZNK10daPlBase_c7isCarryEv      0x80048B90      f
_ZN10daPlBase_c10setTurnEndEv   0x80048BA0      f
_ZN10daPlBase_c20initializeState_TurnEv 0x80048C00 f
_ZN10daPlBase_c18finalizeState_TurnEv 0x80048C10 f
_ZN10daPlBase_c17executeState_TurnEv 0x80048C20 f
_ZN10daPlBase_c19setHipAttackOnEnemyEP7mVec3_c 0x80048C30 f
_ZN10daPlBase_c22setVsPlHipAttackEffectEv 0x80048C40 f
_ZN10daPlBase_c18setHipAttackEffectEv 0x80048C70 f
_ZN10daPlBase_c22setHipAttackDropEffectEv 0x80048D70 f
_ZN10daPlBase_c16setHipBlockBreakEv 0x80048E10  f
_ZN10daPlBase_c18setHipAttack_ReadyEv 0x80048E40 f
_ZN10daPlBase_c25setHipAttack_KinopioStartEv 0x80048EB0 f
_ZN10daPlBase_c24setHipAttack_AttackStartEv 0x80048F30 f
_ZN10daPlBase_c23setHipAttack_AttackFallEv 0x80048FA0 f
_ZN10daPlBase_c14getGravityDataEv 0x80049040    f
_ZN10daPlBase_c24setHipAttack_StandNormalEv 0x80049050 f
_ZN10daPlBase_c27setHipAttack_StandNormalEndEv 0x80049110 f
_ZN10daPlBase_c20setHipAttack_ToStoopEv 0x80049180 f
_ZN10daPlBase_c15HipAction_ReadyEv 0x800491F0   f
_ZN10daPlBase_c21HipAction_AttackStartEv 0x80049250 f
_ZN10daPlBase_c20HipAction_AttackFallEv 0x80049270 f
_ZN10daPlBase_c16HipAction_GroundEv 0x800494D0  f
_ZN10daPlBase_c21HipAction_StandNormalEv 0x80049540 f
_ZN10daPlBase_c24HipAction_StandNormalEndEv 0x800496D0 f
_ZN10daPlBase_c17HipAction_ToStoopEv 0x80049760 f
_ZN10daPlBase_c25initializeState_HipAttackEv 0x800497E0 f
_ZN10daPlBase_c23finalizeState_HipAttackEv 0x80049880 f
_ZN10daPlBase_c22executeState_HipAttackEv 0x80049940 f
_ZN10daPlBase_c20initializeState_SwimEv 0x80049A10 f
_ZN10daPlBase_c18finalizeState_SwimEv 0x80049A20 f
_ZN10daPlBase_c17executeState_SwimEv 0x80049A30 f
_ZN10daPlBase_c14setJumpDaiRideEv 0x80049A40    f
_ZN10daPlBase_c23initializeState_JumpDaiEv 0x80049AB0 f
_ZN10daPlBase_c21finalizeState_JumpDaiEv 0x80049B60 f
_ZN10daPlBase_c20executeState_JumpDaiEv 0x80049BB0 f
_ZN10daPlBase_c16setPlayerJumpDaiEP10daPlBase_c 0x80049C70 f
_ZN10daPlBase_c14getHeadTopPosPEv 0x80049D60    f
_ZN10daPlBase_c19setPlayerJumoDaiPosEv 0x80049D70 f
_ZN10daPlBase_c29initializeState_PlayerJumpDaiEv 0x80049E10 f
_ZN10daPlBase_c27finalizeState_PlayerJumpDaiEv 0x80049F50 f
_ZN10daPlBase_c26executeState_PlayerJumpDaiEv 0x80049FA0 f
_ZN10daPlBase_c9setFunsuiEv     0x8004A210      f
_ZNK11sStateMgr_cI10daPlBase_c20sStateMethodUsr_FI_c12sFStateFct_c13sStateIDChk_cE10getStateIDEv 0x8004A2B0 f
_ZN10daPlBase_c15updateFunsuiPosEff 0x8004A2C0  f
_ZN10daPlBase_c13releaseFunsuiEf 0x8004A350     f
_ZN10daPlBase_c19releaseFunsuiActionEv 0x8004A3E0 f
_ZN10daPlBase_c22initializeState_FunsuiEv 0x8004A400 f
_ZN10daPlBase_c20finalizeState_FunsuiEv 0x8004A4D0 f
_ZN10daPlBase_c19executeState_FunsuiEv 0x8004A510 f
_ZN10daPlBase_c20initializeState_KaniEv 0x8004A670 f
_ZN10daPlBase_c18finalizeState_KaniEv 0x8004A680 f
_ZN10daPlBase_c17executeState_KaniEv 0x8004A690 f
_ZN10daPlBase_c10setCloudOnEP8dActor_c 0x8004A6A0 f
_ZN10daPlBase_c13cancelCloudOnEv 0x8004A790     f
_ZN10daPlBase_c15getCloudOffsetYEv 0x8004A7A0   f
_ZN10daPlBase_c11getCloudPosEv  0x8004A7B0      f
_ZN10daPlBase_c21initializeState_CloudEv 0x8004A830 f
_ZN10daPlBase_c19finalizeState_CloudEv 0x8004A8C0 f
_ZN10daPlBase_c15updateCloudMoveEv 0x8004A920   f
_ZN10daPlBase_c18executeState_CloudEv 0x8004AA50 f
_ZN10daPlBase_c25initializeState_AnimePlayEv 0x8004AA60 f
_ZN10daPlBase_c23finalizeState_AnimePlayEv 0x8004AA80 f
_ZN10daPlBase_c22executeState_AnimePlayEv 0x8004AAC0 f
_ZN10daPlBase_c19checkWalkNextActionEv 0x8004AB80 f
_ZN10daPlBase_c13DemoAnmNormalEv 0x8004AB90     f
_ZN10daPlBase_c16DemoAnmBossSetUpEv 0x8004AC10  f
_ZN10daPlBase_c15DemoAnmBossGladEv 0x8004AC90   f
_ZN10daPlBase_c20DemoAnmBossAttentionEv 0x8004AD90 f
_ZN10daPlBase_c17DemoAnmBossKeyGetEv 0x8004AF20 f
_ZN10daPlBase_c24initializeState_WaitJumpEv 0x8004AFE0 f
_ZN10daPlBase_c22finalizeState_WaitJumpEv 0x8004B090 f
_ZN10daPlBase_c21executeState_WaitJumpEv 0x8004B0D0 f
_ZN10daPlBase_c16checkSakaReverseEv 0x8004B160  f
_ZN10daPlBase_c6isSakaEv        0x8004B1A0      f
_ZN10daPlBase_c10isSlipSakaEv   0x8004B1C0      f
_ZN10daPlBase_c13setSlipActionEv 0x8004B220     f
_ZN10daPlBase_c9checkSlipEv     0x8004B290      f
_ZN10daPlBase_c15checkCrouchSlipEv 0x8004B2F0   f
_ZN10daPlBase_c15checkSlipEndKeyEv 0x8004B380   f
_ZN10daPlBase_c16getSlipMaxSpeedFEv 0x8004B460  f
_ZN10daPlBase_c20getSakaMaxSpeedRatioEh 0x8004B4C0 f
_ZN10daPlBase_c17getSakaStopAcceleEh 0x8004B520 f
_ZN10daPlBase_c17getSakaMoveAcceleEh 0x8004B580 f
_ZN10daPlBase_c22getIceSakaSlipOffSpeedEv 0x8004B5E0 f
_ZN10daPlBase_c16setSandMoveSpeedEv 0x8004B640  f
_ZN10daPlBase_c12moveSpeedSetEv 0x8004B730      f
_ZN10daPlBase_c18simpleMoveSpeedSetEv 0x8004B9A0 f
_ZN10daPlBase_c13grandPowerSetEv 0x8004BA50     f
_ZN10daPlBase_c12slipPowerSetEi 0x8004BAC0      f
_ZN10daPlBase_c14normalPowerSetEv 0x8004BC80    f
_ZN10daPlBase_c18getPowerChangeTypeEb 0x8004BF00 f
hash_40536D1E_9E6F1C48          0x8004BF80      f
hash_3A727B0E_E5009CD8          0x8004C0D0      f
_ZN10daPlBase_c14icePowerChangeEi 0x8004C1E0    f
_ZN10daPlBase_c11airPowerSetEv  0x8004C310      f
_ZN10daPlBase_c8powerSetEv      0x8004C450      f
_ZN10daPlBase_c15maxFallSpeedSetEv 0x8004C470   f
_ZN10daPlBase_c10gravitySetEv   0x8004C480      f
_ZN10daPlBase_c14setJumpGravityEv 0x8004C4F0    f
_ZN10daPlBase_c20setButtonJumpGravityEv 0x8004C560 f
_ZN10daPlBase_c20setNormalJumpGravityEv 0x8004C620 f
hash_7CC1596C_3A264C7D          0x8004C700      f
_ZN10daPlBase_c13calcWindSpeedEv 0x8004C780     f
_ZN10daPlBase_c9setLandSEEv     0x8004C990      f
_ZN10daPlBase_c9setSlipSEEv     0x8004CA60      f
_ZN10daPlBase_c18setLandSmokeEffectEi 0x8004CB30 f
_ZN10daPlBase_c23setLandSmokeEffectLightEv 0x8004CC10 f
_ZN10daPlBase_c23setSandFunsuiLandEffectEv 0x8004CD20 f
_ZN10daPlBase_c18setStartJumpEffectEi 0x8004CD80 f
_ZN10daPlBase_c17setLandJumpEffectEi 0x8004CE00 f
_ZN10daPlBase_c20setSlipOnWaterEffectEPN3mEf13levelEffect_cE 0x8004CE70 f
_ZN10daPlBase_c18setSlipSmokeEffectEv 0x8004CF20 f
_ZN10daPlBase_c19setBrakeSmokeEffectER7mVec3_c 0x8004CFD0 f
_ZN10daPlBase_c18setTurnSmokeEffectEv 0x8004D040 f
_ZN10daPlBase_c17fadeOutTurnEffectEv 0x8004D210 f
_ZN10daPlBase_c16setRunFootEffectEv 0x8004D260  f
_ZN10daPlBase_c13setSandEffectEv 0x8004D350     f
_ZN10daPlBase_c17setSandJumpEffectEv 0x8004D510 f
_ZN10daPlBase_c15setSoundPlyModeEv 0x8004D5A0   f
_ZN10daPlBase_c12setFootSoundEv 0x8004D5C0      f
_Z15baseID_DemoNoneI10sStateID_cERK12sStateIDIf_cv 0x8004D6F0 f
_Z20baseID_DemoStartWaitI10sStateID_cERK12sStateIDIf_cv 0x8004D700 f
_Z15baseID_DemoWaitI10sStateID_cERK12sStateIDIf_cv 0x8004D710 f
_Z19baseID_DemoInDokanUI10sStateID_cERK12sStateIDIf_cv 0x8004D720 f
_Z19baseID_DemoInDokanDI10sStateID_cERK12sStateIDIf_cv 0x8004D730 f
_Z19baseID_DemoInDokanRI10sStateID_cERK12sStateIDIf_cv 0x8004D740 f
_Z19baseID_DemoInDokanLI10sStateID_cERK12sStateIDIf_cv 0x8004D750 f
_Z20baseID_DemoOutDokanUI10sStateID_cERK12sStateIDIf_cv 0x8004D760 f
_Z20baseID_DemoOutDokanDI10sStateID_cERK12sStateIDIf_cv 0x8004D770 f
_Z20baseID_DemoOutDokanRI10sStateID_cERK12sStateIDIf_cv 0x8004D780 f
_Z20baseID_DemoOutDokanLI10sStateID_cERK12sStateIDIf_cv 0x8004D790 f
_Z23baseID_DemoOutDokanRollI10sStateID_cERK12sStateIDIf_cv 0x8004D7A0 f
_Z22baseID_DemoInWaterTankI10sStateID_cERK12sStateIDIf_cv 0x8004D7B0 f
_Z23baseID_DemoOutWaterTankI10sStateID_cERK12sStateIDIf_cv 0x8004D7C0 f
_Z20baseID_DemoRailDokanI10sStateID_cERK12sStateIDIf_cv 0x8004D7D0 f
_Z15baseID_DemoDownI10sStateID_cERK12sStateIDIf_cv 0x8004D7E0 f
_Z24baseID_DemoNextGotoBlockI10sStateID_cERK12sStateIDIf_cv 0x8004D7F0 f
_Z15baseID_DemoGoalI10sStateID_cERK12sStateIDIf_cv 0x8004D800 f
_Z18baseID_DemoControlI10sStateID_cERK12sStateIDIf_cv 0x8004D810 f
_ZN10daPlBase_c17initialDokanUnderEv 0x8004D820 f
_ZN10daPlBase_c16initialDokanUperEv 0x8004D830  f
_ZN10daPlBase_c17initialDokanRightEv 0x8004D840 f
_ZN10daPlBase_c16initialDokanLeftEv 0x8004D850  f
_ZN10daPlBase_c18initialDokanUnderMEv 0x8004D860 f
_ZN10daPlBase_c17initialDokanUperMEv 0x8004D870 f
_ZN10daPlBase_c18initialDokanRightMEv 0x8004D880 f
_ZN10daPlBase_c17initialDokanLeftMEv 0x8004D890 f
_ZN10daPlBase_c17initialDokanDepthEv 0x8004D8A0 f
_ZN10daPlBase_c11initialDoorEv  0x8004D8B0      f
_ZN10daPlBase_c16initialJumpRightEv 0x8004D8C0  f
_ZN10daPlBase_c15initialJumpLeftEv 0x8004D8D0   f
_ZN10daPlBase_c11initialVineEv  0x8004D8E0      f
_ZN10daPlBase_c11initialFallEv  0x8004D8F0      f
_ZN10daPlBase_c16initialHipAttackEv 0x8004D960  f
_ZN10daPlBase_c11initialSlipEv  0x8004D9C0      f
_ZN10daPlBase_c11initialSwimEv  0x8004DA20      f
_ZN10daPlBase_c17initialTorideBossEv 0x8004DA30 f
_ZN10daPlBase_c16initialBlockJumpEv 0x8004DA70  f
_ZN10daPlBase_c21initialBlockJumpBelowEv 0x8004DA80 f
_ZN10daPlBase_c13initialNormalEv 0x8004DA90     f
_ZN10daPlBase_c15setCreateActionEi 0x8004DB00   f
_ZN10daPlBase_c10isDemoTypeEN10daPlBase_c10DemoType_eE 0x8004DB40 f
_ZN10daPlBase_c8isChangeEv      0x8004DCF0      f
_ZN10daPlBase_c6isDemoEv        0x8004DD00      f
_ZN10daPlBase_c16isControlDemoAllEv 0x8004DD70  f
_ZN10daPlBase_c9isDemoAllEv     0x8004DDE0      f
_ZNK10daPlBase_c10isDemoModeEv  0x8004DE30      f
_ZN10daPlBase_c6onDemoEv        0x8004DE50      f
_ZN10daPlBase_c7offDemoEv       0x8004DEE0      f
_ZN10daPlBase_c15changeNextSceneEi 0x8004DF70   f
_ZN10daPlBase_c16isPlayerGameStopEv 0x8004E040  f
_ZN10daPlBase_c9stopOtherEv     0x8004E050      f
_ZN10daPlBase_c9playOtherEv     0x8004E100      f
_ZN10daPlBase_c18changeNormalActionEv 0x8004E1A0 f
_ZN10daPlBase_c12checkTimeOutEv 0x8004E220      f
_ZN10daPlBase_c15setTimeOverDemoEv 0x8004E280   f
_ZN10daPlBase_c15changeDemoStateERK12sStateIDIf_ci 0x8004E290 f
_ZN10daPlBase_c16executeDemoStateEv 0x8004E360  f
_ZN10daPlBase_c24initializeState_DemoNoneEv 0x8004E450 f
_ZN10daPlBase_c22finalizeState_DemoNoneEv 0x8004E4C0 f
_ZN10daPlBase_c21executeState_DemoNoneEv 0x8004E4D0 f
_ZN10daPlBase_c29initializeState_DemoStartWaitEv 0x8004E700 f
_ZN10daPlBase_c26executeState_DemoStartWaitEv 0x8004E710 f
_ZN10daPlBase_c27finalizeState_DemoStartWaitEv 0x8004E7A0 f
_ZN10daPlBase_c24initializeState_DemoWaitEv 0x8004E7B0 f
_ZN10daPlBase_c22finalizeState_DemoWaitEv 0x8004E810 f
_ZN10daPlBase_c21executeState_DemoWaitEv 0x8004E820 f
_ZN10daPlBase_c25getWaterDokanCenterOffsetEf 0x8004E920 f
_ZN10daPlBase_c15initDemoInDokanEv 0x8004E980   f
_ZN10daPlBase_c14endDemoInDokanEv 0x8004EA20    f
_ZN10daPlBase_c18executeDemoInDokanEh 0x8004EA80 f
_ZN10daPlBase_c17initDemoInDokanUDEh 0x8004EDE0 f
_ZN10daPlBase_c17initDemoInDokanLREh 0x8004EFD0 f
_ZN10daPlBase_c28initializeState_DemoInDokanUEv 0x8004F100 f
_ZN10daPlBase_c26finalizeState_DemoInDokanUEv 0x8004F110 f
_ZN10daPlBase_c25executeState_DemoInDokanUEv 0x8004F120 f
_ZN10daPlBase_c28initializeState_DemoInDokanDEv 0x8004F130 f
_ZN10daPlBase_c26finalizeState_DemoInDokanDEv 0x8004F140 f
_ZN10daPlBase_c25executeState_DemoInDokanDEv 0x8004F150 f
_ZN10daPlBase_c28initializeState_DemoInDokanLEv 0x8004F160 f
_ZN10daPlBase_c26finalizeState_DemoInDokanLEv 0x8004F170 f
_ZN10daPlBase_c25executeState_DemoInDokanLEv 0x8004F180 f
_ZN10daPlBase_c28initializeState_DemoInDokanREv 0x8004F190 f
_ZN10daPlBase_c26finalizeState_DemoInDokanREv 0x8004F1A0 f
_ZN10daPlBase_c25executeState_DemoInDokanREv 0x8004F1B0 f
_ZN10daPlBase_c17demo_dokan_move_xEff 0x8004F1C0 f
_ZN10daPlBase_c17demo_dokan_move_yEff 0x8004F240 f
_ZN10daPlBase_c21isEnableDokanInStatusEv 0x8004F260 f
_ZN10daPlBase_c10setDokanInEN10daPlBase_c10DokanDir_eE 0x8004F300 f
_ZN10daPlBase_c21setDemoOutDokanActionEiN10daPlBase_c10DokanDir_eE 0x8004F480 f
_ZN10daPlBase_c16initDemoOutDokanEv 0x8004F670  f
_ZN10daPlBase_c15endDemoOutDokanEv 0x8004F700   f
_ZN10daPlBase_c18initDemoOutDokanUDEh 0x8004F740 f
_ZN10daPlBase_c21executeDemoOutDokanUDEv 0x8004F860 f
_ZN10daPlBase_c18initDemoOutDokanLREh 0x8004FA70 f
_ZN10daPlBase_c21executeDemoOutDokanLREv 0x8004FBB0 f
_ZN10daPlBase_c29initializeState_DemoOutDokanUEv 0x8004FE70 f
_ZN10daPlBase_c27finalizeState_DemoOutDokanUEv 0x8004FE80 f
_ZN10daPlBase_c26executeState_DemoOutDokanUEv 0x8004FE90 f
_ZN10daPlBase_c29initializeState_DemoOutDokanDEv 0x8004FEA0 f
_ZN10daPlBase_c27finalizeState_DemoOutDokanDEv 0x8004FEB0 f
_ZN10daPlBase_c26executeState_DemoOutDokanDEv 0x8004FEC0 f
_ZN10daPlBase_c29initializeState_DemoOutDokanLEv 0x8004FED0 f
_ZN10daPlBase_c27finalizeState_DemoOutDokanLEv 0x8004FEE0 f
_ZN10daPlBase_c26executeState_DemoOutDokanLEv 0x8004FEF0 f
_ZN10daPlBase_c29initializeState_DemoOutDokanREv 0x8004FF00 f
_ZN10daPlBase_c27finalizeState_DemoOutDokanREv 0x8004FF10 f
_ZN10daPlBase_c26executeState_DemoOutDokanREv 0x8004FF20 f
_ZN10daPlBase_c32initializeState_DemoOutDokanRollEv 0x8004FF30 f
_ZN10daPlBase_c30finalizeState_DemoOutDokanRollEv 0x8004FF90 f
_ZN10daPlBase_c29executeState_DemoOutDokanRollEv 0x8004FFA0 f
_ZN10daPlBase_c31initializeState_DemoInWaterTankEv 0x800502A0 f
_ZN10daPlBase_c29finalizeState_DemoInWaterTankEv 0x80050370 f
_ZN10daPlBase_c28executeState_DemoInWaterTankEv 0x80050380 f
_ZN10daPlBase_c32initializeState_DemoOutWaterTankEv 0x800504B0 f
_ZN10daPlBase_c30finalizeState_DemoOutWaterTankEv 0x80050530 f
_ZN10daPlBase_c29executeState_DemoOutWaterTankEv 0x80050540 f
_ZN10daPlBase_c29initializeState_DemoRailDokanEv 0x80050870 f
_ZN10daPlBase_c27finalizeState_DemoRailDokanEv 0x800509F0 f
_ZN10daPlBase_c16setExitRailDokanEv 0x80050A00  f
_ZN10daPlBase_c26executeState_DemoRailDokanEv 0x80050AF0 f
_ZN10daPlBase_c13setObjDokanInEP9dBg_ctr_cR7mVec3_ci 0x80050D40 f
_ZN10daPlBase_c16isDispOutCheckOnEv 0x80050D80  f
_ZN10daPlBase_c24initializeState_DemoDownEv 0x80050E30 f
_ZN10daPlBase_c22finalizeState_DemoDownEv 0x80050E40 f
_ZN10daPlBase_c21executeState_DemoDownEv 0x80050E50 f
_ZN10daPlBase_c11setDemoGoalER7mVec3_cfh 0x80050E60 f
_ZN10daPlBase_c20setHideNotGoalPlayerEv 0x80051080 f
_ZN10daPlBase_c13stopGoalOtherEv 0x800510F0     f
_ZN10daPlBase_c13playGoalOtherEv 0x800511A0     f
_ZN10daPlBase_c16initDemoGoalBaseEv 0x80051240  f
_ZN10daPlBase_c19clearJumpActionInfoEi 0x80051350 f
_ZN10daPlBase_c7endStarEv       0x80051360      f
_ZN10daPlBase_c20finalizeDemoGoalBaseEv 0x80051370 f
_ZN10daPlBase_c24initializeState_DemoGoalEv 0x80051400 f
_ZN10daPlBase_c22finalizeState_DemoGoalEv 0x80051410 f
_ZN10daPlBase_c18getDemoGoalLandPosEv 0x80051420 f
_ZN10daPlBase_c21setDemoGoal_MultiJumpEv 0x80051490 f
_ZN10daPlBase_c20executeDemoGoal_PoleEv 0x80051590 f
_ZN10daPlBase_c20executeDemoGoal_WaitEv 0x800518A0 f
_ZN10daPlBase_c24executeDemoGoal_KimePoseEv 0x80051930 f
_ZN10daPlBase_c19executeDemoGoal_RunEv 0x80051A90 f
_ZN10daPlBase_c15setDemoGoalModeEii 0x80051AA0  f
_ZN10daPlBase_c21executeState_DemoGoalEv 0x80051AB0 f
_ZN10daPlBase_c12initGoalJumpER7mVec3_cf 0x80051B40 f
_ZN10daPlBase_c12calcGoalJumpEv 0x80051BD0      f
_ZN10daPlBase_c16initDemoKimePoseEv 0x80051CB0  f
_ZN10daPlBase_c18updateDemoKimePoseEN10daPlBase_c11ClearType_eE 0x80051CF0 f
_ZN10daPlBase_c18startKimePoseVoiceEN10daPlBase_c11ClearType_eE 0x80051D00 f
_ZN10daPlBase_c16startControlDemoEv 0x80051E70  f
_ZN10daPlBase_c14endControlDemoEi 0x80051EF0    f
_ZN10daPlBase_c17setControlDemoDirEh 0x80051F30 f
_ZN10daPlBase_c18setControlDemoWaitEv 0x80051FD0 f
_ZN10daPlBase_c17isControlDemoWaitEv 0x80052030 f
_ZN10daPlBase_c18setControlDemoWalkERKfRKf 0x80052080 f
_ZN10daPlBase_c17isControlDemoWalkEv 0x80052120 f
_ZN10daPlBase_c17setControlDemoAnmEi 0x80052170 f
_ZN10daPlBase_c16isControlDemoAnmEi 0x80052220  f
hash_6BCE6753_54D7222F          0x80052290      f
_ZN10daPlBase_c25setControlDemoKinopioWalkEv 0x80052300 f
_ZN10daPlBase_c25setControlDemoKinopioSwimEv 0x80052390 f
_ZN10daPlBase_c25setControlDemoEndingDanceEv 0x80052420 f
_ZN10daPlBase_c14isBossDemoLandEv 0x80052470    f
_ZN10daPlBase_c22isHitGroundKinopioWalkEifi 0x80052500 f
_ZN10daPlBase_c20isHitWallKinopioWalkEi 0x80052650 f
_ZN10daPlBase_c18checkKinopioWaitBGEi 0x800526C0 f
_ZN10daPlBase_c27initializeState_DemoControlEv 0x80052730 f
_ZN10daPlBase_c21initializeDemoControlEv 0x80052870 f
_ZN10daPlBase_c25finalizeState_DemoControlEv 0x80052880 f
_ZN10daPlBase_c24executeState_DemoControlEv 0x80052900 f
_ZN4sLib9calcTimerIiEEiPi       0x80052ED0      f
hash_D8845940_A81ED025          0x80052EF0      f
_ZN10daPlBase_c33initializeState_DemoNextGotoBlockEv 0x80052FE0 f
_ZN10daPlBase_c31finalizeState_DemoNextGotoBlockEv 0x80053040 f
_ZN10daPlBase_c30executeState_DemoNextGotoBlockEv 0x80053090 f
_ZN10daPlBase_c17updateEndingDanceEv 0x80053120 f
_ZN10daPlBase_c22setEnemyStageClearDemoEv 0x800533E0 f
_ZN10daPlBase_c13getCcLineKindEv 0x80053490     f
_ZN10daPlBase_c13initCollisionEP10sCcDatNewFP10sCcDatNewF 0x800534B0 f
_ZN10daPlBase_c13releaseCcDataEv 0x80053540     f
_ZN10daPlBase_c11clearCcDataEv  0x80053600      f
_ZN10daPlBase_c11setCcAtBodyEi  0x80053650      f
_ZN10daPlBase_c11setCcAtSlipEv  0x800536A0      f
_ZN10daPlBase_c18setCcAtPenguinSlipEv 0x800536B0 f
_ZN10daPlBase_c16setCcAtHipAttackEv 0x80053700  f
_ZN10daPlBase_c11setCcAtStarEv  0x80053740      f
_ZN10daPlBase_c13setCcAtCannonEv 0x800537A0     f
_ZN10daPlBase_c14entryCollisionEv 0x800537B0    f
_ZN10daPlBase_c17isActionRevisionYEv 0x800538E0 f
_ZN10daPlBase_c14setCcPlayerRevEP5dCc_cP5dCc_cfi 0x80053940 f
_ZN10daPlBase_c16clearCcPlayerRevEv 0x80053AA0  f
_ZN10daPlBase_c15calcCcPlayerRevEPf 0x80053AD0  f
_ZN10daPlBase_c23isEnableStampPlayerJumpEP5dCc_cP5dCc_c 0x80053C80 f
_ZN10daPlBase_c8isLiftUpEv      0x80053DE0      f
_ZN10daPlBase_c17setStampReductionEv 0x80053DF0 f
_ZN10daPlBase_c18setStampPlayerJumpEbf 0x80053E60 f
_ZN10daPlBase_c17setReductionScaleEv 0x80053F90 f
_ZN10daPlBase_c18initStampReductionEv 0x80053FE0 f
_ZN10daPlBase_c25calcJumpDaiReductionScaleEii 0x80054070 f
_ZN10daPlBase_c17setReductionBoyonEv 0x800540D0 f
_ZN10daPlBase_c18calcReductionScaleEv 0x800540F0 f
_ZN10daPlBase_c22getReductionModelScaleEv 0x800541C0 f
_ZN10daPlBase_c14setNoHitPlayerEPK10daPlBase_ci 0x800541E0 f
_ZN10daPlBase_c17updateNoHitPlayerEv 0x800541F0 f
_ZN10daPlBase_c24getHipAttackDamagePlayerEv 0x80054220 f
_ZN10daPlBase_c24setHipAttackDamagePlayerEP10daPlBase_c 0x80054230 f
_ZN10daPlBase_c26clearHipAttackDamagePlayerEv 0x80054280 f
_ZN10daPlBase_c13setNoHitObjBgEP8dActor_ci 0x800542C0 f
_ZN10daPlBase_c19calcNoHitObjBgTimerEv 0x800542D0 f
_ZN10daPlBase_c13setOldBGCrossEv 0x80054300     f
_ZN10daPlBase_c16clearBgCheckInfoEv 0x80054370  f
_ZN10daPlBase_c7bgCheckEi       0x800543E0      f
_ZN10daPlBase_c15checkBgCrossSubEv 0x800544E0   f
_ZN10daPlBase_c12checkBgCrossEv 0x800544F0      f
_ZN10daPlBase_c18getWallBgPointDataEv 0x80054EE0 f
_ZN10daPlBase_c19isCarryObjBgCarriedEh 0x80054EF0 f
_ZN10daPlBase_c11postBgCrossEv  0x80054F80      f
_ZN10daPlBase_c15getSandSinkRateEv 0x800552C0   f
_ZN10daPlBase_c17getWaterCheckPosYEv 0x800552D0 f
_ZN10daPlBase_c10checkWaterEv   0x80055330      f
_ZN10daPlBase_c13checkDamageBgEv 0x80055530     f
_ZN10daPlBase_c11setBgDamageEv  0x80055620      f
_ZN10daPlBase_c13checkSinkSandEv 0x800556F0     f
_ZN10daPlBase_c16checkBGCrossWallEh 0x800557E0  f
_ZN10daPlBase_c18checkSideViewLemitEv 0x80055810 f
_ZN10daPlBase_c18revSideLimitCommonEf 0x80055900 f
_ZN10daPlBase_c18calcSideLimitMultLEf 0x80055A00 f
_ZN10daPlBase_c18calcSideLimitMultREf 0x80055A70 f
_ZN10daPlBase_c18checkDispSideLemitEv 0x80055AE0 f
hash_3BBE9A98_F6CD625C          0x80055D00      f
_ZN10daPlBase_c14underOverCheckEv 0x80055DB0    f
_ZN10daPlBase_c15setFallDownDemoEv 0x80055EE0   f
_ZN10daPlBase_c13checkDispOverEv 0x80055EF0     f
_ZN10daPlBase_c19checkDisplayOutDeadEv 0x80055FF0 f
_ZN10daPlBase_c19setBalloonInDispOutEi 0x80056360 f
_ZN10daPlBase_c13setBgPressReqEP8dActor_cN10daPlBase_c9BgPress_eE 0x80056370 f
_ZN10daPlBase_c9isBgPressEP8dActor_c 0x800563C0 f
_ZN10daPlBase_c16setPressBgDamageEii 0x800564F0 f
_ZN10daPlBase_c15isEnablePressUDEv 0x800565A0   f
_ZN10daPlBase_c15isEnablePressLREv 0x800565E0   f
_ZN10daPlBase_c12checkPressBgEv 0x80056620      f
hash_5C236D7F_26B14CBB          0x800568F0      f
_ZN10daPlBase_c17isRideCheckEnableEv 0x80056900 f
hash_F56ECAEB_0BC0ACDB          0x80056980      f
_ZN10daPlBase_c18checkInsideCrossBgEf 0x800569C0 f
_ZN10daPlBase_c18getFootBgPointDataEv 0x80056BB0 f
hash_3E0D6225_A9E84579          0x80056BC0      f
_ZN10daPlBase_c12isMameActionEv 0x80056BD0      f
_ZN10daPlBase_c18isLiftUpExceptMameEv 0x80056C20 f
_ZN10daPlBase_c9setStatusEi     0x80056C30      f
_ZN10daPlBase_c8onStatusEi      0x80056C70      f
_ZN10daPlBase_c9offStatusEi     0x80056CB0      f
_ZN10daPlBase_c8isStatusEi      0x80056CF0      f
_ZN10daPlBase_c11getTallTypeEa  0x80056D40      f
_ZN10daPlBase_c13calcTimerProcEv 0x80056D50     f
_ZN10daPlBase_c8getModelEv      0x80056E30      f
_ZN10daPlBase_c17calcPlayerSpeedXYEv 0x80056E40 f
_ZN10daPlBase_c19posMoveAnglePenguinE7mVec3_ct 0x800571C0 f
_ZN10daPlBase_c18posMoveAnglePlayerE7mVec3_c 0x800573F0 f
_ZN10daPlBase_c12getSpeedDataEv 0x80057650      f
_ZN10daPlBase_c12setZPositionEv 0x800576A0      f
_ZN10daPlBase_c12setZPositionEf 0x80057760      f
_ZN10daPlBase_c18setZPositionDirectEf 0x800577D0 f
_ZN10daPlBase_c14offZPosSetNoneEv 0x80057810    f
_ZN10daPlBase_c16setJumpAddSpeedFEf 0x80057820  f
_ZN10daPlBase_c16setAddLiftSpeedFEv 0x80057860  f
_ZN10daPlBase_c16setDelayHelpJumpEv 0x800578D0  f
_ZN10daPlBase_c8jmpInf_cD0Ev    0x80057980      f
hash_6EE3E681_5CE4AE53          0x800579C0      f
_ZN10daPlBase_c16checkJumpTriggerEv 0x80057AD0  f
_ZN10daPlBase_c10isNoDamageEv   0x80057B30      f
_ZN10daPlBase_c9setDamageEP8dActor_cN10daPlBase_c12DamageType_eE 0x80057B40 f
_ZN10daPlBase_c15setForcedDamageEP8dActor_cN10daPlBase_c12DamageType_eE 0x80057B50 f
_ZN10daPlBase_c10setDamage2EP8dActor_cN10daPlBase_c12DamageType_eE 0x80057B60 f
hash_F0EC8287_15344B09          0x80057B70      f
hash_7286488D_D8655D83          0x80057B80      f
_ZN10daPlBase_c11setWaitJumpEf  0x80057B90      f
_ZN10daPlBase_c12setSwimSpeedEff 0x80057C30     f
_ZN10daPlBase_c18onFollowMameKuriboEv 0x80057C40 f
_ZN10daPlBase_c21clearFollowMameKuriboEv 0x80057C80 f
_ZN10daPlBase_c19getFollowMameKuriboEv 0x80057CC0 f
_ZN10daPlBase_c10isMaskDrawEv   0x80057CD0      f
_ZN10daPlBase_c10setRideNatEf   0x80057D30      f
_ZN10daPlBase_c13updateRideNatEv 0x80057D70     f
hash_641E40C2_752DEC62          0x80057E00      f
hash_2DED00FD_757D282B          0x80057E70      f
_ZN6dAudio13SndObjctPly_c10startSoundEmm 0x80057ED0 f
hash_B7464C0E_8A2FFE95          0x80057EE0      f
_ZN6dAudio13SndObjctPly_c10startSoundEmsm 0x80057F50 f
hash_57211E12_F1BD0A84          0x80057F60      f
_ZN6dAudio13SndObjctPly_c9holdSoundEmm 0x80057FC0 f
hash_9B119981_EC80B19A          0x80057FD0      f
_ZN6dAudio13SndObjctPly_c9holdSoundEmsm 0x80058040 f
hash_72820494_EF872B58          0x80058050      f
hash_0C481D1B_54BDDA37          0x800580B0      f
_ZN10daPlBase_c20startFootSoundPlayerEm 0x80058110 f
_ZN10daPlBase_c20setItemCompleteVoiceEv 0x80058170 f
_ZN10daPlBase_c7setStarEN10daPlBase_c9StarSet_eEi 0x80058190 f
_ZN10daPlBase_c15clearTreadCountEv 0x800581A0   f
_ZN10daPlBase_c14calcTreadCountEi 0x800581B0    f
_ZN10daPlBase_c14clearStarCountEv 0x800581D0    f
_ZN10daPlBase_c13calcStarCountEi 0x800581E0     f
_ZN10daPlBase_c15clearComboCountEv 0x80058250   f
_ZN10daPlBase_c14calcComboCountEi 0x80058260    f
_ZN10daPlBase_c15startQuakeShockEN8dQuake_c12TYPE_SHOCK_eE 0x80058280 f
_ZN10daPlBase_c18startPatternRumbleEPKc 0x800582A0 f
_ZN10daPlBase_c17getAnkleCenterPosEv 0x800582F0 f
_ZN10daPlBase_c22calcHeadAttentionAngleEv 0x800583A0 f
_ZN10daPlBase_c16setFlagGetEffectEv 0x80058850  f
_ZN10daPlBase_c18set1UpKinokoEffectEv 0x80058860 f
_ZN10daPlBase_c12setVirusStarEP10daPlBase_c 0x80058870 f
_ZN10daPlBase_c17setRideJrCrownAnmEi 0x80058880 f
_ZN10daPlBase_c17setRideJrCrownMtxEPK6mMtx_c 0x80058890 f
_ZN10daPlBase_c16isRideJrCrownOwnEPK8dActor_c 0x800588A0 f
_ZN10daPlBase_c14setRideJrCrownEPK8dActor_c 0x800588B0 f
_ZN10daPlBase_c19isWaitFrameCountMaxEv 0x800588C0 f
_ZN10daPlBase_c17setDemoCannonWarpEiss 0x800588D0 f
_ZN10daPlBase_c14executeLastAllEv 0x800588E0    f
_ZN10daPlBase_c17executeLastPlayerEv 0x800588F0 f
_ZNK11sStateMgr_cI10daPlBase_c20sStateMethodUsr_FI_c12sFStateFct_c13sStateIDChk_cE13getOldStateIDEv 0x80058900 f
_ZN11NMSndObjectIXLi4EEE10startSoundEmm 0x80058910 f
_ZN11NMSndObjectIXLi4EEE10startSoundEmsm 0x80058A00 f
_ZN11NMSndObjectIXLi4EEE10startSoundEmRKN4nw4r4math4VEC2Em 0x80058B20 f
_ZN11NMSndObjectIXLi4EEE9holdSoundEmm 0x80058C10 f
_ZN11NMSndObjectIXLi4EEE9holdSoundEmsm 0x80058D60 f
_ZN11NMSndObjectIXLi4EEE9holdSoundEmRKN4nw4r4math4VEC2Em 0x80058EE0 f
_ZN11NMSndObjectIXLi4EEE12prepareSoundEmm 0x80059030 f
_ZN12sFStateFct_cI10daPlBase_cE5buildERK12sStateIDIf_c 0x80059120 f
_ZN12sFStateFct_cI10daPlBase_cE7disposeERP10sStateIf_c 0x80059180 f
_ZN9sFState_cI10daPlBase_cE10initializeEv 0x80059190 f
_ZN9sFState_cI10daPlBase_cE7executeEv 0x800591B0 f
_ZN9sFState_cI10daPlBase_cE8finalizeEv 0x800591D0 f
_ZN11sStateMgr_cI10daPlBase_c20sStateMethodUsr_FI_c12sFStateFct_c13sStateIDChk_cE15initializeStateEv 0x800591F0 f
_ZN11sStateMgr_cI10daPlBase_c20sStateMethodUsr_FI_c12sFStateFct_c13sStateIDChk_cE12refreshStateEv 0x80059200 f
_ZNK11sStateMgr_cI10daPlBase_c20sStateMethodUsr_FI_c12sFStateFct_c13sStateIDChk_cE8getStateEv 0x80059210 f
_ZNK11sStateMgr_cI10daPlBase_c20sStateMethodUsr_FI_c12sFStateFct_c13sStateIDChk_cE13getNewStateIDEv 0x80059220 f
_ZNK11sFStateID_cI10daPlBase_cE13finalizeStateER10daPlBase_c 0x80059230 f
_ZNK11sFStateID_cI10daPlBase_cE12executeStateER10daPlBase_c 0x80059260 f
_ZNK11sFStateID_cI10daPlBase_cE15initializeStateER10daPlBase_c 0x80059290 f
__sinit_\d_a_player_base_cpp    0x800592C0      f
_ZN11sFStateID_cI10daPlBase_cED0Ev 0x8005B090   f
_ZN18sFStateVirtualID_cI10daPlBase_cED0Ev 0x8005B0F0 f
_ZNK18sFStateVirtualID_cI10daPlBase_cE6numberEv 0x8005B150 f
_ZNK18sFStateVirtualID_cI10daPlBase_cE7superIDEv 0x8005B230 f
_ZNK11sFStateID_cI10daPlBase_cE10isSameNameEPKc 0x8005B310 f
_ZN13daPyDemoMng_cC1Ev          0x8005B3A0      f
_ZN13daPyDemoMng_cD0Ev          0x8005B3E0      f
_ZN13daPyDemoMng_c9initStageEv  0x8005B430      f
_ZN13daPyDemoMng_c12initCourseInEv 0x8005B470   f
_ZN13daPyDemoMng_c4initEv       0x8005B4A0      f
_ZN13daPyDemoMng_c6updateEv     0x8005B550      f
_ZN13daPyDemoMng_c11setDemoModeEN13daPyDemoMng_c6Mode_eEi 0x8005B5C0 f
_ZN13daPyDemoMng_c15releaseDemoModeEi 0x8005B5D0 f
_ZNK13daPyDemoMng_c10isDemoModeEN13daPyDemoMng_c6Mode_eE 0x8005B610 f
_ZNK13daPyDemoMng_c10isDemoModeEN13daPyDemoMng_c6Mode_eEi 0x8005B630 f
_ZN13daPyDemoMng_c19deleteNotGoalPlayerEv 0x8005B690 f
_ZN13daPyDemoMng_c17calcNotGoalPlayerEv 0x8005B6A0 f
_ZN13daPyDemoMng_c15setGoalDemoListEi 0x8005B780 f
_ZN13daPyDemoMng_c20isGoalAllEntryPlayerEv 0x8005B7D0 f
_ZN13daPyDemoMng_c15stopBgmGoalDemoEv 0x8005B810 f
_ZN13daPyDemoMng_c18getPoleBelowPlayerEi 0x8005B840 f
_ZN13daPyDemoMng_c20executeGoalDemo_PoleEv 0x8005B8A0 f
_ZN13daPyDemoMng_c24executeGoalDemo_PoleDownEv 0x8005BCF0 f
_ZN13daPyDemoMng_c25executeGoalDemo_JumpCheckEv 0x8005BD60 f
_ZN13daPyDemoMng_c20executeGoalDemo_JumpEv 0x8005BE30 f
_ZN13daPyDemoMng_c20executeGoalDemo_LandEv 0x8005BF10 f
_ZN13daPyDemoMng_c24executeGoalDemo_KimeWaitEv 0x8005BFD0 f
_ZN13daPyDemoMng_c15executeGoalDemoEv 0x8005C090 f
_ZN13daPyDemoMng_c18setGoalDemoKimeAllEv 0x8005C130 f
_ZN13daPyDemoMng_c20setGoalDemoRunCastleEv 0x8005C1A0 f
_ZN13daPyDemoMng_c17isAllPlayerGoalInEv 0x8005C210 f
_ZN13daPyDemoMng_c15setHanabiEffectEv 0x8005C2B0 f
_ZN13daPyDemoMng_c17executeGoalCastleEv 0x8005C410 f
_ZN13daPyDemoMng_c17calcGoalCenterPosEv 0x8005C6D0 f
_ZN13daPyDemoMng_c13setZoromeGoalEv 0x8005C830  f
_ZN13daPyDemoMng_c19startControlDemoAllEv 0x8005C930 f
_ZN13daPyDemoMng_c22isAllPlayerControlDemoEv 0x8005C9D0 f
_ZN13daPyDemoMng_c17endControlDemoAllEi 0x8005CA50 f
_ZNK13daPyDemoMng_c23getControlDemoPlayerNumEv 0x8005CAD0 f
_ZN13daPyDemoMng_c19setBossDownPlayerNoEi 0x8005CB60 f
_ZN13daPyDemoMng_c13onLandStopReqEv 0x8005CB70  f
_ZN13daPyDemoMng_c26startControlDemoLandPlayerEv 0x8005CC00 f
hash_24DB397C_F4DD5A39          0x8005CCD0      f
_ZN13daPyDemoMng_c9isLandAllEv  0x8005CDD0      f
hash_2BAA1C5E_A0CD8E01          0x8005CE50      f
_ZN13daPyDemoMng_c18executeStartTorideEv 0x8005CED0 f
_ZN13daPyDemoMng_c16executeEndTorideEv 0x8005CFB0 f
_ZN13daPyDemoMng_c16setCourseOutListEa 0x8005D050 f
_ZN13daPyDemoMng_c11checkDemoNoEa 0x8005D090    f
_ZN13daPyDemoMng_c13getNextDemoNoEv 0x8005D0C0  f
_ZN13daPyDemoMng_c14turnNextDemoNoEv 0x8005D0D0 f
_ZN13daPyDemoMng_c11clearDemoNoEa 0x8005D100    f
hash_96664B2E_14379949          0x8005D280      f
_ZN13daPyDemoMng_c22setEnemyStageClearDemoEi 0x8005D6B0 f
__sinit_\d_a_player_demo_manager_cpp 0x8005D750 f
__arraydtor$72504               0x8005D7C0      f
_ZN17dAcPy_HIO_Speed_cC1Ev      0x8005D7E0      f
_ZN17dAcPy_HIO_Speed_cD0Ev      0x8005D830      f
_ZN17dAcPy_HIO_Speed_c4initEi   0x8005D880      f
_ZN16dPyMdlBase_HIO_cC1Ev       0x8005DB00      f
_ZN16dPyMdlBase_HIO_cD0Ev       0x8005DBE0      f
_ZN16dPyMdlBase_HIO_c13changeHioTypeEh 0x8005DC20 f
hash_1A819798_6D28A273          0x8005DC40      f
_ZN12dPyAnm_HIO_cC1Ev           0x8005DC80      f
_ZN12dPyAnm_HIO_c10resetParamEi 0x8005DCA0      f
_ZN16dPyAnmMain_HIO_cC1Ev       0x8005DCD0      f
_ZN16dPyAnmMain_HIO_c10resetParamEv 0x8005DD30  f
_ZN14dPyModel_HIO_cC1Ev         0x8005DD80      f
_ZN14dPyModel_HIO_c10resetParamEi 0x8005DDC0    f
_ZN17dYoshiModel_HIO_cC1Ev      0x8005DEA0      f
_ZN17dYoshiModel_HIO_c10resetParamEv 0x8005DED0 f
__sinit_\d_a_player_hio_ADJ_cpp 0x8005DF00      f
_ZN10dAcPyKey_cC1Ev             0x8005DFD0      f
_ZN10dAcPyKey_cD0Ev             0x8005DFF0      f
_ZN10dAcPyKey_c4initEv          0x8005E030      f
_ZN10dAcPyKey_c6updateEv        0x8005E040      f
_ZN10dAcPyKey_c9updateEndEv     0x8005E2B0      f
_ZN10dAcPyKey_c14checkHipAttackEv 0x8005E300    f
_ZN10dAcPyKey_c8onStatusEt      0x8005E3B0      f
_ZN10dAcPyKey_c9offStatusEt     0x8005E460      f
_ZN10dAcPyKey_c11clearAllKeyEv  0x8005E480      f
_ZN10dAcPyKey_c13clearCrossKeyEv 0x8005E4A0     f
_ZNK10dAcPyKey_c8triggerAEv     0x8005E4C0      f
_ZNK10dAcPyKey_c11buttonCrossEv 0x8005E4D0      f
_ZNK10dAcPyKey_c12triggerCrossEv 0x8005E4E0     f
_ZNK10dAcPyKey_c8buttonUpEv     0x8005E4F0      f
_ZNK10dAcPyKey_c10buttonDownEv  0x8005E500      f
_ZNK10dAcPyKey_c10buttonLeftEv  0x8005E510      f
_ZNK10dAcPyKey_c11buttonRightEv 0x8005E520      f
_ZNK10dAcPyKey_c9triggerUpEv    0x8005E530      f
_ZNK10dAcPyKey_c11triggerDownEv 0x8005E540      f
_ZNK10dAcPyKey_c11triggerLeftEv 0x8005E550      f
_ZNK10dAcPyKey_c12triggerRightEv 0x8005E560     f
_ZNK10dAcPyKey_c10triggerTwoEv  0x8005E570      f
_ZNK10dAcPyKey_c9buttonTwoEv    0x8005E580      f
_ZNK10dAcPyKey_c10triggerOneEv  0x8005E590      f
_ZNK10dAcPyKey_c9buttonOneEv    0x8005E5D0      f
_ZNK10dAcPyKey_c10buttonDushEv  0x8005E610      f
_ZNK10dAcPyKey_c13triggerAttackEv 0x8005E620    f
_ZN10dAcPyKey_c10triggerEatEv   0x8005E630      f
_ZNK10dAcPyKey_c11buttonCarryEv 0x8005E680      f
_ZN10dAcPyKey_c11triggerFireEv  0x8005E690      f
_ZNK10dAcPyKey_c15triggerJumpBaseEv 0x8005E6E0  f
_ZN10dAcPyKey_c11triggerJumpEv  0x8005E6F0      f
_ZN10dAcPyKey_c10buttonJumpEv   0x8005E740      f
_ZNK10dAcPyKey_c15buttonYoshiJumpEv 0x8005E770  f
_ZNK10dAcPyKey_c16triggerShakeJumpEv 0x8005E780 f
_ZN10dAcPyKey_c14clearShakeJumpEv 0x8005E790    f
_ZNK10dAcPyKey_c10buttonWalkEPi 0x8005E7A0      f
_ZNK10dAcPyKey_c12buttonCrouchEv 0x8005E830     f
_ZNK10dAcPyKey_c15buttonHipAttackEv 0x8005E840  f
_ZNK10dAcPyKey_c10buttonDoorEv  0x8005E890      f
_ZN10dAcPyKey_c14triggerJumpBufEi 0x8005E8B0    f
_ZN10dAcPyKey_c12onDemoButtonEi 0x8005E910      f
_ZN10dAcPyKey_c13offDemoButtonEi 0x8005E930     f
_ZN10dAcPyKey_c13onDemoTriggerEi 0x8005E960     f
_ZN10dAcPyKey_c11onDemoShakeEv  0x8005E980      f
_ZN9daPyMng_c11createYoshiER7mVec3_ciP7dAcPy_c 0x8005E9A0 f
_ZN9daPyMng_c8initGameEv        0x8005EA60      f
_ZN9daPyMng_c9initStageEv       0x8005EB10      f
_ZN10dScStage_c11getCourseInEv  0x8005EC90      f
_ZN9daPyMng_c9exitStageEv       0x8005ECA0      f
_ZN9daPyMng_c8courseInEv        0x8005ECB0      f
_ZN9daPyMng_c15setDefaultParamEv 0x8005ECE0     f
_ZN9daPyMng_c15getPlayerSetPosEhh 0x8005ED90    f
_ZN5dCd_c8getFilePEi            0x8005EE70      f
_ZN9daPyMng_c21getPlayerCreateActionEv 0x8005EE90 f
_ZN9daPyMng_c6createEiP7mVec3_cih 0x8005EEE0    f
_ZN9daPyMng_c16createCourseInitEv 0x8005EF50    f
hash_FADADB78_A7194865          0x8005F4D0      f
hash_2A4E088C_3D0B6AE8          0x8005F570      f
_ZN9daPyMng_c6updateEv          0x8005F5C0      f
_ZN9daPyMng_c19isPlayerPauseEnableEa 0x8005F880 f
_ZN9daPyMng_c9setPlayerEiP7dAcPy_c 0x8005F8C0   f
_ZN9daPyMng_c9getPlayerEi       0x8005F900      f
_ZN9daPyMng_c15decideCtrlPlrNoEv 0x8005F920     f
_ZN9daPyMng_c8setYoshiEP10daPlBase_c 0x8005F990 f
_ZN9daPyMng_c12releaseYoshiEP10daPlBase_c 0x8005FA00 f
_ZN9daPyMng_c8getYoshiEi        0x8005FA60      f
_ZN9daPyMng_c11getYoshiNumEv    0x8005FB00      f
_ZN9daPyMng_c15getYoshiDirectPEi 0x8005FB70     f
_ZN9daPyMng_c13getCtrlPlayerEi  0x8005FB90      f
_ZN9daPyMng_c26getCourseInPlayerModelTypeEh 0x8005FBE0 f
_ZN9daPyMng_c21setCarryOverYoshiInfoEhhi 0x8005FC20 f
_ZN9daPyMng_c13getYoshiColorEh  0x8005FC40      f
_ZN9daPyMng_c13getYoshiFruitEh  0x8005FC50      f
_ZN9daPyMng_c16getActScrollInfoEv 0x8005FC70    f
_ZN9daPyMng_c12getScrollNumEv   0x8005FD20      f
_ZN9daPyMng_c6addNumEi          0x8005FDB0      f
_ZN9daPyMng_c6decNumEi          0x8005FE30      f
_ZN9daPyMng_c6addNumEv          0x8005FEB0      f
_ZN9daPyMng_c6decNumEv          0x8005FED0      f
_ZN9daPyMng_c12getNumInGameEv   0x8005FEF0      f
_ZN9daPyMng_c11getEntryNumEv    0x8005FFB0      f
_ZN9daPyMng_c17getItemKinopioNumEv 0x80060010   f
_ZN9daPyMng_c14getItemKinopioEv 0x80060090      f
hash_C28F0F8E_5CD34C9C          0x80060110      f
_ZN9daPyMng_c22changeItemKinopioPlrNoERi 0x80060170 f
_ZN9daPyMng_c20getCourseInListPlrNoEi 0x800601E0 f
_ZN9daPyMng_c10getCoinAllEv     0x80060200      f
_ZN9daPyMng_c7incCoinEi         0x80060250      f
_ZN9daPyMng_c7addRestEiib       0x80060460      f
_ZN9daPyMng_c10incRestAllEb     0x80060590      f
_ZN9daPyMng_c7decRestEi         0x80060600      f
_ZN9daPyMng_c8addScoreEii       0x80060690      f
_ZN9daPyMng_c18setCourseInStarBGMEv 0x80060700  f
_ZN9daPyMng_c12startStarBGMEv   0x80060720      f
_ZN9daPyMng_c11stopStarBGMEv    0x80060750      f
_ZN9daPyMng_c12startMissBGMEi   0x800607D0      f
_ZN9daPyMng_c13startYoshiBGMEv  0x80060830      f
_ZN9daPyMng_c12stopYoshiBGMEv   0x80060860      f
_ZN9daPyMng_c20checkLastAlivePlayerEv 0x800608E0 f
_ZN9daPyMng_c17executeLastPlayerEv 0x80060970   f
_ZN9daPyMng_c14executeLastAllEv 0x80060A10      f
_ZN9daPyMng_c18deleteCullingYoshiEv 0x80060AB0  f
_ZN9daPyMng_c17setHipAttackQuakeEih 0x80060C10  f
hash_A66FB95E_0FF09A42          0x80060DB0      f
_ZN9daPyMng_c15checkBonusNoCapEv 0x80060EF0     f
_ZN9daPyMng_c17initYoshiPriorityEP10daPlBase_c 0x80060F20 f
_ZN9daPyMng_c16setYoshiPriorityEP10daPlBase_c 0x80060FE0 f
_ZN9daPyMng_c12isEffectStopEi   0x80061080      f
_ZN9daPyMng_c13isAcceptQuakeEi  0x800610E0      f
_ZN9daPyMng_c15isCreateBalloonEi 0x80061110     f
_ZN9daPyMng_c22checkCorrectCreateInfoEv 0x80061160 f
__sinit_\d_a_player_manager_cpp 0x80061310      f
_Z11baseID_MoveI10sStateID_cERK12sStateIDIf_cv 0x800613B0 f
_ZN13daLightBase_c17searchParent_railEj 0x800613C0 f
_ZN13daLightBase_c16searchParent_objEj 0x80061420 f
_ZN13daLightBase_c20searchParent_centerAEj 0x80061480 f
_ZN13daLightBase_c20searchParent_centerBEj 0x800614E0 f
_ZN13daLightBase_c12searchParentEjj 0x80061540  f
_ZN13daLightBase_c13setParentInfoEP8dActor_c 0x80061590 f
_ZN13daLightBase_c13rotation_moveEP8dActor_c 0x800616A0 f
_ZN13daLightBase_c6createEv     0x80061820      f
_ZN13daLightBase_c4drawEv       0x800618B0      f
_ZN13daLightBase_c13rotation_moveEv 0x800618F0  f
_ZN13daLightBase_c13setParentInfoEv 0x80061950  f
_ZN13daLightBase_c14calcLightOnOffEv 0x800619C0 f
_ZN13daLightBase_c24initializeState_SearchIDEv 0x80061A60 f
_ZN13daLightBase_c22finalizeState_SearchIDEv 0x80061A70 f
_ZN13daLightBase_c21executeState_SearchIDEv 0x80061A80 f
_ZN13daLightBase_c20initializeState_MoveEv 0x80061AD0 f
_ZN13daLightBase_c18finalizeState_MoveEv 0x80061AE0 f
_ZN13daLightBase_c17executeState_MoveEv 0x80061AF0 f
_ZN13daLightBase_cD0Ev          0x80061B00      f
__sinit_\d_a_right_base_cpp     0x80061B60      f
_ZN11sFStateID_cI13daLightBase_cED0Ev 0x80061D50 f
_ZN18sFStateVirtualID_cI13daLightBase_cED0Ev 0x80061DB0 f
_ZNK18sFStateVirtualID_cI13daLightBase_cE6numberEv 0x80061E10 f
_ZNK18sFStateVirtualID_cI13daLightBase_cE7superIDEv 0x80061EF0 f
_ZNK11sFStateID_cI13daLightBase_cE10isSameNameEPKc 0x80061FD0 f
_ZNK11sFStateID_cI13daLightBase_cE15initializeStateER13daLightBase_c 0x80062060 f
_ZNK11sFStateID_cI13daLightBase_cE12executeStateER13daLightBase_c 0x80062090 f
_ZNK11sFStateID_cI13daLightBase_cE13finalizeStateER13daLightBase_c 0x800620C0 f
_ZN12daRotBlock_c14rot_block_initEff 0x800620F0 f
_ZN12daRotBlock_c16scroll_out_checkEv 0x800621B0 f
_ZN12daRotBlock_cD0Ev           0x800621C0      f
_ZN15daRotObjsBase_c13obj_bg_data_tD0Ev 0x80062260 f
_ZN15daRotObjsBase_cD0Ev        0x800622A0      f
_Z13baseID_SearchI10sStateID_cERK12sStateIDIf_cv 0x80062300 f
_Z11baseID_MoveI10sStateID_cERK12sStateIDIf_cv 0x80062310 f
_ZN15daRotObjsBase_c20searchParent_centerAEj 0x80062320 f
_ZN15daRotObjsBase_c20searchParent_centerBEj 0x80062380 f
_ZN15daRotObjsBase_c12searchParentEj 0x800623E0 f
_ZN15daRotObjsBase_c13setParentInfoEPK8dActor_c 0x80062420 f
_ZN15daRotObjsBase_c13rotation_moveEPK8dActor_c 0x80062450 f
_ZN15daRotObjsBase_c13setParentInfoEj 0x80062520 f
_ZN15daRotObjsBase_c13rotation_moveEv 0x800625A0 f
hash_A0098770_C9E8E12A          0x80062600      f
_ZN15daRotObjsBase_c6createEv   0x80062610      f
_ZN15daRotObjsBase_c7executeEv  0x800626A0      f
_ZN15daRotObjsBase_c7preDrawEv  0x80062750      f
_ZN15daRotObjsBase_c8doDeleteEv 0x800627A0      f
_ZN15daRotObjsBase_c16scroll_out_checkEv 0x80062800 f
_ZN15daRotObjsBase_c18post_execute_stateEv 0x80062810 f
_ZN15daRotObjsBase_c22initializeState_SearchEv 0x80062820 f
_ZN15daRotObjsBase_c20finalizeState_SearchEv 0x80062830 f
_ZN15daRotObjsBase_c19executeState_SearchEv 0x80062840 f
_ZN15daRotObjsBase_c20initializeState_MoveEv 0x80062850 f
_ZN15daRotObjsBase_c18finalizeState_MoveEv 0x80062910 f
_ZN15daRotObjsBase_c17executeState_MoveEv 0x80062920 f
__sinit_\d_a_rot_objs_base_cpp  0x80062980      f
_ZN11sFStateID_cI15daRotObjsBase_cED0Ev 0x80062B60 f
_ZN18sFStateVirtualID_cI15daRotObjsBase_cED0Ev 0x80062BC0 f
_ZNK18sFStateVirtualID_cI15daRotObjsBase_cE6numberEv 0x80062C20 f
_ZNK18sFStateVirtualID_cI15daRotObjsBase_cE7superIDEv 0x80062D00 f
_ZNK11sFStateID_cI15daRotObjsBase_cE10isSameNameEPKc 0x80062DE0 f
_ZNK11sFStateID_cI15daRotObjsBase_cE15initializeStateER15daRotObjsBase_c 0x80062E70 f
_ZNK11sFStateID_cI15daRotObjsBase_cE12executeStateER15daRotObjsBase_c 0x80062EA0 f
_ZNK11sFStateID_cI15daRotObjsBase_cE13finalizeStateER15daRotObjsBase_c 0x80062ED0 f
_ZN13daSinkDokan_c6createEv     0x80062F00      f
_ZN13daSinkDokan_c9adjustPosEv  0x80063070      f
_ZN13daSinkDokan_c15calcMoveDistMaxEv 0x80063080 f
_ZN13daSinkDokan_c11setMoveDistEv 0x80063090    f
_ZN13daSinkDokan_c9createMdlEv  0x800630B0      f
_ZN13daSinkDokan_c7executeEv    0x80063200      f
_ZN13daSinkDokan_c4drawEv       0x80063270      f
_ZN13daSinkDokan_c11deleteReadyEv 0x80063620    f
_ZN13daSinkDokan_c8doDeleteEv   0x80063630      f
_ZN13daSinkDokan_c12setDokanUnitEv 0x800636E0   f
_ZN13daSinkDokan_c19setDokanUnit_NormalEv 0x80063740 f
_ZN13daSinkDokan_c18setDokanUnit_BreakEv 0x80063750 f
_ZN13daSinkDokan_c17setDokanUnit_TwinEv 0x80063760 f
_ZN13daSinkDokan_cD0Ev          0x80063770      f
_ZN17daSpinChildBase_c12searchParentEj 0x80063820 f
_ZN17daSpinChildBase_c13setParentInfoEP8dActor_c 0x80063880 f
_ZN17daSpinChildBase_c16move_with_parentEP8dActor_c 0x80063890 f
_ZN17daSpinChildBase_c16move_with_parentEv 0x80063900 f
_ZN17daSpinChildBase_c13setParentInfoEj 0x80063960 f
_ZN17daSpinChildBase_c6createEv 0x800639E0      f
_ZN17daSpinChildBase_c7executeEv 0x80063AC0     f
_ZN17daSpinChildBase_c7preDrawEv 0x80063B60     f
_ZN17daSpinChildBase_c4initEv   0x80063BB0      f
_ZN17daSpinChildBase_c9init_moveEv 0x80063BC0   f
_ZN17daSpinChildBase_c18post_execute_stateEv 0x80063BD0 f
_ZN17daSpinChildBase_c24initializeState_SearchIDEv 0x80063BE0 f
_ZN17daSpinChildBase_c22finalizeState_SearchIDEv 0x80063BF0 f
_ZN17daSpinChildBase_c21executeState_SearchIDEv 0x80063C00 f
_ZN17daSpinChildBase_c20initializeState_MoveEv 0x80063C10 f
_ZN17daSpinChildBase_c18finalizeState_MoveEv 0x80063C20 f
_ZN17daSpinChildBase_c17executeState_MoveEv 0x80063C30 f
__sinit_\d_a_spin_child_base_cpp 0x80063C40     f
_ZN11sFStateID_cI17daSpinChildBase_cED0Ev 0x80063E00 f
_ZNK11sFStateID_cI17daSpinChildBase_cE10isSameNameEPKc 0x80063E60 f
_ZNK11sFStateID_cI17daSpinChildBase_cE15initializeStateER17daSpinChildBase_c 0x80063EF0 f
_ZNK11sFStateID_cI17daSpinChildBase_cE12executeStateER17daSpinChildBase_c 0x80063F20 f
_ZNK11sFStateID_cI17daSpinChildBase_cE13finalizeStateER17daSpinChildBase_c 0x80063F50 f
_ZN16daZoomPipeBase_c4initEj    0x80063F80      f
_ZN16daZoomPipeBase_c7executeEv 0x80064030      f
_ZN8dActor_cC1Ev                0x80064110      f
_ZN8dActor_cD0Ev                0x800642B0      f
_ZN8dActor_c9preCreateEv        0x80064350      f
_ZN8dActor_c10postCreateEN7fBase_c12MAIN_STATE_eE 0x80064380 f
_ZN8dActor_c9preDeleteEv        0x80064390      f
_ZN8dActor_c10postDeleteEN7fBase_c12MAIN_STATE_eE 0x800643E0 f
_ZN8dActor_c10preExecuteEv      0x800643F0      f
_ZN8dActor_c11postExecuteEN7fBase_c12MAIN_STATE_eE 0x80064490 f
_ZN8dActor_c7preDrawEv          0x80064540      f
_ZN8dActor_c8postDrawEN7fBase_c12MAIN_STATE_eE 0x800645E0 f
_ZNK8dActor_c13getKindStringEv  0x800645F0      f
_ZN8dActor_c12setTmpCtDataEh    0x80064600      f
_ZN8dActor_c9constructEtmPK7mVec3_cPK7mAng3_ch 0x80064610 f
_ZN8dActor_c9constructEtP7dBase_cmPK7mVec3_cPK7mAng3_ch 0x80064680 f
_ZN8dActor_c7setKindEh          0x800646E0      f
_ZN8dActor_c23setSearchNearPlayerFuncEi 0x80064720 f
_ZN8dActor_c16searchNearPlayerER7mVec2_c 0x80064740 f
_ZN8dActor_c21searchNearPlayer_MainER7mVec2_cRK7mVec2_c 0x80064790 f
_ZN8dActor_c22searchNearPlayerNormalER7mVec2_cRK7mVec2_c 0x800647A0 f
_ZN8dActor_c20searchNearPlayerLoopER7mVec2_cRK7mVec2_c 0x80064880 f
_ZN8dActor_c21setGetTrgToSrcDirFuncEi 0x80064A10 f
_ZN8dActor_c19getTrgToSrcDir_MainEff 0x80064A30 f
_ZN8dActor_c20getTrgToSrcDirNormalEff 0x80064A40 f
_ZN8dActor_c18getTrgToSrcDirLoopEff 0x80064A50  f
_ZN8dActor_c14changePosAngleEP7mVec3_cP7mAng3_ci 0x80064AF0 f
_ZN8dActor_c21setChangePosAngleFuncEi 0x80064B00 f
_ZN8dActor_c11setLoopFuncEi     0x80064B10      f
_ZN8dActor_c11checkAreaNoEv     0x80064B50      f
_ZN8dActor_c19setSoftLight_PlayerERN3m3d6bmdl_cE 0x80064BC0 f
_ZN8dActor_c18setSoftLight_EnemyERN3m3d6bmdl_cE 0x80064BD0 f
_ZN8dActor_c16setSoftLight_MapERN3m3d6bmdl_cE 0x80064BE0 f
_ZN8dActor_c19setSoftLight_MapObjERN3m3d6bmdl_cE 0x80064BF0 f
_ZN8dActor_c17setSoftLight_BossERN3m3d6bmdl_cE 0x80064C00 f
_ZN8dActor_c17setSoftLight_ItemERN3m3d6bmdl_cE 0x80064C10 f
_ZN8dActor_c11deleteActorEh     0x80064D10      f
hash_8E3F21D1_98340D7A          0x80064DA0      f
_ZN8dActor_c16ActorScrOutCheckEt 0x80064F50     f
_ZN8dActor_c18ActorDrawCullCheckEv 0x80065080   f
_ZN8dActor_c15HasamareBgCheckEv 0x80065110      f
_ZN8dActor_c19carryFukidashiCheckEi7mVec2_c 0x800651C0 f
_ZN8dActor_c20carryFukidashiCancelEii 0x80065480 f
_ZN8dActor_c26searchCarryFukidashiPlayerEi 0x80065520 f
_ZNK8dActor_c12getLookatPosEv   0x80065620      f
_ZN8dActor_c14block_hit_initEv  0x80065650      f
_ZN8dActor_c19allEnemyDeathEffSetEv 0x80065660  f
hash_29739D7C_D1D92374          0x800656C0      f
_ZN8dActor_c18setSpinLiftUpActorEP8dActor_c 0x80065820 f
_ZN8dActor_c12setEatTongueEP8dActor_c 0x80065830 f
_ZN8dActor_c15setEatTongueOffEP8dActor_c 0x80065850 f
_ZN8dActor_c11setEatMouthEP8dActor_c 0x80065860 f
_ZN8dActor_c13setEatSpitOutEP8dActor_c 0x80065870 f
_ZN8dActor_c14setEatGlupDownEP8dActor_c 0x80065880 f
_ZN8dActor_c16setAfterEatScaleEv 0x80065950     f
_ZN8dActor_c14calcSpitOutPosEP8dActor_c 0x80065970 f
_ZN8dActor_c16calcEatScaleRateEP8dActor_c 0x80065A00 f
_ZN8dActor_c14calcEatInScaleEP8dActor_c 0x80065A40 f
_ZN8dActor_c7eatMoveEP8dActor_c 0x80065AC0      f
hash_1B91189F_69F80DD8          0x80065B40      f
_ZN8dActor_c20cancelFunsuiActUpperEv 0x80065B50 f
_ZN8dActor_c19cancelFunsuiActSideEi 0x80065B60  f
_ZN8dActor_c21cancelFunsuiActVanishEv 0x80065B70 f
_ZN8dActor_c12slideComboSEEib   0x80065B80      f
_ZN8dActor_c11clrComboCntEv     0x80065CB0      f
_ZN8dActor_c17waterSplashEffectERK7mVec3_cf 0x80065CC0 f
_ZN8dActor_c17yoganSplashEffectERK7mVec3_cf 0x80065DC0 f
_ZN8dActor_c18poisonSplashEffectERK7mVec3_cf 0x80065EC0 f
_ZN8dActor_c12checkCarriedEPi   0x80065FC0      f
_ZN8dActor_c8removeCcEv         0x80066080      f
_ZN8dActor_c8reviveCcEv         0x80066090      f
__sinit_\d_actor_cpp            0x800660A0      f
_ZN18dActorGroupIdMng_c11allDoDeleteEv 0x800660C0 f
hash_D824959F_6AC811A5          0x80066120      f
hash_18FE19A9_0CEFCAD3          0x800661C0      f
_ZN18dActorGroupIdMng_c13groupId_checkEih 0x80066220 f
_ZN18dActorGroupIdMng_c12getGroupBuffEiPm 0x80066330 f
__sinit_\d_actor_groupid_mng_cpp 0x80066360     f
_ZN11dActorMng_cC1Ev            0x80066380      f
_ZN11dActorMng_c14FloorEntryInfoC1Ev 0x800663D0 f
_ZN11dActorMng_c14FloorEntryInfoD0Ev 0x800663E0 f
_ZN11dActorMng_cD0Ev            0x80066420      f
_ZN11dActorMng_c17ActorInfoAllClearEv 0x80066490 f
_ZN11dActorMng_c13getEnvLightNoEv 0x800664F0    f
_ZN11dActorMng_c16envAllWaterCheckEv 0x80066540 f
_ZN11dActorMng_c13envObakeCheckEv 0x80066570    f
hash_D7DDDAE3_31DF8D06          0x800665A0      f
_ZN11dActorMng_c12getObjBgZposEh 0x800665D0     f
_ZN11dActorMng_c12createUpCoinERK7mVec3_chhh 0x80066630 f
_ZN11dActorMng_c14createJumpCoinERK7mVec3_chh 0x80066740 f
_ZN11dActorMng_c19createBlockDownCoinERK7mVec3_chh 0x800667B0 f
_ZN11dActorMng_c24floorEntryBufferAllClearEv 0x80066820 f
_ZN11dActorMng_c21floorEntryBufferClearEi 0x80066860 f
_ZN11dActorMng_c21floorEntryBufferEntryEPN11dActorMng_c14FloorEntryInfoE 0x80066890 f
_ZN11dActorMng_c21floorEntryBufferCheckEP7mVec2_c 0x800668F0 f
hash_B4519B49_EDF65AAC          0x800669B0      f
_ZN11dActorMng_c13allEnemyDeathEi 0x80066A40    f
_ZN11dActorMng_c19soroban_playercheckEv 0x80066C60 f
_ZN11dActorMng_c20soroban_fuki_executeEv 0x80066EA0 f
_ZN11dActorMng_c11finalUpdateEv 0x80066EC0      f
_ZN11dActorMng_c7executeEv      0x80066F70      f
_Z15baseID_GegnericI10sStateID_cERK12sStateIDIf_cv 0x80066FB0 f
_ZN13dActorState_cC1Ev          0x80066FC0      f
_ZN9sFState_cI13dActorState_cED0Ev 0x80067060   f
_ZN12sFStateFct_cI13dActorState_cED0Ev 0x800670A0 f
_ZN11sStateMgr_cI13dActorState_c20sStateMethodUsr_FI_c12sFStateFct_c13sStateIDChk_cED0Ev 0x800670E0 f
_ZN12sFStateMgr_cI13dActorState_c20sStateMethodUsr_FI_cED0Ev 0x80067140 f
_ZN13dActorState_cD0Ev          0x800671B0      f
_ZN13dActorState_c24initializeState_GegnericEv 0x80067230 f
_ZN13dActorState_c22finalizeState_GegnericEv 0x80067240 f
_ZN13dActorState_c21executeState_GegnericEv 0x80067250 f
_Z20baseID_GegnericMultiI10sStateID_cERK12sStateIDIf_cv 0x80067260 f
_ZN18dActorMultiState_cD0Ev     0x80067270      f
_ZN17sFStateStateMgr_cI18dActorMultiState_c20sStateMethodUsr_FI_c20sStateMethodUsr_FI_cED0Ev 0x80067320 f
_ZN16sStateStateMgr_cI18dActorMultiState_c12sFStateMgr_c20sStateMethodUsr_FI_c20sStateMethodUsr_FI_cED0Ev 0x800673B0 f
_ZN12sFStateMgr_cI18dActorMultiState_c20sStateMethodUsr_FI_cED0Ev 0x80067440 f
_ZN11sStateMgr_cI18dActorMultiState_c20sStateMethodUsr_FI_c12sFStateFct_c13sStateIDChk_cED0Ev 0x800674B0 f
_ZN12sFStateFct_cI18dActorMultiState_cED0Ev 0x80067510 f
_ZN9sFState_cI18dActorMultiState_cED0Ev 0x80067550 f
_ZN18dActorMultiState_c29initializeState_GegnericMultiEv 0x80067590 f
_ZN18dActorMultiState_c27finalizeState_GegnericMultiEv 0x800675A0 f
_ZN18dActorMultiState_c26executeState_GegnericMultiEv 0x800675B0 f
_ZN18dActorMultiState_c11changeStateERK12sStateIDIf_c 0x800675C0 f
_ZN16sStateStateMgr_cI18dActorMultiState_c12sFStateMgr_c20sStateMethodUsr_FI_c20sStateMethodUsr_FI_cE11changeStateERK12sStateIDIf_c 0x800675D0 f
_ZN11sStateMgr_cI13dActorState_c20sStateMethodUsr_FI_c12sFStateFct_c13sStateIDChk_cE15initializeStateEv 0x800675F0 f
_ZN11sStateMgr_cI13dActorState_c20sStateMethodUsr_FI_c12sFStateFct_c13sStateIDChk_cE13finalizeStateEv 0x80067600 f
_ZNK11sStateMgr_cI13dActorState_c20sStateMethodUsr_FI_c12sFStateFct_c13sStateIDChk_cE13getOldStateIDEv 0x80067610 f
_ZN12sFStateFct_cI13dActorState_cE5buildERK12sStateIDIf_c 0x80067620 f
_ZN12sFStateFct_cI13dActorState_cE7disposeERP10sStateIf_c 0x80067680 f
_ZN9sFState_cI13dActorState_cE10initializeEv 0x80067690 f
_ZN9sFState_cI13dActorState_cE7executeEv 0x800676B0 f
_ZN9sFState_cI13dActorState_cE8finalizeEv 0x800676D0 f
_ZNK11sStateMgr_cI13dActorState_c20sStateMethodUsr_FI_c12sFStateFct_c13sStateIDChk_cE8getStateEv 0x800676F0 f
_ZNK11sStateMgr_cI13dActorState_c20sStateMethodUsr_FI_c12sFStateFct_c13sStateIDChk_cE13getNewStateIDEv 0x80067700 f
_ZNK11sFStateID_cI13dActorState_cE13finalizeStateER13dActorState_c 0x80067710 f
_ZNK11sFStateID_cI13dActorState_cE12executeStateER13dActorState_c 0x80067740 f
_ZNK11sFStateID_cI13dActorState_cE15initializeStateER13dActorState_c 0x80067770 f
_ZNK11sFStateID_cI18dActorMultiState_cE13finalizeStateER18dActorMultiState_c 0x800677A0 f
_ZNK11sFStateID_cI18dActorMultiState_cE12executeStateER18dActorMultiState_c 0x800677D0 f
_ZNK11sFStateID_cI18dActorMultiState_cE15initializeStateER18dActorMultiState_c 0x80067800 f
__sinit_\d_actor_state_cpp      0x80067830      f
_ZN11sFStateID_cI13dActorState_cED0Ev 0x80067A20 f
_ZN18sFStateVirtualID_cI13dActorState_cED0Ev 0x80067A80 f
_ZN11sFStateID_cI18dActorMultiState_cED0Ev 0x80067AE0 f
_ZN18sFStateVirtualID_cI18dActorMultiState_cED0Ev 0x80067B40 f
_ZNK18sFStateVirtualID_cI18dActorMultiState_cE6numberEv 0x80067BA0 f
_ZNK18sFStateVirtualID_cI18dActorMultiState_cE7superIDEv 0x80067C80 f
_ZNK18sFStateVirtualID_cI13dActorState_cE6numberEv 0x80067D60 f
_ZNK18sFStateVirtualID_cI13dActorState_cE7superIDEv 0x80067E40 f
_ZNK11sFStateID_cI18dActorMultiState_cE10isSameNameEPKc 0x80067F20 f
_ZNK11sFStateID_cI13dActorState_cE10isSameNameEPKc 0x80067FB0 f
_ZN17dActorCreateMng_c20ActorCreateInfoClearEv 0x80068040 f
_ZN17dActorCreateMng_c17ScroolAreaInCheckEiiiiii 0x80068070 f
_ZN17dActorCreateMng_c21ScroolAreaInLoopCheckEiiiiii 0x800680A0 f
_ZN17dActorCreateMng_c17setMapActorCreateEv 0x800680B0 f
_ZN17dActorCreateMng_c22setMapActorCreate_nextEv 0x80068140 f
_ZN17dActorCreateMng_c18MapActorInital_setEv 0x800681F0 f
_ZN17dActorCreateMng_c19MapActorInital_nextEv 0x80068230 f
hash_35ADAAA0_B52B635E          0x80068290      f
hash_E8F9A8B8_172E2CFB          0x800682F0      f
_ZN17dActorCreateMng_c12GroupIdCheckEm 0x80068310 f
hash_93D74123_01BF25BA          0x80068320      f
_ZN17dActorCreateMng_c25MapActorScroolCreateCheckEv 0x80068620 f
hash_C924485F_049A9795          0x80068850      f
_ZN17dActorCreateMng_c12incZposCountEv 0x80068BA0 f
_ZN17dActorCreateMng_c12addZposCountEv 0x80068BC0 f
_ZN17dActorCreateMng_c19incZposCount_layer2Ev 0x80068C30 f
_ZN17dActorCreateMng_c19addZposCount_layer2Ev 0x80068C50 f
_ZN17dActorCreateMng_c18incMapObjZposCountEv 0x80068CC0 f
_ZN17dActorCreateMng_c18addMapObjZposCountEv 0x80068CE0 f
_ZN17dActorCreateMng_c25incMapObjZposCount_layer2Ev 0x80068D50 f
_ZN17dActorCreateMng_c25addMapObjZposCount_layer2Ev 0x80068D70 f
hash_3DDD5EC1_77AA6DB8          0x80068DE0      f
_ZN16dHeapAllocator_cC1Ev       0x80069020      f
_ZN16dHeapAllocator_cD0Ev       0x80069060      f
_ZN16dHeapAllocator_c13createFrmHeapEmPN3EGG4HeapEPKcm 0x800690C0 f
_ZN16dHeapAllocator_c13adjustFrmHeapEv 0x800690E0 f
_ZN12dAttention_cC1Ev           0x800690F0      f
_ZN12dAttention_cD0Ev           0x80069110      f
_ZN12dAttention_c5resetEv       0x80069150      f
_ZN12dAttention_c6updateEv      0x800691B0      f
_ZN12dAttention_c5entryE9fBaseID_e 0x80069240   f
_ZN12dAttention_c6searchE7mVec3_c 0x80069270    f
_ZN12dAttention_c12searchPlayerEPK8dActor_c7mVec3_c 0x800693E0 f
_ZN6dAudio16onForbidRemoteSEEv  0x80069500      f
_ZN6dAudio17offForbidRemoteSEEv 0x80069510      f
_ZN6dAudio16isForbidRemoteSEEv  0x80069520      f
_ZN6dAudio15getRemotePlayerEi   0x80069530      f
_ZN6dAudio11enterSysErrEv       0x80069580      f
_ZN6dAudio10exitSysErrEv        0x80069590      f
_ZN6dAudio8enterHBMEv           0x800695A0      f
_ZN6dAudio7exitHBMEv            0x800695B0      f
_ZN6dAudio16exitHBMWithResetEv  0x800695C0      f
_ZN6dAudio5resetEi              0x800695D0      f
_ZN6dAudio4exitEv               0x800695E0      f
_ZN6dAudio12enterSysWarnEv      0x800695F0      f
_ZN6dAudio11exitSysWarnEv       0x80069600      f
_ZN6dAudio11cvtSndSceneEtm      0x80069610      f
_ZN6dAudio4initEPN3EGG4HeapE    0x80069720      f
_ZN6dAudio17createSndObjctCmnEv 0x80069820      f
hash_931A84E0_96268A1C          0x800699D0      f
hash_FDA1E187_96268B3B          0x80069A00      f
_ZN14NMSndObjectCmnIXLi12EEED0Ev 0x80069A60     f
_ZN14SndObjctCmnEmyD0Ev         0x80069AE0      f
_ZN17NMNonPosSndObjectIXLi2EEE14SoundHandlePrmC1Ev 0x80069B60 f
_ZN17NMNonPosSndObjectIXLi2EEE14SoundHandlePrmD0Ev 0x80069B70 f
_ZN17NMNonPosSndObjectIXLi2EEED0Ev 0x80069BD0   f
_ZN6dAudio17deleteSndObjctCmnEv 0x80069C50      f
_ZN6dAudio16SndObjctCmnEmy_cD0Ev 0x80069CF0     f
_ZN6dAudio16SndObjctCmnMap_cD0Ev 0x80069D70     f
_ZN6dAudio19NonPosSndObjctAmb_cD0Ev 0x80069DD0  f
_ZN6dAudio21createNonPosSndObjPlyEv 0x80069E50  f
_ZN17NMNonPosSndObjectIXLi1EEE14SoundHandlePrmC1Ev 0x80069F20 f
_ZN17NMNonPosSndObjectIXLi1EEE14SoundHandlePrmD0Ev 0x80069F30 f
_ZN17NMNonPosSndObjectIXLi1EEED0Ev 0x80069F90   f
_ZN6dAudio21deleteNonPosSndObjPlyEv 0x8006A010  f
_ZN6dAudio19NonPosSndObjctPly_cD0Ev 0x8006A090  f
_ZN6dAudio12clearBgmInfoEv      0x8006A110      f
_ZN6dAudio13updateBgmInfoEv     0x8006A130      f
_ZN6dAudio13getBgmBeatTrgEv     0x8006A1C0      f
_ZN6dAudio12isBgmBeatTrgEh      0x8006A1D0      f
_ZN6dAudio16getBgmAccentSignEv  0x8006A1F0      f
_ZN6dAudio15isBgmAccentSignEh   0x8006A200      f
_ZN6dAudio22getBgmAccentSignCreditEv 0x8006A220 f
_ZN6dAudio11getBgmTempoEv       0x8006A230      f
_ZN6dAudio12setMainBgmNoEi      0x8006A240      f
_ZN6dAudio12getMainBgmNoEv      0x8006A250      f
_ZN6dAudio10setBgmModeEi        0x8006A260      f
_ZN6dAudio10getBgmModeEv        0x8006A270      f
_ZN6dAudio4bootEv               0x8006A280      f
_ZN6dAudio17requestStartSceneEt 0x8006A2B0      f
_ZN6dAudio7executeEv            0x8006A320      f
_ZN6dAudio14cvtSndObjctPosERK7mVec2_c 0x8006A3F0 f
_ZN6dAudio14cvtSndObjctPosERK7mVec3_c 0x8006A4B0 f
_ZN6dAudio18cvtSndObjctPos_LytERK7mVec3_c 0x8006A570 f
_ZN6dAudio17cvtSndObjctPos_CSERK7mVec3_c 0x8006A5E0 f
_ZN6dAudio12setNextSceneEtm     0x8006A620      f
hash_A2BD17FF_6BCC38CC          0x8006A6A0      f
_ZN6dAudio15cb_loadSceneSndEPv  0x8006A6E0      f
_ZN6dAudio12loadSceneSndEv      0x8006A6F0      f
_ZN6dAudio14prepareGameBGMEib   0x8006A730      f
_ZN6dAudio11loadGameBGMEi       0x8006A750      f
_ZN6dAudio16isLoadedSceneSndEv  0x8006A760      f
_ZN6dAudio9pauseMoveEi          0x8006A7D0      f
_ZN6dAudio12pauseOffMoveEi      0x8006A7F0      f
_ZN6dAudio14clearPauseMoveEv    0x8006A810      f
_ZN6dAudio8setPauseEm           0x8006A830      f
_ZN6dAudio21pauseOffGameWithResetEv 0x8006A990  f
_ZN6dAudio17isPreparePauseSndEv 0x8006A9A0      f
_ZN17NMNonPosSndObjectIXLi2EEE10startSoundEmm 0x8006A9B0 f
_ZN17NMNonPosSndObjectIXLi2EEE10startSoundEmsm 0x8006AA90 f
_ZN17NMNonPosSndObjectIXLi2EEE9holdSoundEmm 0x8006ABB0 f
_ZN17NMNonPosSndObjectIXLi2EEE9holdSoundEmsm 0x8006ACF0 f
_ZN17NMNonPosSndObjectIXLi1EEE10startSoundEmm 0x8006AE70 f
_ZN17NMNonPosSndObjectIXLi1EEE10startSoundEmsm 0x8006AF50 f
_ZN17NMNonPosSndObjectIXLi1EEE9holdSoundEmm 0x8006B070 f
_ZN17NMNonPosSndObjectIXLi1EEE9holdSoundEmsm 0x8006B1B0 f
_ZN14NMSndObjectCmnIXLi12EEE10startSoundEmRKN4nw4r4math4VEC2Em 0x8006B330 f
_ZN14NMSndObjectCmnIXLi12EEE10startSoundEmRKN4nw4r4math4VEC2Esm 0x8006B6C0 f
_ZN14NMSndObjectCmnIXLi12EEE9holdSoundEmRKN4nw4r4math4VEC2Em 0x8006BA90 f
_ZN14NMSndObjectCmnIXLi12EEE9holdSoundEmiRKN4nw4r4math4VEC2Em 0x8006BBA0 f
_ZN14NMSndObjectCmnIXLi12EEE9holdSoundEmiRKN4nw4r4math4VEC2Esm 0x8006BDB0 f
__sinit_\d_audio_cpp            0x8006C020      f
__arraydtor$73806               0x8006C090      f
_ZN13dBalloonMng_c16BalloonInfoClearEv 0x8006C0B0 f
_ZN13dBalloonMng_c9setItemIdE9fBaseID_e 0x8006C0E0 f
_ZN13dBalloonMng_c14item_max_checkEv 0x8006C120 f
_ZN13dBalloonMng_c7executeEv    0x8006C1C0      f
_ZN7dAcPy_c8isChangeEv          0x8006C400      f
_ZN7dBase_cC1Ev                 0x8006C420      f
_ZN7dBase_cD0Ev                 0x8006C490      f
_ZN7dBase_c20searchBaseByProfNameEtPK7dBase_c 0x8006C500 f
_ZN7dBase_c9preCreateEv         0x8006C540      f
_ZN7dBase_c10postCreateEN7fBase_c12MAIN_STATE_eE 0x8006C570 f
_ZN7dBase_c9preDeleteEv         0x8006C580      f
_ZN7dBase_c10postDeleteEN7fBase_c12MAIN_STATE_eE 0x8006C5B0 f
_ZN7dBase_c10preExecuteEv       0x8006C5C0      f
_ZN7dBase_c11postExecuteEN7fBase_c12MAIN_STATE_eE 0x8006C600 f
_ZN7dBase_c7preDrawEv           0x8006C610      f
_ZN7dBase_c8postDrawEN7fBase_c12MAIN_STATE_eE 0x8006C650 f
_ZNK7dBase_c13getKindStringEv   0x8006C660      f
hash_BA89CD42_A94161EA          0x8006C670      f
hash_A89ED87F_65C74417          0x8006C680      f
_ZN7dBase_c10initLoaderEv       0x8006C690      f
_ZN7dBase_c10createBaseEtP7dBase_cmh 0x8006C6B0 f
_ZN7dBase_c10createRootEtmh     0x8006C6C0      f
_ZN12dBaseActor_cC1Ev           0x8006C6D0      f
_ZN12dBaseActor_cD0Ev           0x8006C7F0      f
_ZN12dBaseActor_c9preCreateEv   0x8006C870      f
_ZN12dBaseActor_c10postCreateEN7fBase_c12MAIN_STATE_eE 0x8006C8A0 f
_ZN12dBaseActor_c9preDeleteEv   0x8006C8B0      f
_ZN12dBaseActor_c10postDeleteEN7fBase_c12MAIN_STATE_eE 0x8006C8E0 f
_ZN12dBaseActor_c10preExecuteEv 0x8006C8F0      f
_ZN12dBaseActor_c11postExecuteEN7fBase_c12MAIN_STATE_eE 0x8006C980 f
_ZN12dBaseActor_c7preDrawEv     0x8006C9F0      f
_ZN12dBaseActor_c8postDrawEN7fBase_c12MAIN_STATE_eE 0x8006CA40 f
_ZN12dBaseActor_c6draw2DEv      0x8006CA50      f
_ZN12dBaseActor_c11draw2D_lyt2Ev 0x8006CA60     f
_ZN12dBaseActor_c12setTmpCtDataEPK7mVec3_cPK7mAng3_c 0x8006CA70 f
_ZN12dBaseActor_c9constructEtmPK7mVec3_cPK7mAng3_c 0x8006CA80 f
_ZN12dBaseActor_c17draw2DActorOnLyt1Ev 0x8006CAE0 f
_ZN12dBaseActor_c17draw2DActorOnLyt2Ev 0x8006CB40 f
_ZN12dBaseActor_c9constructEtP7dBase_cmPK7mVec3_cPK7mAng3_c 0x8006CBA0 f
_ZN12dBaseActor_c9calcSpeedEv   0x8006CC00      f
_ZN12dBaseActor_c7makeMtxEv     0x8006CCB0      f
_ZN12dBaseActor_c7posMoveER7mVec3_c 0x8006CD00  f
_ZN12dBaseActor_c7posMoveEv     0x8006CD40      f
_ZN12dBaseActor_c11calcSpeedXYEv 0x8006CD50     f
_ZN12dBaseActor_c10calcSpeedXEv 0x8006CD90      f
_ZN12dBaseActor_c10calcSpeedYEv 0x8006CDE0      f
_ZN12dBaseActor_c10calcSpeedFEv 0x8006CE10      f
_ZN12dBaseActor_c13calcFallSpeedEv 0x8006CE70   f
_ZNK12dBaseActor_c12getCenterPosEv 0x8006CED0   f
_ZN12dBaseActor_c19GetProfNameActorNumEt 0x8006CF10 f
__sinit_\d_base_actor_cpp       0x8006CF20      f
_ZN5dBc_cC1Ev                   0x8006CF40      f
_ZN5dBc_cD0Ev                   0x8006CFA0      f
_ZN5dBc_c4initEv                0x8006CFE0      f
_ZN5dBc_c5clearEv               0x8006D000      f
hash_3C577093_723E6911          0x8006D090      f
_ZN5dBc_c14checkManyPointEPff   0x8006D120      f
_ZN5dBc_c8isBGCoinEm            0x8006D160      f
_ZN5dBc_c9getBGCoinEmmmP7mVec3_ci 0x8006D170    f
_ZN5dBc_c17setWakuCoinAppearEmmmP7mVec3_c 0x8006D3B0 f
_ZN5dBc_c11clearDamageEv        0x8006D440      f
_ZN5dBc_c15setBgDamageFlagEiff  0x8006D460      f
_ZN5dBc_c15_checkBreakUnitEmhff 0x8006D6D0      f
_ZN5dBc_c14checkBreakUnitEmhffhah 0x8006D770    f
_ZN5dBc_c17setHatenaBlockHitEmhff 0x8006D8A0    f
_ZN5dBc_c16setBreakBlockHitEmhff 0x8006D9B0     f
_ZN5dBc_c9checkFootEv           0x8006DB30      f
hash_EF07DBE9_F0DA8E41          0x8006DD50      f
hash_AE1817C8_95D7BCA1          0x8006DE10      f
_ZN5dBc_c10_checkFootEffm       0x8006DFC0      f
_ZN5dBc_c15_checkFootBlockEffm  0x8006E490      f
_ZN5dBc_c18_checkFootSakaTypeEffPmPm 0x8006E620 f
_ZN5dBc_c14_checkFootSakaEm     0x8006E720      f
_ZN5dBc_c13_checkSakaFlyEmm     0x8006EDB0      f
_ZN5dBc_c11_attrNormalEv        0x8006EE90      f
_ZN5dBc_c9_attrNumaEv           0x8006EEA0      f
_ZN5dBc_c10_attrRightEv         0x8006EEE0      f
_ZN5dBc_c9_attrLeftEv           0x8006EF10      f
_ZN5dBc_c9checkHeadEm           0x8006EF40      f
hash_367F93F3_F863831B          0x8006F0E0      f
hash_6A5A9952_8F89C17B          0x8006F1D0      f
_ZN5dBc_c10_checkHeadEffm       0x8006F3E0      f
_ZN5dBc_c15_checkHeadBlockEffm  0x8006F600      f
_ZN5dBc_c13_checkHeadRevEmfm    0x8006F750      f
_ZN5dBc_c14_checkHeadSakaEm     0x8006F7E0      f
_ZN5dBc_c9checkWallEPf          0x8006FA40      f
_ZN5dBc_c15checkWallCommonEii   0x8006FAA0      f
hash_C40405C4_B7F9C07A          0x8006FBF0      f
hash_E71EC705_4B36039A          0x8006FCF0      f
_ZN5dBc_c16_checkCancelWallEff  0x8006FEA0      f
_ZN5dBc_c10_checkWallEffmi      0x80070130      f
_ZN5dBc_c15_isDifferentPosEff   0x800704D0      f
_ZN5dBc_c8getPlrNoEf            0x80070530      f
_ZN5dBc_c8getActorEf            0x800705B0      f
_ZN5dBc_c11setFootAttrEh        0x80070600      f
_ZN5dBc_c15_checkFootAttr2Em    0x80070630      f
_ZN5dBc_c14_checkFootAttrEm     0x80070650      f
_ZN5dBc_c14_checkHeadAttrEm     0x800706A0      f
_ZN5dBc_c14_checkWallAttrEmi    0x800706E0      f
_ZN5dBc_c11getFootAttrEv        0x80070720      f
_ZN5dBc_c11getHeadAttrEv        0x80070730      f
_ZN5dBc_c11getWallAttrEi        0x80070740      f
_ZN5dBc_c11getSakaTypeEv        0x80070760      f
_ZN5dBc_c10getSakaDirEv         0x800707E0      f
_ZN5dBc_c13getSakaUpDownEh      0x80070820      f
_ZN5dBc_c13getSakaUpDownEhm     0x80070870      f
_ZN5dBc_c12getSakaAngleEh       0x800708C0      f
_ZN5dBc_c19getSakaAngleBySpeedEf 0x80070900     f
_ZN5dBc_c16getSakaMoveAngleEh   0x80070920      f
_ZN5dBc_c16getHeadSakaAngleEh   0x80070960      f
_ZN5dBc_c20getHeadSakaMoveAngleEh 0x80070980    f
_ZN5dBc_c7checkBgEffhhm         0x800709C0      f
_ZN5dBc_c17checkHitMameBlockEffh 0x80070A40     f
_ZN5dBc_c16checkBgMameBlockEffh 0x80070B10      f
_ZN5dBc_c11getUnitTypeEffh      0x80070BA0      f
_ZN5dBc_c11getUnitKindEffh      0x80070BF0      f
_ZN5dBc_c12_getUnitTypeEtth     0x80070C40      f
_ZN5dBc_c12_getUnitKindEtth     0x80070C60      f
_ZN5dBc_c12getActorKindEv       0x80070C80      f
_ZN5dBc_c9checkRideEv           0x80070CA0      f
_ZN5dBc_c6isFootEv              0x80070CB0      f
_ZN5dBc_c15checkRidePlayerEP8dActor_cm 0x80070CD0 f
_ZN5dBc_c12checkBgPlrUDEP8dActor_c 0x80070E70   f
_ZN5dBc_c12checkBgPlrLREP8dActor_c 0x80070EF0   f
_ZN5dBc_c19checkBgMameBlockPlrEh 0x80071060     f
_ZN5dBc_c10checkBgPlrEP8dActor_c 0x80071210     f
_ZN5dBc_c14checkRideAgainEP8dActor_cm 0x800713B0 f
_ZN5dBc_c14checkDokanDownEP7mVec3_cPi 0x800714D0 f
_ZN5dBc_c12checkDokanUpEP7mVec3_cPi 0x800717A0  f
_ZN5dBc_c12checkDokanLREP7mVec3_chPiff 0x80071A60 f
hash_0593CA33_E581E04C          0x80071DC0      f
hash_DAE57231_3F366ECE          0x80072180      f
hash_15D27C7C_A4B7AA60          0x800722C0      f
_ZN5dBc_c15checkWallPlayerEPK7mVec3_cPK7mVec3_cPf 0x80072440 f
hash_10DBC0BE_708D5A22          0x80072790      f
_ZN5dBc_c15checkRoofPlayerEPK7mVec3_cPf 0x800728C0 f
_ZN5dBc_c12checkFootEnmEv       0x80072BC0      f
_ZN5dBc_c12checkWallEnmEPf      0x80072CB0      f
_ZN5dBc_c17setObjBgCheckFuncEi  0x80072D00      f
_ZN5dBc_c10getFootOfsEP7mVec3_c 0x80072DB0      f
_ZN5dBc_c10getHeadOfsEP7mVec3_c 0x80072F10      f
_ZN5dBc_c10getWallOfsEP7mVec3_ci 0x80073070     f
_ZN5dBc_c14setRideOnObjBgEP9dBg_ctr_cRK7mVec3_c 0x800731E0 f
_ZN5dBc_c17_checkObjFootLoopEmf 0x80073210      f
hash_7251A774_F1B8B225          0x80073290      f
_ZN5dBc_c13_checkObjFootEmf     0x80073670      f
hash_E6B55211_54F55289          0x80073AC0      f
_ZN5dBc_c17_checkObjHeadLoopEmf 0x80073B40      f
hash_74E9CF3C_9547C459          0x80073BC0      f
_ZN5dBc_c13_checkObjHeadEmf     0x80073FC0      f
_ZN5dBc_c17_checkObjWallLoopEmif 0x800743D0     f
hash_EFFC9AD9_06A720DE          0x80074470      f
_ZN5dBc_c13_checkObjWallEmif    0x80074AF0      f
_ZN5dBc_c12getObjBgCoinEP9dBg_ctr_cP7mVec3_cm 0x80074FF0 f
_ZN5dBc_c15clearBgcSaveAllEv    0x80075070      f
_ZN5dBc_c9checkLinkEv           0x80075090      f
_ZN5dBc_c8setLinkWEP9dBg_ctr_cP5dBc_c 0x800751C0 f
_ZN5dBc_c8getLinkWEP9dBg_ctr_c  0x80075230      f
_ZN5dBc_c10checkWaterEffhPf     0x80075270      f
_ZN5dBc_c14checkWaterFaceEffhPf 0x80075560      f
_ZN5dBc_c17getAirWaterHitPosEP7mVec2_c 0x80075750 f
_ZN5dBc_c19getAirWaterHitAngleEPs 0x80075780    f
_ZN5dBc_c11checkGroundEPK7mVec3_cPfhha 0x800757B0 f
_ZN5dBc_c11checkGroundEPK7mVec3_cPfPihha 0x800757E0 f
_ZN5dBc_c15checkGroundHalfEPK7mVec3_cPfhh 0x80075800 f
_ZN5dBc_c16checkGroundAngleEPK7mVec3_cPfPshhaPii 0x80075820 f
_ZN5dBc_c11checkTenjouEPK7mVec3_cPfhh 0x80075CA0 f
_ZN5dBc_c9checkWallEPK7mVec3_cPK7mVec3_cPfhhPP8dActor_c 0x80075FD0 f
_ZN5dBc_c15checkWaterDepthEffhhPf 0x80076530    f
_ZN5dBc_c10checkObjBgEffhh      0x80076630      f
hash_1A9324B4_16AEB8FF          0x800766F0      f
_ZN5dBc_c12checkWireNetEffh     0x800767F0      f
_ZN5dBc_c14checkBombBreakE7mVec2_c7mVec2_c 0x800768D0 f
__sinit_\d_bc_cpp               0x80076BB0      f
_ZN17dBeansKuriboMng_c25BeansKuriboClrRandamCountEv 0x80076BC0 f
_ZN17dBeansKuriboMng_c23BeansKuriboInfoAllClearEv 0x80076BF0 f
_ZN17dBeansKuriboMng_c18setBeansKuriboInfoE9fBaseID_ea 0x80076D70 f
_ZN17dBeansKuriboMng_c24getBeansKuriboRandamInfoE9fBaseID_eita 0x80076DC0 f
_ZN17dBeansKuriboMng_c21deleteBeansKuriboInfoEt 0x80076FB0 f
_ZN5dBg_c13bg_createHeapEv      0x80076FD0      f
_ZN5dBg_c14bg_destroyHeapEv     0x80077020      f
_ZN5dBg_cC1Ev                   0x80077060      f
_ZN5dBg_c16dBg_autoScroll_cC1Ev 0x80077390      f
_ZN5dBg_c16dBg_autoScroll_cD0Ev 0x800773A0      f
_ZN5dBg_cD0Ev                   0x800773E0      f
_ZN5dBg_c14getBgCheckBuffEt     0x80077470      f
_ZN5dBg_c15getpBgCheckBuffEt    0x80077490      f
_ZN5dBg_c20CvtBgCheckFromUnitNoEt 0x800774A0    f
_ZN5dBg_c16__GetUnitPointerEtthPib 0x80077520   f
_ZN5dBg_c13GetUnitNumberEtthb   0x800775A0      f
_ZN5dBg_c19GetMaskedUnitNumberEtth 0x80077610   f
_ZN5dBg_c14GetBgCheckDataEtth   0x80077650      f
_ZN5dBg_c15GetUnitTypeInfoEtth  0x800776F0      f
_ZN5dBg_c15GetUnitKindInfoEtth  0x80077700      f
_ZN5dBg_c13CoinGetCommonEttiPtPtPt 0x80077730   f
_ZN5dBg_c13CoinGetBitSetEtti    0x800777B0      f
_ZN5dBg_c15CoinGetBitCheckEtti  0x80077810      f
_ZN5dBg_c12BgUnitChangeEttit    0x80077860      f
_ZN5dBg_c15CheckExistLayerEh    0x80077980      f
_ZN5dBg_c19CreateBgCheckBufferEv 0x80077A00     f
_ZN5dBg_c13DispScaleCalcEv      0x80077B00      f
_ZN5dBg_c11CreateBgTexEv        0x80077B40      f
_ZN5dBg_c11RemoveBgTexEv        0x80077D80      f
_ZN17dShareBgTexProc_cD0Ev      0x80077E30      f
_ZN5dBg_c13__createBgTexEittttii 0x80077EB0     f
_ZN5dBg_c13EntryWakuCoinEmtti   0x80078250      f
_ZN5dBg_c11SetWakuCoinEv        0x80078300      f
_ZN5dBg_c14setWaterInWaveEffh   0x80078410      f
_ZN5dBg_c9setBubbleEffhh        0x80078470      f
_ZN5dBg_c18InitWmSwitchPushedEv 0x800784D0      f
_ZN5dBg_c16IsWmSwitchPushedEv   0x80078510      f
_ZN5dBg_c14getPanelObjMgrEi     0x80078520      f
_ZN5dBg_c15dBg_isFlyPlayerEv    0x80078540      f
_ZN5dBg_c20dBg_isCloudFlyPlayerEv 0x800785E0    f
_ZN5dBg_c25dBg_isCloudFlyPlayerMultiEv 0x80078670 f
_ZN5dBg_c20dBg_getUpLimitScrollEh 0x80078780    f
_ZN5dBg_c23dBg_getScrlAreaDataSizeEh 0x80078800 f
_ZN5dBg_c20dBg_getScrlAreaDataPEhh 0x80078830   f
hash_E3BADD3F_0463301B          0x80078860      f
_ZN5dBg_c13getMaxLeftPosEv      0x800789A0      f
_ZN5dBg_c12getLeftLimitEv       0x80078A70      f
_ZN5dBg_c14getMaxRightPosEv     0x80078B40      f
_ZN5dBg_c13getRightLimitEv      0x80078C10      f
_ZN5dBg_c18getLeftLimitSingleEv 0x80078CE0      f
_ZN5dBg_c17getLeftLimitMultiEv  0x80078CF0      f
_ZN5dBg_c23getZoomTargetMin_CommonEv 0x80078D00 f
_ZN5dBg_c16getZoomTargetMinEv   0x80078EB0      f
_ZN5dBg_c23getZoomTargetMid_CommonEv 0x80078EF0 f
_ZN5dBg_c16getZoomTargetMidEv   0x80079020      f
_ZN5dBg_c23getZoomTargetMax_CommonEv 0x80079060 f
_ZN5dBg_c16getZoomTargetMaxEv   0x800791D0      f
_ZN5dBg_c17getZoomSpreadLineEv  0x80079250      f
_ZN5dBg_c18getZoomSpreadLine2Ev 0x80079380      f
_ZN5dBg_c17getZoomShrinkLineEv  0x800794B0      f
_ZN5dBg_c18getZoomShrinkLine2Ev 0x800795E0      f
_ZN5dBg_c14calcLookatOffsEv     0x80079710      f
_ZN5dBg_c19calcLookatOffsLimitEv 0x80079780     f
_ZN5dBg_c15calcLookatOffsXEP8dActor_c 0x800799E0 f
_ZN5dBg_c15calcLookatOffsYEP8dActor_c 0x80079AA0 f
_ZN5dBg_c14initAutoScrollEv     0x80079B60      f
_ZN5dBg_c18calcLoopAutoScrollEv 0x80079BF0      f
_ZN5dBg_c14calcAutoScrollEv     0x80079E80      f
_ZN5dBg_c16AutoScroll_startEv   0x8007A6A0      f
_ZN5dBg_c15AutoScroll_stopEv    0x8007A6B0      f
_ZN5dBg_c10calcScrollERK7mVec3_ci 0x8007A6C0    f
_ZN5dBg_c15calcMultiScrollEi    0x8007AB70      f
hash_251FBC8D_9CD6874D          0x8007AC40      f
hash_B298717B_988B508D          0x8007BA70      f
hash_AD397D0B_94DA1FBD          0x8007BBA0      f
hash_3F8CE318_B3F4556E          0x8007BBF0      f
hash_A7070961_A34A656D          0x8007BC40      f
hash_063E4BB0_13F140E6          0x8007BD40      f
_ZN5dBg_c10initScrollEv         0x8007BEF0      f
hash_010BF053_0D8B07F7          0x8007C7D0      f
_Z13isRightPlayerP7dAcPy_cP7dAcPy_c 0x8007C950  f
_Z12isLeftPlayerP7dAcPy_cP7dAcPy_c 0x8007C9C0   f
_Z10isUpPlayerP7dAcPy_cP7dAcPy_c 0x8007CA30     f
_Z12isDownPlayerP7dAcPy_cP7dAcPy_c 0x8007CA50   f
hash_8EEF23C2_F0D639E9          0x8007CA70      f
hash_116D50C1_A42BEA0C          0x8007CA90      f
hash_EF139FCC_186BAE84          0x8007CD70      f
hash_1C6E6AC9_D8362133          0x8007D5B0      f
hash_9B9D76DB_EF8E4F41          0x8007D770      f
hash_8261A179_4FE913E8          0x8007D930      f
hash_B199BA63_066E2C74          0x8007E060      f
_ZN5dBg_c20getAreaUpLimitScrollEv 0x8007E0E0    f
__sinit_\d_bg_cpp               0x8007E170      f
_ZN17dBgActorManager_cC1Ev      0x8007E180      f
_ZN17dBgActorManager_cD0Ev      0x8007E1D0      f
_ZN17dBgActorManager_c10initializeEv 0x8007E2C0 f
_ZN17dBgActorManager_c6createEv 0x8007E3D0      f
_ZN17dBgActorManager_c10CreateHeapEv 0x8007E430 f
_ZN17dBgActorManager_c7executeEv 0x8007E4E0     f
_ZN17dBgActorManager_c8ProcMainEv 0x8007E520    f
_ZN17dBgActorManager_c6addObjEttth 0x8007E7F0   f
_ZN17dBgActorManager_c13createObjListEb 0x8007E860 f
_ZN17dBgActorManager_c7BgObj_c4initEv 0x8007EA30 f
_ZN17dBgActorManager_c7BgObj_c5clearEv 0x8007EA50 f
_ZN17dBgActorManager_c7BgObj_c3setEttth 0x8007EA60 f
_ZN17dBgActorManager_c7BgObj_c11createActorEmR7mVec3_c 0x8007EA80 f
_ZN17dBgActorManager_c7BgObj_c11deleteActorEv 0x8007EB70 f
_ZN17dBgActorManager_c7BgObj_c9getOffsetEv 0x8007EBC0 f
_ZN17dBgActorManager_c7BgObj_c7getSizeEv 0x8007EBF0 f
__sinit_\d_bg_actor_mng_cpp     0x8007EC20      f
__arraydtor$67758               0x8007F6E0      f
_ZN17dBgActorManager_c11BgObjName_tD0Ev 0x8007F700 f
__arraydtor$67764               0x8007F740      f
__arraydtor$67766               0x8007F760      f
__arraydtor$67768               0x8007F780      f
_ZN9dBg_ctr_cC1Ev               0x8007F7A0      f
_ZN7mVec2_cC1Ev                 0x8007F800      f
_ZN9dBg_ctr_cD0Ev               0x8007F810      f
_ZN9dBg_ctr_c5resetEv           0x8007F880      f
_ZN9dBg_ctr_c4initEv            0x8007F8A0      f
_ZN9dBg_ctr_c5entryEv           0x8007F900      f
_ZN9dBg_ctr_c7releaseEv         0x8007F950      f
_ZN9dBg_ctr_c10set_commonEP8dActor_cPFvP8dActor_cP8dActor_cEPFvP8dActor_cP8dActor_cEPFvP8dActor_cP8dActor_chEhh 0x8007F9B0 f
_ZN9dBg_ctr_c3setEP8dActor_cffffPFvP8dActor_cP8dActor_cEPFvP8dActor_cP8dActor_cEPFvP8dActor_cP8dActor_chEhhP7mVec3_c 0x8007FA40 f
_ZN9dBg_ctr_c3setEP8dActor_c7mVec2_c7mVec2_cPFvP8dActor_cP8dActor_cEPFvP8dActor_cP8dActor_cEPFvP8dActor_cP8dActor_chEhhP7mVec3_c 0x8007FAD0 f
_ZN9dBg_ctr_c3setEP8dActor_cPK10sBgSetInfohhP7mVec3_c 0x8007FB10 f
_ZN9dBg_ctr_c10set_circleEP8dActor_cfffPFvP8dActor_cP8dActor_cEPFvP8dActor_cP8dActor_cEPFvP8dActor_cP8dActor_chEhh 0x8007FB80 f
_ZN9dBg_ctr_c6setOfsEffffP7mVec3_c 0x8007FBF0   f
_ZN9dBg_ctr_c6setOfsE7mVec2_c7mVec2_cP7mVec3_c 0x8007FCC0 f
_ZN9dBg_ctr_c8setOfsX1Ef        0x8007FCE0      f
_ZN9dBg_ctr_c8setOfsY1Ef        0x8007FD10      f
_ZN9dBg_ctr_c8setOfsX2Ef        0x8007FD40      f
_ZN9dBg_ctr_c8setOfsY2Ef        0x8007FD60      f
_ZN9dBg_ctr_c10setAngleY3EPs    0x8007FD80      f
_ZN9dBg_ctr_c4calcEv            0x8007FDA0      f
hash_996D3758_917C8271          0x8007FFA0      f
_ZN9dBg_ctr_c9revisePosEv       0x80080170      f
_ZN9dBg_ctr_c16addDokanMoveDiffEP7mVec3_c 0x80080290 f
_ZN9dBg_ctr_c16setLinkNetPlayerEP5dBc_c 0x800803F0 f
_ZN9dBg_ctr_c16getLinkNetPlayerEa 0x80080490    f
_ZN9dBg_ctr_c21setLinkWallSlidPlayerEP5dBc_c 0x80080530 f
_ZN9dBg_ctr_c6updateEv          0x800805D0      f
_ZN9dBg_ctr_c11updateObjBgEv    0x80080630      f
hash_3354552A_D974FCAD          0x80080670      f
hash_98AC11AC_3C075204          0x80080880      f
hash_7177DE44_3FF6D2D5          0x80080900      f
_ZN9dBg_ctr_c13upperRevCheckEP8dActor_c 0x80080D00 f
_ZN9dBg_ctr_c13underRevCheckEP8dActor_c 0x80080D40 f
_ZN9dBg_ctr_c12sideRevCheckEP8dActor_ch 0x80080D80 f
_ZN9dBg_ctr_c18CheckRevUpperSpeedEP8dActor_cP8dActor_c 0x80080DC0 f
_ZN9dBg_ctr_c18CheckRevUnderSpeedEP8dActor_cP8dActor_c 0x80080DE0 f
_ZN9dBg_ctr_c17CheckRevSideSpeedEP8dActor_cP8dActor_ch 0x80080E00 f
hash_4438F05E_9E804032          0x80080E40      f
_ZN9dBg_ctr_c18checkRevisionStateEm 0x80081030  f
_ZN11dBgGlobal_cC1Ev            0x80081070      f
_ZN11dBgGlobal_cD0Ev            0x80081300      f
_ZN11dBgGlobal_c14getEnvironmentEii 0x800813F0  f
_ZN11dBgGlobal_c14setEnvironmentEv 0x80081410   f
_ZN11dBgGlobal_c14loadCourseDataEv 0x800814D0   f
_ZN11dBgGlobal_c10expandUnitEv  0x800816A0      f
_ZN11dBgGlobal_c12reexpandUnitEi 0x80081780     f
_ZN11dBgGlobal_c6createEPN3EGG7FrmHeapE 0x80081800 f
_ZN11dBgGlobal_c10GetBgUnitPEii 0x80081850      f
_ZN11dBgGlobal_c15getUnitHeadDataEiit 0x80081870 f
_ZN11dBgGlobal_c8getUnitPEiit   0x80081890      f
_ZN11dBgGlobal_c14getCourseDataPEii 0x800818B0  f
hash_A94830CC_C2FFFDA9          0x800818D0      f
hash_D11D0867_3A66FCEB          0x800818E0      f
hash_15FF66C1_C41EC6A6          0x80081900      f
hash_0503E0F9_81C61D23          0x80081960      f
hash_0AD537D4_C0FE5C18          0x80081AB0      f
hash_A2C17F24_D993E037          0x80081BA0      f
hash_780EF688_B19A0083          0x80081BE0      f
hash_493B3120_4D8CDB2B          0x80081C40      f
_ZN14dBgParameter_cC1Ev         0x80081D20      f
_ZN14dBgParameter_cD0Ev         0x80081E90      f
_ZN14dBgParameter_c12OnlyOneSetUpEv 0x80081F40  f
_ZN14dBgParameter_c14OnlyOneDestroyEv 0x80082050 f
_ZN14dBgParameter_c14freeOneGetBuffEti 0x800820D0 f
_ZN14dBgParameter_c13getOneGetBuffEtti 0x80082120 f
_ZN14dBgParameter_c13setOneGetBuffEttit 0x80082140 f
_ZN14dBgParameter_c9clrSwDataEv 0x80082160      f
_ZN14dBgParameter_c17setNowScrollDir_XEv 0x80082180 f
_ZN14dBgParameter_c17setNowScrollDir_YEv 0x800821E0 f
_ZN14dBgParameter_c21getLoopScrollDispPosXEf 0x80082240 f
hash_6A2D6E46_64B288BC          0x800822E0      f
_ZN7bgTex_cC1Ev                 0x80082310      f
_ZN7bgTex_cD0Ev                 0x80082370      f
_ZN7bgTex_c6createEttttiiPN3EGG4HeapEt 0x80082410 f
_ZN7bgTex_c6removeEv            0x80082560      f
_ZN7bgTex_c7drawOpaEv           0x800825E0      f
_ZN7bgTex_c7drawXluEv           0x80082660      f
_ZN7bgTex_c12setOpaBufferEttt   0x800826C0      f
_ZN7bgTex_c15GetBufferOffsetEv  0x800826E0      f
_ZN7bgTex_c10drawBufferEPKt     0x80082740      f
hash_42D77CFE_97AAC9EB          0x80082BE0      f
hash_59A53D8E_628390CE          0x80082ED0      f
_ZN7bgTex_c13setUnitChangeEttt  0x80083380      f
_ZN17dShareBgTexProc_c6createEP7bgTex_cPN3EGG4HeapE 0x800833E0 f
_ZN17dShareBgTexProc_c7drawOpaEv 0x80083440     f
_ZN17dShareBgTexProc_c7drawXluEv 0x80083470     f
_ZN17dShareBgTexProc_c6removeEv 0x80083480      f
hash_1ADA5C28_50AEED6B          0x80083490      f
hash_85B62D62_6B1ADE21          0x800834B0      f
_ZN9dBgUnit_cD0Ev               0x800834D0      f
_ZN9dBgUnit_c6createEP9dBgUnit_cPN3EGG4HeapEii 0x80083560 f
_ZN9dBgUnit_c12InitBgBufferEv   0x80083660      f
_ZN9dBgUnit_c14CreateBgBufferEi 0x800837D0      f
_ZN9dBgUnit_c10initializeEv     0x80083870      f
_ZN9dBgUnit_c14setCurrentHeapEPN3EGG7FrmHeapE 0x80083AD0 f
_ZN9dBgUnit_c18restoreCurrentHeapEv 0x80083B30  f
_ZN9dBgUnit_c10GetBuffPosEttPib 0x80083B40      f
_ZN9dBgUnit_c15initEnvironmentEv 0x80083BD0     f
_ZN9dBgUnit_c15UnitDevelopBuffEPt 0x80083D00    f
hash_81193812_1FF6B235          0x80083E20      f
hash_E2608DC7_C4445776          0x80083EC0      f
hash_ACB8C3A4_BE2B7FB2          0x80083EE0      f
_ZN9dBgUnit_c13GetBgBufIndexEttb 0x80083F90     f
hash_64A2811B_5AEFBB06          0x80083FC0      f
hash_458788FD_966C437B          0x80084690      f
hash_C2392BCA_3BF7BA2D          0x80085780      f
hash_91EE4756_05A10831          0x800859F0      f
hash_6D47E78D_6DE804CA          0x80085E40      f
hash_3A91F5AF_6AB56A48          0x80085E80      f
hash_28A2284E_29FD3C49          0x80085FF0      f
hash_832AC3B1_0170C6B6          0x80086160      f
hash_08C008E5_66AA78E2          0x800861C0      f
hash_4F1A7AC2_193856E5          0x800861D0      f
hash_45F85B81_A7F02486          0x80086370      f
hash_A8AA58EB_A60EE90C          0x800866B0      f
hash_0CDF6286_1CD720C1          0x800866C0      f
hash_EBD95FE8_77DCC62F          0x80086750      f
hash_688210F0_AF427597          0x80086760      f
hash_0462C59D_2F3189FA          0x800868E0      f
hash_62E0FC15_8F0DEE92          0x80086A60      f
hash_53B90352_0C8090D5          0x80086B20      f
hash_87B5A2AE_70D47A92          0x80086D10      f
hash_2F3CB118_7C4D6384          0x80086EC0      f
hash_178A9B06_5324781A          0x80086FE0      f
__sinit_\d_bg_unit_cpp          0x80087100      f
_ZN9dBgTexMng13GetLayer0PosZEv  0x800872E0      f
_ZN9dBgTexMng13GetLayer1PosZEv  0x80087340      f
_ZN9dBgTexMng13GetLayer2PosZEv  0x80087360      f
_ZN11dBgTexMng_cC1Ev            0x80087380      f
_ZN11dBgTexMng_cD0Ev            0x80087410      f
_ZN11dBgTexMng_c6createEPN3EGG4HeapE 0x80087510 f
_ZN11dBgTexMng_c7executeEv      0x80087890      f
_ZN11dBgTexMng_c4drawEv         0x800878D0      f
_ZN11dBgTexMng_c7drawOpaEv      0x800878E0      f
hash_F19E8A00_07748C0C          0x80087940      f
_ZN11dBgTexMng_c15PanelAnimeObj_c7executeEv 0x800879A0 f
_ZN11dBgTexMng_c15PanelAnimeObj_c13updateTextureEPv 0x80087A40 f
hash_6BCED7B0_BCD1823B          0x80087AF0      f
hash_59DB63A4_A875FD5F          0x80087B60      f
_ZN11dBgTexMng_c19deleteAllPanelAnimeEv 0x80087C30 f
_ZN11dBgTexMng_c21GetDokanTexBufferSizeEv 0x80087CA0 f
_ZN11dBgTexMng_c20GetCopyTexBufferSizeEii 0x80087CB0 f
_ZN11dBgTexMng_c16CopyDokanTextureEPt 0x80087CF0 f
_ZN11dBgTexMng_c16CopyPanelTextureEPtPtiii 0x80087D70 f
_ZN11dBgTexMng_c17SetKoopaStageFlagEv 0x80087ED0 f
_ZN11dBgTexMng_c7drawXluEv      0x80087F30      f
hash_564C9768_96F1E215          0x80087F40      f
hash_5C30B599_9794870C          0x80088030      f
hash_3935BF32_4901E808          0x80088100      f
hash_52B9121A_49D1CC27          0x80088210      f
_ZN11dBlockMng_c18YoshiDispOutDeleteEv 0x80088270 f
hash_112021CA_1245CA76          0x800882E0      f
hash_2F8DA70E_3CBE9036          0x800883E0      f
hash_3BADBEB0_06395CA8          0x80088970      f
hash_0090B6A7_FF1766D7          0x80088B30      f
_ZN11dBlockMng_c17chikuwaCreate_setEP7mVec2_c 0x80088CF0 f
_ZN10dBoatLog_c9calcShakeEv     0x80088D90      f
_ZN10dBoatLog_c4initEv          0x80088DD0      f
_ZN10dBoatLog_c4moveEv          0x80088E80      f
_ZN3m3d9capture_cD0Ev           0x80088FD0      f
hash_4BB7EDD2_D00072B7          0x80089030      f
hash_061BC61F_17B1F85A          0x800890E0      f
hash_F6633E85_CD9F8A60          0x800890F0      f
hash_8D6D5B68_FAD12E8D          0x80089120      f
_ZN13dCaptureMng_cC1Ev          0x80089150      f
_ZN13dCaptureMng_cD0Ev          0x80089210      f
_ZN13dCaptureMng_c6createEv     0x800892F0      f
_ZN13dDrawScreen_cD0Ev          0x80089B00      f
_ZN13dCaptureMng_c7executeEv    0x80089B60      f
_ZN13dCaptureMng_c4drawEv       0x80089B80      f
hash_99FE466A_04444049          0x80089DC0      f
hash_A1146CB1_B92474F0          0x80089DE0      f
_ZN4nw4r3g3d15IScnObjCallback21ExecCallback_DRAW_XLUEN4nw4r3g3d6ScnObj6TimingEPN4nw4r3g3d6ScnObjEmPv 0x80089E00 f
_ZN4nw4r3g3d15IScnObjCallback21ExecCallback_DRAW_OPAEN4nw4r3g3d6ScnObj6TimingEPN4nw4r3g3d6ScnObjEmPv 0x80089E10 f
_ZN4nw4r3g3d15IScnObjCallback21ExecCallback_CALC_MATEN4nw4r3g3d6ScnObj6TimingEPN4nw4r3g3d6ScnObjEmPv 0x80089E20 f
_ZN4nw4r3g3d15IScnObjCallback23ExecCallback_CALC_WORLDEN4nw4r3g3d6ScnObj6TimingEPN4nw4r3g3d6ScnObjEmPv 0x80089E30 f
_ZNK3EGG11DrawPathDOF10getNumStepEv 0x80089E40  f
_ZN6dDOF_cD0Ev                  0x80089E50      f
_ZNK3EGG7IBinaryIN3EGG11DrawPathDOFEE13GetBinarySizeEv 0x80089EB0 f
_ZN3EGG7IBinaryIN3EGG11DrawPathDOFEE9SetBinaryEPKv 0x80089EC0 f
__sinit_\d_capture_mng_cpp      0x80089ED0      f
_ZN6dDOF_c7@8@__dtEv            0x8008A010      f
_ZN6dDOF_c8@20@__dtEv           0x8008A020      f
_ZN6dDOF_c8@24@__dtEv           0x8008A030      f
_ZN3EGG11DrawPathDOF18@24@SetBinaryInnerERKN3EGG7IBinaryIN3EGG11DrawPathDOFEE3BinE 0x8008A040 f
_ZN3EGG11DrawPathDOF18@24@SetBinaryInnerERKN3EGG7IBinaryIN3EGG11DrawPathDOFEE3BinERKN3EGG7IBinaryIN3EGG11DrawPathDOFEE3BinEf 0x8008A050 f
_ZNK3EGG11DrawPathDOF18@24@GetBinaryInnerEPN3EGG7IBinaryIN3EGG11DrawPathDOFEE3BinE 0x8008A060 f
_ZN3EGG12DrawPathBase14@8@scnProcDrawEt 0x8008A070 f
_ZN3EGG12DrawPathBase26@20@ExecCallback_CALC_VIEWEN4nw4r3g3d6ScnObj6TimingEPN4nw4r3g3d6ScnObjEmPv 0x8008A080 f
hash_DEDE215E_47FD13A2          0x8008A090      f
_ZN10dCamData_c4saveEv          0x8008A230      f
_ZN10dCamData_c4loadEv          0x8008A280      f
_ZN10dCapture_c6createEP12mAllocator_ci9_GXTexFmtN10dCapture_c13CaptureMode_eE 0x8008A2E0 f
_ZN10dCapture_c7drawOpaEv       0x8008A370      f
_ZN10dCapture_c7captureEN10dCapture_c13CaptureMode_eEb 0x8008A380 f
_ZN10dSetupGX_c6createEP12mAllocator_ciiPFvvEPFvvE 0x8008A5E0 f
_ZN10dSetupGX_c7drawOpaEv       0x8008A690      f
_ZN10dSetupGX_c7drawXluEv       0x8008A6B0      f
_ZN14dCaptureCoin_c6createEP12mAllocator_cN14dCaptureCoin_c11ModelType_eE 0x8008A6D0 f
_ZN14dCaptureCoin_c6removeEv    0x8008A770      f
_ZN14dCaptureCoin_c8drawCoinE6mMtx_c 0x8008A780 f
_ZN14dCaptureCoin_c7captureEv   0x8008A8E0      f
_ZN14dCaptureCoin_c8drawQuadE8_GXColor6mMtx_c 0x8008A9C0 f
_ZN14dCaptureCoin_c7drawOpaEv   0x8008AC60      f
_ZN14dCaptureCoin_c15CreateTexBufferEv 0x8008AF10 f
_ZN14dCaptureCoin_c11CreateModelEP12mAllocator_c 0x8008AF80 f
_ZN13dDrawScreen_c6createEP12mAllocator_cP10dCapture_ciifb 0x8008B030 f
_ZN13dDrawScreen_c7drawOpaEv    0x8008B0F0      f
_ZN13dDrawScreen_c7drawXluEv    0x8008B100      f
_ZN13dDrawScreen_c8drawQuadEv   0x8008B110      f
_ZN16dMakeShadowTex_c6createEP12mAllocator_cP10dCapture_cii 0x8008B2E0 f
_ZN16dMakeShadowTex_c7drawOpaEv 0x8008B2F0      f
_ZN16dMakeShadowTex_c7drawXluEv 0x8008B4F0      f
_ZN20dDrawShadowProjMap_c6createEP12mAllocator_cP10dCapture_cii 0x8008B500 f
_ZN20dDrawShadowProjMap_c7drawOpaEv 0x8008B510  f
_ZN20dDrawShadowProjMap_c8drawQuadEv 0x8008B520 f
hash_0305C8F1_F0F34A14          0x8008B830      f
hash_60C0C823_5286F4C6          0x8008BA00      f
_Z13drawShadowMdlPN4nw4r3g3d6ScnObjEPv 0x8008BBD0 f
_ZN18dDrawShadowModel_c6createEP12mAllocator_ci 0x8008BE60 f
_ZN18dDrawShadowModel_c7drawOpaEv 0x8008BED0    f
_ZN18dDrawShadowModel_c7drawXluEv 0x8008BF40    f
_ZN18dDrawShadowModel_cD0Ev     0x8008BF50      f
_ZN20dDrawShadowProjMap_c7drawXluEv 0x8008BFB0  f
_ZN20dDrawShadowProjMap_cD0Ev   0x8008BFC0      f
_ZN16dMakeShadowTex_cD0Ev       0x8008C030      f
_ZN14dCaptureCoin_c7drawXluEv   0x8008C0A0      f
_ZN14dCaptureCoin_cD0Ev         0x8008C0B0      f
_ZN10dSetupGX_cD0Ev             0x8008C130      f
_ZN10dCapture_c7drawXluEv       0x8008C190      f
_ZN10dCapture_cD0Ev             0x8008C1A0      f
_ZN5dCc_cC1Ev                   0x8008C200      f
_ZN5dCc_cD0Ev                   0x8008C260      f
_ZN5dCc_c5clearEv               0x8008C2C0      f
_ZN5dCc_c5entryEv               0x8008C330      f
_ZN5dCc_c7releaseEv             0x8008C380      f
_ZN5dCc_c3setEP8dActor_cP10sCcDatNewF 0x8008C3E0 f
_ZN5dCc_c3setEP8dActor_cP10sCcDatNewFh 0x8008C440 f
_ZN5dCc_c5resetEv               0x8008C480      f
_ZNK5dCc_c5isHitEt              0x8008C4B0      f
_ZNK5dCc_c10isHitAtDmgEt        0x8008C4C0      f
_ZN5dCc_c9getTopPosEv           0x8008C4D0      f
_ZN5dCc_c11getUnderPosEv        0x8008C4F0      f
_ZN5dCc_c13getCenterPosYEv      0x8008C510      f
_ZN5dCc_c11getRightPosEv        0x8008C530      f
_ZN5dCc_c10getLeftPosEv         0x8008C550      f
_ZN5dCc_c13getCenterPosXEv      0x8008C570      f
_ZN5dCc_c8isInsideEP5dCc_c      0x8008C590      f
_ZN5dCc_c14checkCollisionEP5dCc_cP5dCc_ci 0x8008C6E0 f
_ZN5dCc_c7executeEv             0x8008C9E0      f
_ZN5dCc_c15_hitCheckSquareEP5dCc_cP5dCc_c7mVec2_c7mVec2_c 0x8008CA50 f
_ZN5dCc_c15_hitCheckNormalEP5dCc_cP5dCc_c 0x8008CBA0 f
_ZN5dCc_c13_hitCheckLoopEP5dCc_cP5dCc_c 0x8008CC50 f
_ZN5dCc_c15_hitCheckCircleEP5dCc_cP5dCc_c 0x8008CDA0 f
_ZN5dCc_c18_hitCheckBoxCircleEP5dCc_cP5dCc_c 0x8008CF80 f
_ZN5dCc_c12_lineCheckUDE7mVec2_c7mVec2_cff 0x8008D3D0 f
_ZN5dCc_c19_hitCheckDaikeiUD_REP5dCc_cP5dCc_c 0x8008D450 f
_ZN5dCc_c17_hitCheckDaikeiUDEP5dCc_cP5dCc_c 0x8008D460 f
_ZN5dCc_c12_lineCheckLRE7mVec2_c7mVec2_cff 0x8008D820 f
_ZN5dCc_c19_hitCheckDaikeiLR_REP5dCc_cP5dCc_c 0x8008D8A0 f
_ZN5dCc_c17_hitCheckDaikeiLREP5dCc_cP5dCc_c 0x8008D8B0 f
__sinit_\d_cc_cpp               0x8008DC40      f
_ZN16dCenterSaveMng_cC1Ev       0x8008DC80      f
_ZN16dCenterSaveMng_cD0Ev       0x8008DC90      f
_ZN16dCenterSaveMng_c11allDoDeleteEv 0x8008DCF0 f
_ZN16dCenterSaveMng_c12center_checkEPK7mVec3_chPs 0x8008DD50 f
_ZN16dCenterSaveMng_c12center_entryEPK7mVec3_chs 0x8008DDB0 f
__sinit_\d_center_save_mng_cpp  0x8008DEB0      f
_ZN7dCoin_c7executeEv           0x8008DED0      f
__sinit_\d_coin_cpp             0x8008DFE0      f
_ZN9dCdFile_c14loadCourseDataEi 0x8008DFF0      f
_ZN9dCdFile_c14getScrollDataPEh 0x8008E310      f
_ZN9dCdFile_c11getBg2DataPEh    0x8008E350      f
_ZN9dCdFile_c11getBg3DataPEh    0x8008E390      f
_ZN9dCdFile_c12getNextGotoPEh   0x8008E3D0      f
_ZN9dCdFile_c12getAreaDataPEhP11sRangeDataF 0x8008E410 f
_ZN9dCdFile_c9getAreaIDEh       0x8008E4D0      f
_ZN9dCdFile_c13getAreaScrollEh  0x8008E500      f
_ZN9dCdFile_c15getAreaZoomTypeEh 0x8008E530     f
_ZN9dCdFile_c13getAreaZoomIDEh  0x8008E560      f
_ZN9dCdFile_c17getAreaZoomChangeEh 0x8008E590   f
_ZN9dCdFile_c10getAreaBgmEh     0x8008E5C0      f
_ZN9dCdFile_c14getAreaBgmModeEh 0x8008E5F0      f
_ZN9dCdFile_c13getAreaMaskNoEh  0x8008E620      f
_ZN9dCdFile_c10getAreaBg2Eh     0x8008E650      f
_ZN9dCdFile_c10getAreaBg3Eh     0x8008E680      f
_ZN9dCdFile_c15getAreaColorOBJEh 0x8008E6B0     f
_ZN9dCdFile_c14getAreaColorBGEh 0x8008E6E0      f
_ZN9dCdFile_c16getAreaDirectionEh 0x8008E710    f
_ZN9dCdFile_c12getAreaSizeXEh   0x8008E740      f
_ZN9dCdFile_c9getAreaNoEP7mVec3_c 0x8008E770    f
_ZN9dCdFile_c9getAreaNoEP13sRangePosSize 0x8008E800 f
_ZN9dCdFile_c13getRangeDataPEhP11sRangeDataF 0x8008E890 f
_ZN9dCdFile_c10checkRangeEP7mVec3_cP10sRangeData 0x8008E950 f
_ZN9dCdFile_c10checkRangeEP13sRangePosSizeP13sRangePosSize 0x8008EA20 f
_ZN9dCdFile_c16getScrlAreaDataPEh 0x8008EAF0    f
_ZN5dCd_c14createInstanceEPN3EGG4HeapE 0x8008EB20 f
_ZN9dCdFile_cC1Ev               0x8008EB90      f
_ZN9dCdFile_cD0Ev               0x8008EBA0      f
_ZN5dCd_c14deleteInstanceEv     0x8008EBE0      f
_ZN5dCd_c14loadCourseDataEv     0x8008EC40      f
_ZN5dCd_c16setCourseArcNameEiiPc 0x8008EC90     f
_ZN13dCurtainMng_c19CurtainInfoAllClearEv 0x8008ECC0 f
_ZN10dCyuukan_cC1Ev             0x8008ED70      f
_ZN10dCyuukan_c5clearEv         0x8008EDB0      f
_ZN10dCyuukan_c8courseINEv      0x8008EE00      f
_ZN10dCyuukan_c10checkEntryEv   0x8008EEC0      f
_ZN10dCyuukan_c14setCyuukanDataEiham 0x8008EF30 f
_ZN10dCyuukan_c14isCyuukanStartEihh 0x8008F000  f
_ZNK10dCyuukan_c8getPlrNoEi     0x8008F070      f
_ZN10dCyuukan_cD0Ev             0x8008F0D0      f
_ZN4dDvd6createElPN3EGG4HeapEPN3EGG4HeapE 0x8008F110 f
_ZN4dDvd8loader_cC1Ev           0x8008F140      f
_ZN4dDvd8loader_cD0Ev           0x8008F170      f
_ZN4dDvd8loader_c7requestEPKchPN3EGG4HeapE 0x8008F1B0 f
_ZN4dDvd8loader_c6removeEv      0x8008F2B0      f
_ZN4dDvd8loader_c11freeResouceEv 0x8008F310     f
_ZN4dDvd8loader_c8freeHeapEv    0x8008F380      f
_ZN4dDvd8loader_c13cancelCommandEv 0x8008F3F0   f
hash_2594ACC3_46E04CCB          0x8008F460      f
_ZNK24DynamicModuleControlBase13getModuleNameEv 0x8008F600 f
_ZN4dDyl6UnlinkEt               0x8008F610      f
_ZN4dDyl9LinkASyncEt            0x8008F620      f
_ZN21DynamicModuleCallback12InitCallbackEPv 0x8008F640 f
_ZNK3EGG7DvdFile11getFileSizeEv 0x8008F750      f
_ZN4dDyl9InitAsyncEv            0x8008F760      f
_ZN4dDyl15InitAsyncIsDoneEv     0x8008F7B0      f
_ZN21dDynamicModuleControlD0Ev  0x8008F810      f
_ZN21dDynamicModuleControlC1EPKcPN3EGG7ExpHeapE 0x8008F870 f
_ZN21dDynamicModuleControl7do_linkEv 0x8008F8B0 f
__sinit_\d_dylink_cpp           0x8008F8C0      f
_ZN3dEf14nameChangeProcEPKcPc   0x8008F920      f
_ZN3dEf19createEffect_changeEPKcmPK7mVec3_cPK7mAng3_cPK7mVec3_c 0x8008F9F0 f
_ZN3dEf25createEffect_level_changeEPN3mEf13levelEffect_cEPKcmPK7mVec3_cPK7mAng3_cPK7mVec3_c 0x8008FA60 f
_ZN3dEf26createEffect_follow_changeEPN3dEf14followEffect_cEPKcmPK7mVec3_cPK7mAng3_cPK7mVec3_c 0x8008FAE0 f
_ZN3dEf18createPlayerEffectEiPKcmPK7mVec3_cPK7mAng3_cPK7mVec3_c 0x8008FB60 f
_ZN3dEf18createPlayerEffectEiPN3mEf13levelEffect_cEPKcmPK7mVec3_cPK7mAng3_cPK7mVec3_c 0x8008FBA0 f
_ZN3dEf18createPlayerEffectEiPN3dEf14followEffect_cEPKcmPK7mVec3_cPK7mAng3_cPK7mVec3_c 0x8008FBF0 f
_ZN3dEf25createPlayerEffect_changeEiPKcmPK7mVec3_cPK7mAng3_cPK7mVec3_c 0x8008FC40 f
_ZN3dEf25createPlayerEffect_changeEiPN3mEf13levelEffect_cEPKcmPK7mVec3_cPK7mAng3_cPK7mVec3_c 0x8008FC80 f
_ZN3dEf25createPlayerEffect_changeEiPN3dEf14followEffect_cEPKcmPK7mVec3_cPK7mAng3_cPK7mVec3_c 0x8008FCD0 f
_ZN3dEf14dLevelEffect_c8isActiveEv 0x8008FD20   f
_ZN3dEf14dLevelEffect_cD0Ev     0x8008FDB0      f
_ZN18dEffBigBlockFrag_c6createEv 0x8008FE30     f
_ZN18dEffBigBlockFrag_c7executeEv 0x80090230    f
_ZN18dEffBigBlockFrag_c4drawEv  0x800903C0      f
_ZN18dEffBigBlockFrag_c8doDeleteEv 0x80090430   f
_ZN18dEffBigBlockFrag_c9draw_calcEv 0x80090440  f
_ZN18dEffBigBlockFrag_c16kazan_effect_setEv 0x80090590 f
_ZN18dEffBigBlockFrag_c9model_setEv 0x80090600  f
_ZN18dEffBigBlockFrag_cD0Ev     0x800907D0      f
_ZN18dEffBigBlockFrag_c11HahenData_sD0Ev 0x800908B0 f
_ZN11dEffActor_cD0Ev            0x800908F0      f
_ZN11dEffActor_c8doDeleteEv     0x80090960      f
_ZN11dEffActor_c4drawEv         0x80090970      f
_ZN11dEffActor_c7executeEv      0x80090980      f
_ZN11dEffActor_c6createEv       0x80090990      f
_ZN15dEffBlockFrag_c6createEv   0x800909A0      f
_ZN15dEffBlockFrag_c7executeEv  0x80090CF0      f
_ZN15dEffBlockFrag_c4drawEv     0x80090ED0      f
_ZN15dEffBlockFrag_c8doDeleteEv 0x80090EE0      f
_ZN15dEffBlockFrag_cD0Ev        0x80090F80      f
hash_E30DF48C_F5CE1AF9          0x80091040      f
_ZN15dEffBlockFrag_c11HahenData_sD0Ev 0x800910C0 f
_ZN13dEffIceFrag_c6createEv     0x80091100      f
_ZN13dEffIceFrag_c7executeEv    0x80091170      f
_ZN13dEffIceFrag_c4drawEv       0x800911D0      f
_ZN13dEffIceFrag_c8doDeleteEv   0x80091230      f
_ZN13dEffIceFrag_c9createMdlEv  0x800912A0      f
_ZN13dEffIceFrag_c7calcMdlEv    0x800913A0      f
_ZN13dEffIceFrag_c7initPosEv    0x800914C0      f
_ZN13dEffIceFrag_c9initSpeedEv  0x80091520      f
_ZN13dEffIceFrag_c9initAngleEv  0x80091620      f
_ZN13dEffIceFrag_c8moveProcEv   0x80091660      f
_ZN13dEffIceFrag_cD0Ev          0x80091790      f
_ZN14dEffWanChain_c6createEv    0x80091860      f
_ZN14dEffWanChain_c7executeEv   0x800918D0      f
_ZN14dEffWanChain_c4drawEv      0x80091930      f
_ZN14dEffWanChain_c8doDeleteEv  0x80091990      f
_ZN14dEffWanChain_c9createMdlEv 0x800919A0      f
_ZN14dEffWanChain_c7calcMdlEv   0x80091A80      f
_ZN14dEffWanChain_c7initPosEv   0x80091BA0      f
_ZN14dEffWanChain_c9initSpeedEv 0x80091C10      f
_ZN14dEffWanChain_c9initAngleEv 0x80091D10      f
_ZN14dEffWanChain_c8moveProcEv  0x80091D60      f
_ZN14dEffWanChain_cD0Ev         0x80091E90      f
_ZN17dEffWaterSplash_c6createEv 0x80091F60      f
_ZN17dEffWaterSplash_c7executeEv 0x80091FB0     f
_ZN17dEffWaterSplash_c4drawEv   0x80092010      f
_ZN17dEffWaterSplash_c8doDeleteEv 0x80092020    f
_ZN17dEffWaterSplash_c9createEffEv 0x80092030   f
_ZN17dEffWaterSplash_c9updatePosEv 0x80092150   f
_ZN17dEffWaterSplash_cD0Ev      0x80092200      f
_ZN11dEffActor_c7posMoveE7mVec3_c 0x80092290    f
_ZN11dEffActor_c10calcSpeedYEv  0x800922D0      f
_ZN14dEffActorMng_cC1Ev         0x80092300      f
_ZN14dEffActorMng_cD0Ev         0x80092310      f
hash_7393F3B4_839AF5EB          0x80092370      f
_ZN14dEffActorMng_c7executeEv   0x800923D0      f
_ZN14dEffActorMng_c4drawEv      0x80092480      f
_ZN14dEffActorMng_c11DeleteCheckEv 0x800924E0   f
_ZN14dEffActorMng_c11allDoDeleteEv 0x80092570   f
_ZN14dEffActorMng_c18createBlockFragEffER7mVec3_cma 0x800925F0 f
_ZN15dEffBlockFrag_c11HahenData_sC1Ev 0x80092700 f
hash_1367648B_D99485DE          0x80092710      f
_ZN14dEffActorMng_c16createIceFragEffER7mVec3_cma 0x80092720 f
_ZN14dEffActorMng_c21createBigBlockFragEffER7mVec3_cma 0x80092830 f
_ZN3m3d11anmMatClr_cC1Ev        0x80092970      f
_ZN18dEffBigBlockFrag_c11HahenData_sC1Ev 0x800929E0 f
_ZN14dEffActorMng_c20createWaterSplashEffER7mVec3_cma7mVec3_c 0x800929F0 f
_ZN14dEffActorMng_c17createWanChainEffER7mVec3_cma 0x80092AD0 f
__sinit_\d_effactor_mng_cpp     0x80092BE0      f
_ZN17dEffectProcBase_c6createEP12mAllocator_ciii 0x80092C00 f
_ZN15dWmEffectProc_c7drawOpaEv  0x80092CA0      f
_ZN15dWmEffectProc_c7drawXluEv  0x80092CB0      f
_ZN15dScEffectProc_c6createEP12mAllocator_ciii 0x80092D50 f
_ZN15dScEffectProc_c7drawOpaEv  0x80092DA0      f
_ZN15dScEffectProc_c7drawXluEv  0x80092DB0      f
_ZN15dScEffectProc_c10drawEffectEi 0x80092DC0   f
_ZN15dScEffectProc_cD0Ev        0x80092E30      f
_ZN15dWmEffectProc_cD0Ev        0x80092EA0      f
_ZN19dEffectGroupManager8getGroupEm 0x80092F10  f
_ZN15EffectManager_c9loadBreffEN15EffectManager_c6Kind_eEhPN3EGG4HeapE 0x80092FD0 f
_ZN15EffectManager_c9loadBreftEN15EffectManager_c6Kind_eEhPN3EGG4HeapE 0x800930A0 f
_ZN15EffectManager_c9freeBreffEN15EffectManager_c6Kind_eE 0x80093170 f
_ZN15EffectManager_c9freeBreftEN15EffectManager_c6Kind_eE 0x800931B0 f
_ZN15EffectManager_c6createEPN3EGG4HeapEPN3EGG4HeapE 0x800931F0 f
hash_866348FF_26FB4544          0x80093320      f
_ZN15EffectManager_c11setResourceEPvPv 0x800933C0 f
_ZN15EffectManager_c11setResourceEN15EffectManager_c6Kind_eEPvPv 0x80093440 f
_ZN15EffectManager_c13resetResourceEN15EffectManager_c6Kind_eE 0x800934D0 f
_ZN15EffectManager_c9courseOutEv 0x80093520     f
_ZN15EffectManager_c9calcGroupEv 0x80093530     f
_ZN15EffectManager_c14calcGroupForWmEv 0x80093A50 f
_ZN15EffectManager_c4drawERN4nw4r2ef8DrawInfoEii 0x80093E50 f
_ZN15EffectManager_c4drawEii    0x80093F10      f
_ZN15EffectManager_c13SetCoinEffectEP7mVec3_c 0x80094370 f
_ZN15EffectManager_c17SetBlueCoinEffectEP7mVec3_c 0x80094390 f
_ZN15EffectManager_c24SetIceBallMissshitEffectEP7mVec3_c 0x800943B0 f
hash_F87D403C_E1123292          0x800943D0      f
_ZN15EffectManager_c18SetQuickSandEffectEP7mVec3_c 0x800943F0 f
_ZN15EffectManager_c20SetKillerSmokeEffectEP7mVec3_cf 0x80094420 f
_ZN15EffectManager_c26SetKillerHoudaiSmokeEffectEP7mVec3_c 0x80094490 f
_ZN15EffectManager_c15SetIcicleEffectEP7mVec3_c 0x800944C0 f
_ZN15EffectManager_c17SetFireBallEffectEP7mVec3_c 0x800944F0 f
_ZN15EffectManager_c16SetIceBallEffectEP7mVec3_c 0x80094560 f
_ZN15EffectManager_c28SetKazanHahenFallSmokeEffectEP7mVec3_c 0x800945D0 f
_ZN15EffectManager_c27SetKazanRockFallSmokeEffectEP7mVec3_c 0x80094600 f
_ZN15EffectManager_c30SetKazanBigRockFallSmokeEffectEP7mVec3_c 0x80094630 f
hash_C4C97DD3_F37D0DF6          0x80094660      f
_ZN19dEffectGroupManagerD0Ev    0x800948F0      f
__sinit_\d_effectmanager_cpp    0x80094950      f
_ZN3mEf12oneEmitter_cD0Ev       0x80094DE0      f
__arraydtor$69164               0x80094E40      f
__arraydtor$69166               0x80094E60      f
_ZN5dEn_cC1Ev                   0x80094E80      f
_ZN14dEnFumiCheck_cD0Ev         0x800950B0      f
_ZN5dEn_cD0Ev                   0x80095130      f
_ZN5dEn_c10postCreateEN7fBase_c12MAIN_STATE_eE 0x800951D0 f
_ZN5dEn_c10preExecuteEv         0x80095240      f
_ZN5dEn_c11postExecuteEN7fBase_c12MAIN_STATE_eE 0x80095480 f
_ZN5dEn_c7preDrawEv             0x800954A0      f
_ZN5dEn_c15hitdamageEffectERK7mVec3_c 0x800954D0 f
_ZN5dEn_c16fumidamageEffectERK7mVec3_c 0x80095520 f
_ZN5dEn_c12hipatkEffectERK7mVec3_c 0x80095530   f
_ZN5dEn_c12fumidamageSEERK7mVec3_ci 0x80095580  f
hash_5C40DD1F_BB0F476F          0x800955D0      f
_ZN5dEn_c7posMoveEv             0x800955F0      f
_ZN5dEn_c5BoundEfff             0x800957B0      f
_ZN5dEn_c11checkDispInEv        0x80095890      f
_ZN5dEn_c16normal_collcheckEP5dCc_cP5dCc_c 0x80095950 f
_ZN5dEn_c19Normal_VsEnHitCheckEP5dCc_cP5dCc_c 0x80095C10 f
_ZN5dEn_c19Normal_VsPlHitCheckEP5dCc_cP5dCc_c 0x80095C20 f
_ZN5dEn_c22Normal_VsYoshiHitCheckEP5dCc_cP5dCc_c 0x80095C80 f
_ZN5dEn_c13EnDamageCheckEP5dCc_cP5dCc_c 0x80095CE0 f
_ZN5dEn_c13PlDamageCheckEP5dCc_cP5dCc_c 0x80095D30 f
_ZN5dEn_c16YoshiDamageCheckEP5dCc_cP5dCc_c 0x80095F50 f
_ZN5dEn_c14EtcDamageCheckEP5dCc_cP5dCc_c 0x80096060 f
_ZN5dEn_c11hitYoshiEatEP5dCc_cP5dCc_c 0x80096230 f
_ZN5dEn_c12getPl_LRflagERK7mVec3_c 0x80096240   f
_ZN5dEn_c12getPl_UDflagERK7mVec3_c 0x800962A0   f
_ZN5dEn_c9CeilCheckEfP5dCc_c    0x80096300      f
_ZN5dEn_c11carry_checkEP8dActor_c 0x80096330    f
hash_2A695FE4_76A88A14          0x800963B0      f
_ZN12FumiCcInfo_cD0Ev           0x80096460      f
_ZN5dEn_c12Enfumi_checkEP5dCc_cP5dCc_ci 0x800964A0 f
_ZN5dEn_c12FumiScoreSetEP8dActor_c 0x80096700   f
_ZN5dEn_c11FumiJumpSetEP8dActor_c 0x80096710    f
_ZN5dEn_c15MameFumiJumpSetEP8dActor_c 0x80096720 f
_ZN5dEn_c16YoshiFumiJumpSetEP8dActor_c 0x80096760 f
_ZN5dEn_c17YoshiFumiScoreSetEP8dActor_c 0x80096770 f
_ZN5dEn_c15SpinFumiJumpSetEP8dActor_c 0x80096780 f
_ZN5dEn_c16SpinFumiScoreSetEP8dActor_c 0x80096790 f
_ZN5dEn_c14PlayerFumiJumpEP8dActor_cf 0x800967A0 f
_ZN5dEn_c17setFumiComboScoreEP8dActor_c 0x800967F0 f
_ZN5dEn_c14checkComboClapEi     0x800968E0      f
_ZN5dEn_c6fumiSEEP8dActor_c     0x80096910      f
_ZN5dEn_c10spinfumiSEEP8dActor_c 0x80096A20     f
_ZN5dEn_c11yoshifumiSEEP8dActor_c 0x80096B30    f
_ZN5dEn_c10mamefumiSEEP8dActor_c 0x80096C40     f
_ZN5dEn_c10fumistepSEEP8dActor_c 0x80096CA0     f
_ZN5dEn_c15yoshifumistepSEEP8dActor_c 0x80096D00 f
_ZN5dEn_c10fumiEffectEP8dActor_c 0x80096D60     f
_ZN5dEn_c14spinfumiEffectEP8dActor_c 0x80096DF0 f
_ZN5dEn_c15yoshifumiEffectEP8dActor_c 0x80096E40 f
_ZN5dEn_c14mamefumiEffectEP8dActor_c 0x80096E50 f
_ZN5dEn_c9EnBgCheckEv           0x80096E60      f
_ZN5dEn_c13EnBgCheckFootEv      0x80096F60      f
_ZN5dEn_c13EnBgCheckWallEv      0x80097050      f
hash_60BE2E55_C0EFAF1E          0x80097170      f
_ZN5dEn_c17LineBoundaryCheckEP8dActor_c 0x800971F0 f
_ZN5dEn_c13WaterLineProcERK7mVec3_cf 0x80097250 f
_ZN5dEn_c17yoganSplashEffectERK7mVec3_cf 0x800973F0 f
_ZN5dEn_c18poisonSplashEffectERK7mVec3_cf 0x800974F0 f
_ZN5dEn_c11EnLavaCheckERK7mVec3_c 0x800975F0    f
_ZN5dEn_c12EnWaterCheckERK7mVec3_c 0x800976B0   f
_ZN5dEn_c16EnWaterFlagCheckERK7mVec3_c 0x80097700 f
_ZN5dEn_c13setWaterSpeedEv      0x80097770      f
_ZN5dEn_c12Area_X_checkEf       0x80097800      f
_ZN5dEn_c13Area_XY_checkEff     0x800978C0      f
_ZN5dEn_c16PlayerCarryCheckEP8dActor_c 0x800979B0 f
_ZN5dEn_c12calcCarryPosERK7mVec3_c 0x80097A20   f
_ZN5dEn_c14turnangle_calcEPKsPKs 0x80097B30     f
_ZN5dEn_c9slipBoundEP8dActor_c  0x80097B90      f
_ZN5dEn_c12setEatTongueEP8dActor_c 0x80097C40   f
_ZN5dEn_c15setEatTongueOffEP8dActor_c 0x80097CB0 f
_ZN5dEn_c13setEatSpitOutEP8dActor_c 0x80097D30  f
_ZN5dEn_c14calcEatInScaleEP8dActor_c 0x80097DF0 f
_ZN5dEn_c18setNicePoint_DeathEv 0x80097E30      f
_ZN5dEn_c15fireballInvalidEP5dCc_cP5dCc_c 0x80097E50 f
_ZN5dEn_c14iceballInvalidEP5dCc_cP5dCc_c 0x80097EA0 f
_ZN5dEn_c9setDamageEP8dActor_c  0x80097F20      f
_ZN5dEn_c9boyonInitEv           0x80097F40      f
_ZN5dEn_c10boyonBeginEv         0x80097F60      f
_ZN5dEn_c14block_hit_initEv     0x80097F70      f
_ZN16sStateStateMgr_cI18dActorMultiState_c12sFStateMgr_c20sStateMethodUsr_FI_c20sStateMethodUsr_FI_cE13finalizeStateEv 0x800980B0 f
_ZNK16sStateStateMgr_cI18dActorMultiState_c12sFStateMgr_c20sStateMethodUsr_FI_c20sStateMethodUsr_FI_cE10isSubStateEv 0x80098120 f
_ZN16sStateStateMgr_cI18dActorMultiState_c12sFStateMgr_c20sStateMethodUsr_FI_c20sStateMethodUsr_FI_cE11returnStateEv 0x80098140 f
_ZN16sStateStateMgr_cI18dActorMultiState_c12sFStateMgr_c20sStateMethodUsr_FI_c20sStateMethodUsr_FI_cE16changeToSubStateERK12sStateIDIf_c 0x800981A0 f
_ZN12sFStateFct_cI18dActorMultiState_cE5buildERK12sStateIDIf_c 0x800981C0 f
_ZN12sFStateFct_cI18dActorMultiState_cE7disposeERP10sStateIf_c 0x80098220 f
_ZN9sFState_cI18dActorMultiState_cE10initializeEv 0x80098230 f
_ZN9sFState_cI18dActorMultiState_cE7executeEv 0x80098250 f
_ZN9sFState_cI18dActorMultiState_cE8finalizeEv 0x80098270 f
_ZNK16sStateStateMgr_cI18dActorMultiState_c12sFStateMgr_c20sStateMethodUsr_FI_c20sStateMethodUsr_FI_cE8getStateEv 0x80098290 f
_ZNK16sStateStateMgr_cI18dActorMultiState_c12sFStateMgr_c20sStateMethodUsr_FI_c20sStateMethodUsr_FI_cE13getNewStateIDEv 0x800982B0 f
_ZN11sStateMgr_cI18dActorMultiState_c20sStateMethodUsr_FI_c12sFStateFct_c13sStateIDChk_cE15initializeStateEv 0x800982D0 f
_ZN11sStateMgr_cI18dActorMultiState_c20sStateMethodUsr_FI_c12sFStateFct_c13sStateIDChk_cE12executeStateEv 0x800982E0 f
_ZN11sStateMgr_cI18dActorMultiState_c20sStateMethodUsr_FI_c12sFStateFct_c13sStateIDChk_cE13finalizeStateEv 0x800982F0 f
_ZN11sStateMgr_cI18dActorMultiState_c20sStateMethodUsr_FI_c12sFStateFct_c13sStateIDChk_cE11changeStateERK12sStateIDIf_c 0x80098300 f
_ZN11sStateMgr_cI18dActorMultiState_c20sStateMethodUsr_FI_c12sFStateFct_c13sStateIDChk_cE12refreshStateEv 0x80098310 f
_ZNK11sStateMgr_cI18dActorMultiState_c20sStateMethodUsr_FI_c12sFStateFct_c13sStateIDChk_cE8getStateEv 0x80098320 f
_ZNK11sStateMgr_cI18dActorMultiState_c20sStateMethodUsr_FI_c12sFStateFct_c13sStateIDChk_cE13getNewStateIDEv 0x80098330 f
_ZNK11sStateMgr_cI18dActorMultiState_c20sStateMethodUsr_FI_c12sFStateFct_c13sStateIDChk_cE13getOldStateIDEv 0x80098340 f
_Z15baseID_DemoWaitI10sStateID_cERK12sStateIDIf_cv 0x80098350 f
_Z14baseID_DieFumiI10sStateID_cERK12sStateIDIf_cv 0x80098360 f
_Z14baseID_DieFireI10sStateID_cERK12sStateIDIf_cv 0x80098370 f
_Z15baseID_DieSlideI10sStateID_cERK12sStateIDIf_cv 0x80098380 f
_Z15baseID_DieShellI10sStateID_cERK12sStateIDIf_cv 0x80098390 f
_Z14baseID_DieStarI10sStateID_cERK12sStateIDIf_cv 0x800983A0 f
_Z15baseID_DieQuakeI10sStateID_cERK12sStateIDIf_cv 0x800983B0 f
_ZN9dEnBoss_cC1Ev               0x800983C0      f
_ZN11SndObjctEmyD0Ev            0x800984B0      f
_ZN6dAudio13SndObjctEmy_cD0Ev   0x80098530      f
_ZN9dEnBoss_cD0Ev               0x800985B0      f
_ZN9dEnBoss_c6createEv          0x80098660      f
_ZN9dEnBoss_c10createInitEv     0x800986F0      f
_ZN9dEnBoss_c8allocateEv        0x80098700      f
_ZN9dEnBoss_c11createModelEv    0x80098780      f
_ZN9dEnBoss_c14createBossLifeEv 0x80098790      f
_ZN14dBossLifeInf_cD0Ev         0x800987F0      f
_ZN9dEnBoss_c10preExecuteEv     0x80098830      f
_ZN9dEnBoss_c12tenmetsuProcEv   0x800988E0      f
_ZN9dEnBoss_c11tenmetsuFinEv    0x800988F0      f
_ZN9dEnBoss_c11postExecuteEN7fBase_c12MAIN_STATE_eE 0x80098900 f
_ZN9dEnBoss_c13isQuakeDamageEv  0x80098AD0      f
_ZN9dEnBoss_c19Normal_VsPlHitCheckEP5dCc_cP5dCc_c 0x80098B60 f
_ZNK9dEnBoss_c13isFumiInvalidEv 0x80098C90      f
_ZNK9dEnBoss_c16isFumiDmgInvalidEv 0x80098CA0   f
_ZN9dEnBoss_c22Normal_VsYoshiHitCheckEP5dCc_cP5dCc_c 0x80098CB0 f
_ZN9dEnBoss_c11deadAllKillEv    0x80098D80      f
_ZN9dEnBoss_c8fumiProcEP8dActor_c 0x80098D90    f
_ZN14dBossLifeInf_c9damageRevEi 0x80098F70      f
_ZN9dEnBoss_c13tenmetsuReadyEv  0x80098F80      f
_ZN9dEnBoss_c21getTenmetsuTime_PressEv 0x80098F90 f
_ZN9dEnBoss_c14fumideadEffectEv 0x80098FA0      f
_ZN9dEnBoss_c10fumideadSEEv     0x80098FB0      f
_ZN6dAudio13SndObjctEmy_c10startSoundEmsm 0x80098FD0 f
_ZN9dEnBoss_c10fumiDeadVoEv     0x80098FE0      f
_ZN9dEnBoss_c11setFumiDeadEP8dActor_c 0x80098FF0 f
_ZN9dEnBoss_c8deadProcEv        0x80099000      f
_ZN9dEnBoss_c13fumidmgEffectEv  0x80099010      f
_ZN9dEnBoss_c9fumidmgSEEv       0x80099020      f
_ZN9dEnBoss_c13setFumiDamageEP8dActor_c 0x80099040 f
_ZN9dEnBoss_c10damageProcEv     0x80099050      f
_ZN9dEnBoss_c16hitCallback_FireEP5dCc_cP5dCc_c 0x80099060 f
_ZNK9dEnBoss_c13isFireInvalidEv 0x800992B0      f
_ZN9dEnBoss_c20getTenmetsuTime_FireEv 0x800992C0 f
_ZN9dEnBoss_c13hitFireEffectEv  0x800992D0      f
_ZN9dEnBoss_c10firedeadSEEv     0x800992E0      f
_ZN9dEnBoss_c11setFireDeadEP8dActor_c 0x80099300 f
_ZN9dEnBoss_c9firedmgSEEv       0x80099310      f
_ZNK14dBossLifeInf_c12isDmgSectionEv 0x800993A0 f
_ZN9dEnBoss_c13setFireDamageEP8dActor_c 0x800993B0 f
_ZN9dEnBoss_c17hitCallback_ShellEP5dCc_cP5dCc_c 0x800993C0 f
_ZNK9dEnBoss_c14isShellInvalidEv 0x80099600     f
_ZN9dEnBoss_c21getTenmetsuTime_ShellEv 0x80099610 f
_ZN9dEnBoss_c14hitShellEffectEv 0x80099620      f
_ZN9dEnBoss_c11shelldeadSEEv    0x80099630      f
_ZN9dEnBoss_c12setShellDeadEP8dActor_c 0x80099650 f
_ZN9dEnBoss_c10shelldmgSEEv     0x80099660      f
_ZN9dEnBoss_c14setShellDamageEP8dActor_c 0x80099680 f
_ZN9dEnBoss_c19hitCallback_HipAttkEP5dCc_cP5dCc_c 0x80099690 f
_ZN9dEnBoss_c13setHipatkDeadEP8dActor_c 0x800998B0 f
_ZN9dEnBoss_c15setHipatkDamageEP8dActor_c 0x800998C0 f
_ZN9dEnBoss_c16hitCallback_SpinEP5dCc_cP5dCc_c 0x800998D0 f
_ZN9dEnBoss_c16hitCallback_StarEP5dCc_cP5dCc_c 0x80099AF0 f
_ZNK9dEnBoss_c13isStarInvalidEv 0x80099CD0      f
_ZN9dEnBoss_c10stardeadSEEv     0x80099CE0      f
_ZN9dEnBoss_c11setStarDeadEP8dActor_c 0x80099D00 f
_ZN9dEnBoss_c9stardmgSEEv       0x80099D10      f
_ZN9dEnBoss_c13setStarDamageEP8dActor_c 0x80099D30 f
_ZN9dEnBoss_c18setDeathInfo_QuakeEi 0x80099D40  f
_ZN9dEnBoss_c11quakedeadSEEv    0x80099EB0      f
_ZN9dEnBoss_c12setQuakeDeadEv   0x80099ED0      f
_ZN9dEnBoss_c10quakedmgSEEv     0x80099EE0      f
_ZN9dEnBoss_c14setQuakeDamageEv 0x80099F00      f
_ZN9dEnBoss_c24hitCallback_PenguinSlideEP5dCc_cP5dCc_c 0x80099F10 f
_ZN9dEnBoss_c24initializeState_DemoWaitEv 0x80099F20 f
_ZN9dEnBoss_c22finalizeState_DemoWaitEv 0x80099F30 f
_ZN9dEnBoss_c21executeState_DemoWaitEv 0x80099F40 f
_ZN9dEnBoss_c23initializeState_DieFumiEv 0x80099F50 f
_ZN9dEnBoss_c21finalizeState_DieFumiEv 0x80099F60 f
_ZN9dEnBoss_c20executeState_DieFumiEv 0x80099F70 f
_ZN9dEnBoss_c23initializeState_DieFireEv 0x80099F80 f
_ZN9dEnBoss_c21finalizeState_DieFireEv 0x80099F90 f
_ZN9dEnBoss_c20executeState_DieFireEv 0x80099FA0 f
_ZN9dEnBoss_c24initializeState_DieSlideEv 0x80099FB0 f
_ZN9dEnBoss_c22finalizeState_DieSlideEv 0x80099FC0 f
_ZN9dEnBoss_c21executeState_DieSlideEv 0x80099FD0 f
_ZN9dEnBoss_c24initializeState_DieShellEv 0x80099FE0 f
_ZN9dEnBoss_c22finalizeState_DieShellEv 0x80099FF0 f
_ZN9dEnBoss_c21executeState_DieShellEv 0x8009A000 f
_ZN9dEnBoss_c23initializeState_DieStarEv 0x8009A010 f
_ZN9dEnBoss_c21finalizeState_DieStarEv 0x8009A020 f
_ZN9dEnBoss_c20executeState_DieStarEv 0x8009A030 f
_ZN9dEnBoss_c24initializeState_DieQuakeEv 0x8009A040 f
_ZN9dEnBoss_c22finalizeState_DieQuakeEv 0x8009A050 f
_ZN9dEnBoss_c21executeState_DieQuakeEv 0x8009A060 f
_ZN9dEnBoss_c9damageLVoEv       0x8009A070      f
_ZN9dEnBoss_c9damageSVoEv       0x8009A080      f
_ZNK9dEnBoss_c14isSlideInvalidEv 0x8009A090     f
_ZN9dEnBoss_c12setSlideDeadEP8dActor_c 0x8009A0A0 f
_ZN9dEnBoss_c14setSlideDamageEP8dActor_c 0x8009A0B0 f
_ZN9dEnBoss_c19hitCallback_WireNetEP5dCc_cP5dCc_c 0x8009A0C0 f
_ZN9dEnBoss_c16hitCallback_SlipEP5dCc_cP5dCc_c 0x8009A0D0 f
_ZN9dEnBoss_c15hitCallback_IceEP5dCc_cP5dCc_c 0x8009A0E0 f
_ZN9dEnBoss_c12FumiScoreSetEP8dActor_c 0x8009A110 f
_ZN6dAudio13SndObjctEmy_c9holdSoundEmm 0x8009A120 f
_ZN6dAudio13SndObjctEmy_c9holdSoundEmsm 0x8009A130 f
_ZN6dAudio13SndObjctEmy_c10startSoundEmm 0x8009A140 f
_ZNK18dBossLife_Common_c15getDamage_QuakeEv 0x8009A150 f
_ZNK18dBossLife_Common_c15getDamage_ShellEv 0x8009A160 f
_ZNK18dBossLife_Common_c18getDamage_BlockHitEv 0x8009A170 f
_ZNK18dBossLife_Common_c22getDamage_PenguinSlideEv 0x8009A180 f
_ZNK18dBossLife_Common_c14getDamage_StarEv 0x8009A190 f
_ZNK18dBossLife_Common_c16getDamage_HipAtkEv 0x8009A1A0 f
_ZNK18dBossLife_Common_c14getDamage_FumiEv 0x8009A1B0 f
_ZNK18dBossLife_Common_c14getDamage_FireEv 0x8009A1C0 f
_ZN18dBossLife_Common_c9damageRevEi 0x8009A1D0  f
_ZNK18dBossLife_Common_c12isDmgSectionEv 0x8009A210 f
_ZNK18dBossLife_Common_c11isTwoDamageEv 0x8009A240 f
_ZNK18dBossLife_Common_c11isOneDamageEv 0x8009A270 f
_ZNK18dBossLife_Common_c11isNonDamageEv 0x8009A2A0 f
_ZN18dBossLife_Common_cD0Ev     0x8009A2E0      f
__sinit_\d_enemy_boss_cpp       0x8009A320      f
_ZN11sFStateID_cI9dEnBoss_cED0Ev 0x8009A900     f
_ZN18sFStateVirtualID_cI9dEnBoss_cED0Ev 0x8009A960 f
_ZNK18sFStateVirtualID_cI9dEnBoss_cE6numberEv 0x8009A9C0 f
_ZNK18sFStateVirtualID_cI9dEnBoss_cE7superIDEv 0x8009AAA0 f
_ZNK11sFStateID_cI9dEnBoss_cE10isSameNameEPKc 0x8009AB80 f
_ZNK11sFStateID_cI9dEnBoss_cE15initializeStateER9dEnBoss_c 0x8009AC10 f
_ZNK11sFStateID_cI9dEnBoss_cE12executeStateER9dEnBoss_c 0x8009AC40 f
_ZNK11sFStateID_cI9dEnBoss_cE13finalizeStateER9dEnBoss_c 0x8009AC70 f
_Z16baseID_DemoAwakeI10sStateID_cERK12sStateIDIf_cv 0x8009ACA0 f
_Z11baseID_MoveI10sStateID_cERK12sStateIDIf_cv 0x8009ACB0 f
_Z20baseID_DefaultHitRotI10sStateID_cERK12sStateIDIf_cv 0x8009ACC0 f
_Z17baseID_FumiHitRotI10sStateID_cERK12sStateIDIf_cv 0x8009ACD0 f
_Z21baseID_FumiHitRotDampI10sStateID_cERK12sStateIDIf_cv 0x8009ACE0 f
_Z20baseID_FumiHitRotEndI10sStateID_cERK12sStateIDIf_cv 0x8009ACF0 f
_Z11baseID_FireI10sStateID_cERK12sStateIDIf_cv 0x8009AD00 f
_Z12baseID_StoopI10sStateID_cERK12sStateIDIf_cv 0x8009AD10 f
_Z14baseID_DieFallI10sStateID_cERK12sStateIDIf_cv 0x8009AD20 f
_ZN20dEnBossKoopaJrBase_cC1Ev   0x8009AD30      f
_ZN3dEf14followEffect_cC1Ev     0x8009AEC0      f
_ZN20dEnBossKoopaJrBase_c14nodeCallback_cD0Ev 0x8009AF00 f
_ZN20dEnBossKoopaJrBase_cD0Ev   0x8009AF40      f
_ZN20dEnBossKoopaJrBase_c11createModelEv 0x8009B070 f
_ZN20dEnBossKoopaJrBase_c11tenmetsuFinEv 0x8009B3D0 f
_ZN20dEnBossKoopaJrBase_c10createInitEv 0x8009B400 f
_ZN20dEnBossKoopaJrBase_c10preExecuteEv 0x8009B4E0 f
_ZN20dEnBossKoopaJrBase_c7executeEv 0x8009B540  f
_ZN20dEnBossKoopaJrBase_c7calcMdlEv 0x8009B5A0  f
_ZN20dEnBossKoopaJrBase_c11postExecuteEN7fBase_c12MAIN_STATE_eE 0x8009B6F0 f
_ZN20dEnBossKoopaJrBase_c8doDeleteEv 0x8009B770 f
_ZN20dEnBossKoopaJrBase_c4drawEv 0x8009B780     f
_ZN20dEnBossKoopaJrBase_c14createBossLifeEv 0x8009B7F0 f
_ZN20dEnBossKoopaJrBase_c8updateCcEv 0x8009B850 f
_ZNK20dEnBossKoopaJrBase_c16getMinNeckAngleZEv 0x8009B8E0 f
_ZN20dEnBossKoopaJrBase_c12calcDirAngleEs 0x8009B980 f
_ZN20dEnBossKoopaJrBase_c11getDirAngleEv 0x8009B9E0 f
_ZN20dEnBossKoopaJrBase_c15defaultDirAngleEv 0x8009BA40 f
_ZN20dEnBossKoopaJrBase_c14clearNeckAngleEv 0x8009BA50 f
_ZN20dEnBossKoopaJrBase_c13calcFaceAngleEv 0x8009BA70 f
_ZN20dEnBossKoopaJrBase_c13calcLookAngleEv 0x8009BAD0 f
_ZN20dEnBossKoopaJrBase_c11calcFacePosEv 0x8009BC90 f
_ZN20dEnBossKoopaJrBase_c10isBattleJrEv 0x8009BCE0 f
_ZN20dEnBossKoopaJrBase_c18getDirForAtkTargetEv 0x8009BD10 f
_ZN20dEnBossKoopaJrBase_c10damageProcEv 0x8009BD80 f
_ZN20dEnBossKoopaJrBase_c8deadProcEv 0x8009BE40 f
_ZN20dEnBossKoopaJrBase_c16updateRootJntPosEv 0x8009BEB0 f
_ZN20dEnBossKoopaJrBase_c11dieFallProcEv 0x8009BEC0 f
_ZN20dEnBossKoopaJrBase_c11damageScoreEhf 0x8009BEE0 f
_ZN20dEnBossKoopaJrBase_c9deadScoreEhf 0x8009BF20 f
_ZN20dEnBossKoopaJrBase_c9updateAnmEv 0x8009BF60 f
_ZN20dEnBossKoopaJrBase_c16setLegVisibilityEb 0x8009BFD0 f
_ZN20dEnBossKoopaJrBase_c17setRootVisibilityEb 0x8009BFE0 f
_ZN20dEnBossKoopaJrBase_c19Normal_VsPlHitCheckEP5dCc_cP5dCc_c 0x8009BFF0 f
_ZN20dEnBossKoopaJrBase_c13setFireDamageEP8dActor_c 0x8009C060 f
_ZN20dEnBossKoopaJrBase_c10getJrClownEv 0x8009C160 f
_ZN20dEnBossKoopaJrBase_c11setFireDeadEP8dActor_c 0x8009C170 f
_ZN20dEnBossKoopaJrBase_c13setStarDamageEP8dActor_c 0x8009C270 f
_ZN20dEnBossKoopaJrBase_c11setStarDeadEP8dActor_c 0x8009C350 f
_ZN20dEnBossKoopaJrBase_c13setFumiDamageEP8dActor_c 0x8009C450 f
_ZN20dEnBossKoopaJrBase_c11setFumiDeadEP8dActor_c 0x8009C530 f
_ZN20dEnBossKoopaJrBase_c14setShellDamageEP8dActor_c 0x8009C630 f
_ZN20dEnBossKoopaJrBase_c12setShellDeadEP8dActor_c 0x8009C640 f
_ZN20dEnBossKoopaJrBase_c22createDamageSpinEffectEv 0x8009C650 f
_ZN20dEnBossKoopaJrBase_c22followDamageSpinEffectEv 0x8009C710 f
_ZN20dEnBossKoopaJrBase_c20fadeDamageSpinEffectEv 0x8009C7C0 f
_ZN20dEnBossKoopaJrBase_c10jumpEffectEv 0x8009C810 f
_ZN20dEnBossKoopaJrBase_c14jumpRootEffectEv 0x8009C860 f
_ZN20dEnBossKoopaJrBase_c11tiredEffectEf 0x8009C8D0 f
_ZN20dEnBossKoopaJrBase_c14downFallEffectEv 0x8009CA30 f
_ZN20dEnBossKoopaJrBase_c24initializeState_DemoWaitEv 0x8009CAC0 f
_ZN20dEnBossKoopaJrBase_c22finalizeState_DemoWaitEv 0x8009CB30 f
_ZN20dEnBossKoopaJrBase_c21executeState_DemoWaitEv 0x8009CB40 f
_ZN20dEnBossKoopaJrBase_c12getTurnSpeedEv 0x8009CBE0 f
_ZN20dEnBossKoopaJrBase_c25initializeState_DemoAwakeEv 0x8009CBF0 f
_ZN20dEnBossKoopaJrBase_c23finalizeState_DemoAwakeEv 0x8009CC00 f
_ZN20dEnBossKoopaJrBase_c22executeState_DemoAwakeEv 0x8009CC10 f
_ZN20dEnBossKoopaJrBase_c26initializeState_FumiHitRotEv 0x8009CC20 f
_ZN20dEnBossKoopaJrBase_c13getPressScaleEv 0x8009CE70 f
_ZN20dEnBossKoopaJrBase_c12getPressTimeEv 0x8009CE90 f
_ZN20dEnBossKoopaJrBase_c18getFumiRecoverTimeEv 0x8009CEA0 f
_ZN20dEnBossKoopaJrBase_c12getDrawScaleEv 0x8009CEB0 f
_ZN20dEnBossKoopaJrBase_c24finalizeState_FumiHitRotEv 0x8009CEC0 f
_ZN20dEnBossKoopaJrBase_c23executeState_FumiHitRotEv 0x8009CED0 f
_ZN20dEnBossKoopaJrBase_c12tenmetsuProcEv 0x8009CFF0 f
_ZN20dEnBossKoopaJrBase_c30initializeState_FumiHitRotDampEv 0x8009D010 f
_ZN20dEnBossKoopaJrBase_c28finalizeState_FumiHitRotDampEv 0x8009D090 f
_ZN20dEnBossKoopaJrBase_c27executeState_FumiHitRotDampEv 0x8009D0A0 f
_ZN20dEnBossKoopaJrBase_c29initializeState_FumiHitRotEndEv 0x8009D190 f
_ZN20dEnBossKoopaJrBase_c27finalizeState_FumiHitRotEndEv 0x8009D220 f
_ZN20dEnBossKoopaJrBase_c26executeState_FumiHitRotEndEv 0x8009D230 f
_ZN20dEnBossKoopaJrBase_c29initializeState_DefaultHitRotEv 0x8009D2B0 f
_ZN20dEnBossKoopaJrBase_c27finalizeState_DefaultHitRotEv 0x8009D3B0 f
_ZN20dEnBossKoopaJrBase_c26executeState_DefaultHitRotEv 0x8009D3C0 f
_ZN20dEnBossKoopaJrBase_c21initializeState_StoopEv 0x8009D450 f
_ZN20dEnBossKoopaJrBase_c19finalizeState_StoopEv 0x8009D4D0 f
_ZN20dEnBossKoopaJrBase_c18executeState_StoopEv 0x8009D4E0 f
_ZN20dEnBossKoopaJrBase_c20initializeState_FireEv 0x8009D540 f
_ZN20dEnBossKoopaJrBase_c18finalizeState_FireEv 0x8009D5F0 f
_ZN20dEnBossKoopaJrBase_c17executeState_FireEv 0x8009D600 f
_ZN20dEnBossKoopaJrBase_c10blitzShootEv 0x8009D770 f
_ZN20dEnBossKoopaJrBase_c20initializeState_MoveEv 0x8009D780 f
_ZN20dEnBossKoopaJrBase_c18finalizeState_MoveEv 0x8009D800 f
_ZN20dEnBossKoopaJrBase_c17executeState_MoveEv 0x8009D810 f
_ZN20dEnBossKoopaJrBase_c23initializeState_DieFallEv 0x8009D880 f
_ZN20dEnBossKoopaJrBase_c21finalizeState_DieFallEv 0x8009D970 f
_ZN20dEnBossKoopaJrBase_c20executeState_DieFallEv 0x8009D980 f
_ZN20dEnBossKoopaJrBase_c23initializeState_DieFumiEv 0x8009DA50 f
_ZN20dEnBossKoopaJrBase_c21finalizeState_DieFumiEv 0x8009DA60 f
_ZN20dEnBossKoopaJrBase_c20executeState_DieFumiEv 0x8009DA70 f
_ZN20dEnBossKoopaJrBase_c14nodeCallback_c7timingAEmPN4nw4r3g3d12ChrAnmResultEN4nw4r3g3d6ResMdlE 0x8009DA80 f
_ZN20dEnBossKoopaJrBase_c11createBlitzEv 0x8009DCF0 f
_ZN20dEnBossKoopaJrBase_c13isQuakeDamageEv 0x8009DD00 f
_ZNK20dEnBossKoopaJrBase_c10getJrClownEv 0x8009DD10 f
_ZN14dKoopaJrLife_cD0Ev         0x8009DD20      f
__sinit_\d_enemy_boss_koopa_jr_base_cpp 0x8009DD60 f
_ZN11sFStateID_cI20dEnBossKoopaJrBase_cED0Ev 0x8009E670 f
_ZN18sFStateVirtualID_cI20dEnBossKoopaJrBase_cED0Ev 0x8009E6D0 f
_Z14baseID_DieFumiI9dEnBoss_cERK12sStateIDIf_cv 0x8009E730 f
_Z15baseID_DemoWaitI9dEnBoss_cERK12sStateIDIf_cv 0x8009E740 f
_ZNK18sFStateVirtualID_cI20dEnBossKoopaJrBase_cE6numberEv 0x8009E750 f
_ZNK18sFStateVirtualID_cI20dEnBossKoopaJrBase_cE7superIDEv 0x8009E830 f
_ZNK11sFStateID_cI20dEnBossKoopaJrBase_cE10isSameNameEPKc 0x8009E910 f
_ZNK11sFStateID_cI20dEnBossKoopaJrBase_cE15initializeStateER20dEnBossKoopaJrBase_c 0x8009E9A0 f
_ZNK11sFStateID_cI20dEnBossKoopaJrBase_cE12executeStateER20dEnBossKoopaJrBase_c 0x8009E9D0 f
_ZNK11sFStateID_cI20dEnBossKoopaJrBase_cE13finalizeStateER20dEnBossKoopaJrBase_c 0x8009EA00 f
_ZN12dEnBoyoMng_c5beginEif      0x8009EA30      f
_ZN12dEnBoyoMng_c7executeEv     0x8009EA50      f
_Z12baseID_CarryI10sStateID_cERK12sStateIDIf_cv 0x8009EAF0 f
_Z12baseID_ThrowI10sStateID_cERK12sStateIDIf_cv 0x8009EB00 f
_ZN13dEnemyCarry_cC1Ev          0x8009EB10      f
_ZN13dEnemyCarry_c13setThrowSpeedEP8dActor_c 0x8009EB50 f
_ZN13dEnemyCarry_c19setThrowChangeStateEv 0x8009EBF0 f
_ZN13dEnemyCarry_c19setPutOnChangeStateEv 0x8009EC10 f
_ZN13dEnemyCarry_c22setDeathInfo_CarryBgInEP8dActor_c 0x8009EC30 f
_ZN13dEnemyCarry_c21initializeState_CarryEv 0x8009ED10 f
_ZN13dEnemyCarry_c19finalizeState_CarryEv 0x8009EDB0 f
_ZN13dEnemyCarry_c18executeState_CarryEv 0x8009EE30 f
_ZN13dEnemyCarry_c21initializeState_ThrowEv 0x8009EF90 f
_ZN13dEnemyCarry_c19finalizeState_ThrowEv 0x8009EFD0 f
_ZN13dEnemyCarry_c18executeState_ThrowEv 0x8009F000 f
_ZN13dEnemyCarry_cD0Ev          0x8009F010      f
__sinit_\d_enemy_carry_cpp      0x8009F070      f
_ZN11sFStateID_cI13dEnemyCarry_cED0Ev 0x8009F250 f
_ZN18sFStateVirtualID_cI13dEnemyCarry_cED0Ev 0x8009F2B0 f
_ZNK18sFStateVirtualID_cI13dEnemyCarry_cE6numberEv 0x8009F310 f
_ZNK18sFStateVirtualID_cI13dEnemyCarry_cE7superIDEv 0x8009F3F0 f
_ZNK11sFStateID_cI13dEnemyCarry_cE10isSameNameEPKc 0x8009F4D0 f
_ZNK11sFStateID_cI13dEnemyCarry_cE15initializeStateER13dEnemyCarry_c 0x8009F560 f
_ZNK11sFStateID_cI13dEnemyCarry_cE12executeStateER13dEnemyCarry_c 0x8009F590 f
_ZNK11sFStateID_cI13dEnemyCarry_cE13finalizeStateER13dEnemyCarry_c 0x8009F5C0 f
_ZN10dEnCombo_c13calcPlFumiCntEP8dActor_c 0x8009F5F0 f
_ZN10dEnCombo_c13calcPlStarCntEP8dActor_c 0x8009F630 f
_ZN10dEnCombo_c14calcPlComboCntEP8dActor_c 0x8009F690 f
_ZNK10dEnCombo_c14getDamageScoreEv 0x8009F6D0   f
_ZNK10dEnCombo_c13getQuakeScoreEi 0x8009F6F0    f
_ZN10dEnCombo_c13getComboScoreEi 0x8009F710     f
_ZNK10dEnCombo_c8setScoreEP8dActor_cii 0x8009F770 f
_Z14baseID_DieFumiI10sStateID_cERK12sStateIDIf_cv 0x8009F7C0 f
_Z14baseID_DieFallI10sStateID_cERK12sStateIDIf_cv 0x8009F7D0 f
_Z17baseID_DieBigFallI10sStateID_cERK12sStateIDIf_cv 0x8009F7E0 f
_Z15baseID_DieSmokeI10sStateID_cERK12sStateIDIf_cv 0x8009F7F0 f
_Z19baseID_DieIceVanishI10sStateID_cERK12sStateIDIf_cv 0x8009F800 f
_Z19baseID_DieYoshiFumiI10sStateID_cERK12sStateIDIf_cv 0x8009F810 f
_Z14baseID_DieGoalI10sStateID_cERK12sStateIDIf_cv 0x8009F820 f
_Z15baseID_DieOtherI10sStateID_cERK12sStateIDIf_cv 0x8009F830 f
_ZN5dEn_c16hitCallback_StarEP5dCc_cP5dCc_c 0x8009F840 f
_ZN5dEn_c18hitCallback_CannonEP5dCc_cP5dCc_c 0x8009F9D0 f
_ZN5dEn_c16hitCallback_SlipEP5dCc_cP5dCc_c 0x8009FB50 f
_ZN5dEn_c24hitCallback_PenguinSlideEP5dCc_cP5dCc_c 0x8009FCC0 f
_ZN5dEn_c17hitCallback_ScrewEP5dCc_cP5dCc_c 0x8009FCD0 f
_ZN5dEn_c19hitCallback_WireNetEP5dCc_cP5dCc_c 0x8009FCE0 f
_ZN5dEn_c17hitCallback_LargeEP5dCc_cP5dCc_c 0x8009FE40 f
_ZN5dEn_c19hitCallback_RollingEP5dCc_cP5dCc_c 0x8009FFC0 f
_ZN5dEn_c16hitCallback_SpinEP5dCc_cP5dCc_c 0x8009FFD0 f
_ZN5dEn_c19hitCallback_HipAttkEP5dCc_cP5dCc_c 0x800A0150 f
_ZN5dEn_c24hitCallback_YoshiHipAttkEP5dCc_cP5dCc_c 0x800A02D0 f
_ZN5dEn_c23hitCallback_YoshiBulletEP5dCc_cP5dCc_c 0x800A03C0 f
_ZN5dEn_c21hitCallback_YoshiFireEP5dCc_cP5dCc_c 0x800A0550 f
_ZN5dEn_c17hitCallback_ShellEP5dCc_cP5dCc_c 0x800A0700 f
_ZN5dEn_c16hitCallback_FireEP5dCc_cP5dCc_c 0x800A08D0 f
_ZN5dEn_c15hitCallback_IceEP5dCc_cP5dCc_c 0x800A0A30 f
_ZN5dEn_c11setDeadModeEP8dActor_ci 0x800A0B30   f
_ZN5dEn_c18setDeathInfo_QuakeEi 0x800A0C70      f
_ZN5dEn_c18setDeathInfo_SmokeEP8dActor_c 0x800A0DC0 f
_ZN5dEn_c17setDeathInfo_FumiEP8dActor_c7mVec2_cRK12sStateIDIf_ci 0x800A0EA0 f
_ZN5dEn_c22setDeathInfo_YoshiFumiEP8dActor_c 0x800A0FB0 f
_ZN5dEn_c18setDeathInfo_OtherEP8dActor_c 0x800A10B0 f
_ZN5dEn_c21setDeathInfo_SpinFumiEP8dActor_ci 0x800A1190 f
_ZN5dEn_c21setDeathInfo_IceBreakEv 0x800A12A0   f
_ZN5dEn_c22setDeathInfo_IceVanishEv 0x800A1370  f
_ZN5dEn_c23initializeState_DieFumiEv 0x800A1470 f
_ZN5dEn_c21finalizeState_DieFumiEv 0x800A15F0   f
_ZN5dEn_c20executeState_DieFumiEv 0x800A1600    f
_ZN5dEn_c23initializeState_DieFallEv 0x800A16A0 f
_ZN5dEn_c21finalizeState_DieFallEv 0x800A1820   f
_ZN5dEn_c20executeState_DieFallEv 0x800A1830    f
_ZN5dEn_c26initializeState_DieBigFallEv 0x800A1910 f
_ZN5dEn_c24finalizeState_DieBigFallEv 0x800A1920 f
_ZN5dEn_c23executeState_DieBigFallEv 0x800A1930 f
_ZN5dEn_c24initializeState_DieSmokeEv 0x800A1980 f
_ZN5dEn_c22finalizeState_DieSmokeEv 0x800A19F0  f
_ZN5dEn_c21executeState_DieSmokeEv 0x800A1A00   f
_ZN5dEn_c28initializeState_DieIceVanishEv 0x800A1A10 f
_ZN5dEn_c26finalizeState_DieIceVanishEv 0x800A1AA0 f
_ZN5dEn_c25executeState_DieIceVanishEv 0x800A1AB0 f
_ZN5dEn_c28initializeState_DieYoshiFumiEv 0x800A1AC0 f
_ZN5dEn_c26finalizeState_DieYoshiFumiEv 0x800A1B30 f
_ZN5dEn_c25executeState_DieYoshiFumiEv 0x800A1B40 f
_ZN5dEn_c23initializeState_DieGoalEv 0x800A1B50 f
_ZN5dEn_c21finalizeState_DieGoalEv 0x800A1B60   f
_ZN5dEn_c20executeState_DieGoalEv 0x800A1B70    f
_ZN5dEn_c24initializeState_DieOtherEv 0x800A1B80 f
_ZN5dEn_c22finalizeState_DieOtherEv 0x800A1B90  f
_ZN5dEn_c21executeState_DieOtherEv 0x800A1BA0   f
_ZN5dEn_c18setDeathSound_FireEv 0x800A1BB0      f
_ZN5dEn_c21setDeathSound_HipAttkEv 0x800A1C00   f
_ZN5dEn_c18setDeathSound_SlipEP8dActor_c 0x800A1C80 f
_ZN5dEn_c18setDeathSound_SpinEv 0x800A1D90      f
_ZN5dEn_c21setDeathSound_RollingEv 0x800A1E10   f
__sinit_\d_enemy_death_cpp      0x800A1E20      f
_ZN11sFStateID_cI5dEn_cED0Ev    0x800A24D0      f
_ZN18sFStateVirtualID_cI5dEn_cED0Ev 0x800A2530  f
_ZNK18sFStateVirtualID_cI5dEn_cE6numberEv 0x800A2590 f
_ZNK18sFStateVirtualID_cI5dEn_cE7superIDEv 0x800A2670 f
_ZNK11sFStateID_cI5dEn_cE10isSameNameEPKc 0x800A2750 f
_ZNK11sFStateID_cI5dEn_cE15initializeStateER5dEn_c 0x800A27E0 f
_ZNK11sFStateID_cI5dEn_cE12executeStateER5dEn_c 0x800A2810 f
_ZNK11sFStateID_cI5dEn_cE13finalizeStateER5dEn_c 0x800A2840 f
_ZN14dEnFumiCheck_c7operateER12FumiCcInfo_ci 0x800A2870 f
_ZN13dEnFumiProc_c7operateER12FumiCcInfo_ci 0x800A29C0 f
_ZN13dEnFumiProc_c13vsPlayerCheckER12FumiCcInfo_ci 0x800A2A20 f
_ZN13dEnFumiProc_c12vsYoshiCheckER12FumiCcInfo_ci 0x800A2B20 f
_Z15baseID_DemoWaitI10sStateID_cERK12sStateIDIf_cv 0x800A2B70 f
_Z16baseID_DemoAwakeI10sStateID_cERK12sStateIDIf_cv 0x800A2B80 f
_Z11baseID_MoveI10sStateID_cERK12sStateIDIf_cv 0x800A2B90 f
_Z14baseID_DamagedI10sStateID_cERK12sStateIDIf_cv 0x800A2BA0 f
_Z14baseID_FumiHitI10sStateID_cERK12sStateIDIf_cv 0x800A2BB0 f
_Z16baseID_FireReadyI10sStateID_cERK12sStateIDIf_cv 0x800A2BC0 f
_Z11baseID_FireI10sStateID_cERK12sStateIDIf_cv 0x800A2BD0 f
_Z14baseID_DieFallI10sStateID_cERK12sStateIDIf_cv 0x800A2BE0 f
_ZN16dEnJrClownBase_c10ccCallbackEP5dCc_cP5dCc_c 0x800A2BF0 f
_ZNK16dEnJrClownBase_c18getPlayerBoundMagXEv 0x800A2D00 f
_ZNK16dEnJrClownBase_c18getPlayerBoundMagYEv 0x800A2D10 f
_ZN16dEnJrClownBase_cC1Ev       0x800A2D20      f
_ZN3m3d8anmVis_cD0Ev            0x800A2EA0      f
_ZN16dEnJrClownBase_c14nodeCallback_cD0Ev 0x800A2F00 f
_ZN16dEnJrClownBase_cD0Ev       0x800A2F40      f
hash_3DE96D04_3DFD1086          0x800A3060      f
_ZN16dEnJrClownBase_c6createEv  0x800A3080      f
_ZN16dEnJrClownBase_c11createModelEv 0x800A3100 f
_ZN16dEnJrClownBase_c10createInitEv 0x800A3430  f
_ZN16dEnJrClownBase_c11getDirAngleEv 0x800A3560 f
_ZN16dEnJrClownBase_c15defaultDirAngleEv 0x800A35C0 f
_ZN16dEnJrClownBase_c20getDefaultRotOffsetYEv 0x800A35D0 f
_ZN16dEnJrClownBase_c7executeEv 0x800A3600      f
_ZN16dEnJrClownBase_c10do_executeEv 0x800A3700  f
_ZN16dEnJrClownBase_c7calcMdlEv 0x800A3710      f
_ZN16dEnJrClownBase_c14calcPropEffectEv 0x800A37F0 f
_ZNK16dEnJrClownBase_c14getPropOffsetYEv 0x800A3AC0 f
_ZNK16dEnJrClownBase_c15getPropEffScaleEv 0x800A3AD0 f
_ZN16dEnJrClownBase_c24calcPropEffectOnlyFollowEv 0x800A3AE0 f
_ZN16dEnJrClownBase_c8doDeleteEv 0x800A3C80     f
_ZN16dEnJrClownBase_c4drawEv    0x800A3D00      f
_ZN16dEnJrClownBase_c16calcPropellerRotEv 0x800A3D30 f
_ZN16dEnJrClownBase_c15calcShapeAngleZEv 0x800A3EB0 f
_ZNK16dEnJrClownBase_c5getJrEv  0x800A3F60      f
_ZNK16dEnJrClownBase_c8getPilotEv 0x800A3F70    f
_ZN16dEnJrClownBase_c16addVerticalForceEf 0x800A3F80 f
_ZN16dEnJrClownBase_c18addHorizontalForceEffi 0x800A4040 f
_ZN16dEnJrClownBase_c13setBoundSpeedERK7mVec2_c 0x800A4150 f
_ZNK16dEnJrClownBase_c9getWeightEv 0x800A41F0   f
_ZN16dEnJrClownBase_c14setBoundSpeedXEf 0x800A4200 f
_ZNK16dEnJrClownBase_c13getCockpitPosEv 0x800A4270 f
_ZNK16dEnJrClownBase_c13getCockpitMtxEv 0x800A42B0 f
_ZNK16dEnJrClownBase_c17getCockpitOffsetYEv 0x800A43D0 f
_ZN16dEnJrClownBase_c14speedReductionEv 0x800A43E0 f
_ZN16dEnJrClownBase_c10speedClearEv 0x800A4460  f
_ZN16dEnJrClownBase_c12calcDirAngleEs 0x800A4480 f
_ZN16dEnJrClownBase_c10changeFaceEi 0x800A44E0  f
_ZN16dEnJrClownBase_c9startWinkEv 0x800A45B0    f
_ZN16dEnJrClownBase_c8calcWinkEv 0x800A4650     f
_ZN16dEnJrClownBase_c13startHitShakeEv 0x800A4740 f
_ZN16dEnJrClownBase_c14startPoyonAnimEv 0x800A47B0 f
_ZN16dEnJrClownBase_c11getFireSpanEv 0x800A4820 f
_ZN16dEnJrClownBase_c7endFireEv 0x800A4930      f
_ZN16dEnJrClownBase_c16createSpinEffectEv 0x800A4990 f
_ZNK16dEnJrClownBase_c18getSpinEffectScaleEv 0x800A4A80 f
_ZNK16dEnJrClownBase_c19getSpinEmitIntervalEv 0x800A4A90 f
_ZN16dEnJrClownBase_c14fadeSpinEffectEv 0x800A4AC0 f
_ZN16dEnJrClownBase_c16followSpinEffectEv 0x800A4B20 f
_ZNK16dEnJrClownBase_c7canSpinEv 0x800A4C10     f
hash_D7B6D931_DF54BC7D          0x800A4C40      f
_ZN16dEnJrClownBase_c10playClrAnmEv 0x800A4CE0  f
_ZN16dEnJrClownBase_c10stopClrAnmEv 0x800A4D60  f
_ZN16dEnJrClownBase_c13calcAtkTargetEv 0x800A4D70 f
_ZN16dEnJrClownBase_c18getDirForAtkTargetEv 0x800A4DF0 f
_ZNK16dEnJrClownBase_c13isInMoveLimitEv 0x800A4E60 f
_ZN16dEnJrClownBase_c13controlUpdateEv 0x800A4E90 f
_ZN16dEnJrClownBase_c5accSEEv   0x800A51C0      f
_ZN16dEnJrClownBase_c14calcSpinRisingEv 0x800A5210 f
_ZN16dEnJrClownBase_c12getTurnSpeedEv 0x800A5430 f
hash_332D2921_8A5FE2C3          0x800A5440      f
_ZN16dEnJrClownBase_c11tiredEffectEf 0x800A5460 f
_ZNK16dEnJrClownBase_c9getRadiusEv 0x800A55B0   f
_ZN16dEnJrClownBase_c24initializeState_DemoWaitEv 0x800A55C0 f
_ZN16dEnJrClownBase_c22finalizeState_DemoWaitEv 0x800A5610 f
_ZN16dEnJrClownBase_c21executeState_DemoWaitEv 0x800A5620 f
_ZN16dEnJrClownBase_c25initializeState_DemoAwakeEv 0x800A5670 f
_ZN16dEnJrClownBase_c23finalizeState_DemoAwakeEv 0x800A56C0 f
_ZN16dEnJrClownBase_c22executeState_DemoAwakeEv 0x800A56D0 f
_ZNK16dEnJrClownBase_c17getDefaultGravityEv 0x800A5850 f
_ZNK16dEnJrClownBase_c20getGravityReturnStepEv 0x800A5860 f
_ZNK16dEnJrClownBase_c13getDefaultPowEv 0x800A5870 f
_ZNK16dEnJrClownBase_c16getPowReturnStepEv 0x800A5880 f
_ZN16dEnJrClownBase_c20initializeState_MoveEv 0x800A5890 f
_ZN16dEnJrClownBase_c18finalizeState_MoveEv 0x800A58A0 f
_ZN16dEnJrClownBase_c17executeState_MoveEv 0x800A58B0 f
_ZN16dEnJrClownBase_c23initializeState_DamagedEv 0x800A59D0 f
_ZN16dEnJrClownBase_c21finalizeState_DamagedEv 0x800A59E0 f
_ZN16dEnJrClownBase_c20executeState_DamagedEv 0x800A59F0 f
_ZN16dEnJrClownBase_c23initializeState_FumiHitEv 0x800A5A00 f
_ZN16dEnJrClownBase_c21finalizeState_FumiHitEv 0x800A5B50 f
_ZN16dEnJrClownBase_c20executeState_FumiHitEv 0x800A5BB0 f
_ZN16dEnJrClownBase_c25initializeState_FireReadyEv 0x800A6030 f
_ZN16dEnJrClownBase_c23finalizeState_FireReadyEv 0x800A60E0 f
_ZN16dEnJrClownBase_c22executeState_FireReadyEv 0x800A60F0 f
_ZNK16dEnJrClownBase_c15getFireBasePosYEv 0x800A62E0 f
_ZN16dEnJrClownBase_c20initializeState_FireEv 0x800A62F0 f
_ZN16dEnJrClownBase_c18finalizeState_FireEv 0x800A63D0 f
_ZN16dEnJrClownBase_c17executeState_FireEv 0x800A63E0 f
_ZN16dEnJrClownBase_c23initializeState_DieFallEv 0x800A65E0 f
_ZN16dEnJrClownBase_c17getDieRotZOffsetYEv 0x800A6710 f
_ZN16dEnJrClownBase_c21finalizeState_DieFallEv 0x800A6720 f
_ZN16dEnJrClownBase_c20executeState_DieFallEv 0x800A6730 f
_ZN16dEnJrClownBase_c15getDieRotSpeedZEv 0x800A6800 f
_ZN16dEnJrClownBase_c14nodeCallback_c7timingAEmPN4nw4r3g3d12ChrAnmResultEN4nw4r3g3d6ResMdlE 0x800A6810 f
_ZN16dEnJrClownBase_c16readMyControllerEv 0x800A6870 f
_ZN16dEnJrClownBase_c11isHittedTrgEv 0x800A6880 f
_ZN16dEnJrClownBase_c13isQuakeDamageEv 0x800A6890 f
_ZNK16dEnJrClownBase_c24getAddVerticalSearchSpanEv 0x800A68A0 f
_ZNK16dEnJrClownBase_c19getAddVerticalForceEv 0x800A68B0 f
hash_B294896E_85F398AC          0x800A68C0      f
_ZN16dEnJrClownBase_c21setBrokenB_VisibilityEb 0x800A68D0 f
_ZN16dEnJrClownBase_c21setBrokenA_VisibilityEb 0x800A68E0 f
_ZN16dEnJrClownBase_c12getClownTypeEv 0x800A68F0 f
_ZNK16dEnJrClownBase_c17isStrongAttackingEv 0x800A6900 f
_ZN16dEnJrClownBase_c18setHorizontalSpeedEf 0x800A6920 f
_ZN16dEnJrClownBase_c16setVerticalSpeedEf 0x800A6930 f
_ZNK16dEnJrClownBase_c10isDamagingEv 0x800A6940 f
_ZNK3m3d8anmVis_c7getTypeEv     0x800A69F0      f
__sinit_\d_enemy_jr_clown_base_cpp 0x800A6A00   f
_ZN11sFStateID_cI16dEnJrClownBase_cED0Ev 0x800A70B0 f
_ZN18sFStateVirtualID_cI16dEnJrClownBase_cED0Ev 0x800A7110 f
_ZNK18sFStateVirtualID_cI16dEnJrClownBase_cE6numberEv 0x800A7170 f
_ZNK18sFStateVirtualID_cI16dEnJrClownBase_cE7superIDEv 0x800A7250 f
_ZNK11sFStateID_cI16dEnJrClownBase_cE10isSameNameEPKc 0x800A7330 f
_ZNK11sFStateID_cI16dEnJrClownBase_cE15initializeStateER16dEnJrClownBase_c 0x800A73C0 f
_ZNK11sFStateID_cI16dEnJrClownBase_cE12executeStateER16dEnJrClownBase_c 0x800A73F0 f
_ZNK11sFStateID_cI16dEnJrClownBase_cE13finalizeStateER16dEnJrClownBase_c 0x800A7420 f
_ZN11dEnemyMng_c17EnemyInfoAllClearEv 0x800A7450 f
_ZN11dEnemyMng_c19createRevivalBallonER7mVec3_cii 0x800A74C0 f
_ZN11dEnemyMng_c14createYoshiEggER7mVec3_cmma 0x800A7540 f
_ZN11dEnemyMng_c22SanboEatCreateYoshiEggER7mVec3_cmmai 0x800A7550 f
_ZN11dEnemyMng_c20CommonCreateYoshiEggER7mVec3_cmmai 0x800A7560 f
_ZN11dEnemyMng_c13setBigHanaMngEP14daBigHanaMgr_c 0x800A7640 f
_ZN11dEnemyMng_c15demo_ivy_createEP7mVec3_c 0x800A7690 f
_ZN11dEnemyMng_c15TeresaZposCountEv 0x800A76E0  f
_ZN11dEnemyMng_c24MagSearchKillerZposCountEv 0x800A7740 f
hash_93D9D468_DB2E99B2          0x800A77A0      f
_ZN11dEnemyMng_c17setNoGetItemTimerEi 0x800A7860 f
_ZN11dEnemyMng_c17getNoGetItemTimerEi 0x800A7890 f
_ZN11dEnemyMng_c27search_magkiller_line_checkEih 0x800A78D0 f
_ZN11dEnemyMng_c22search_magkiller_entryEfPfh 0x800A79A0 f
_ZN11dEnemyMng_c18clrQuakeComboCountEv 0x800A7BF0 f
_ZN11dEnemyMng_c18incQuakeComboCountEi 0x800A7C00 f
_ZN11dEnemyMng_c11breakdownSEEiRK7mVec3_c 0x800A7C60 f
_ZN11dEnemyMng_c20clrTogemetComboCountEv 0x800A7D30 f
_ZN11dEnemyMng_c23search_magkiller_deleteEi 0x800A7D80 f
_Z10baseID_IceI10sStateID_cERK12sStateIDIf_cv 0x800A7DA0 f
_Z14baseID_HitSpinI10sStateID_cERK12sStateIDIf_cv 0x800A7DB0 f
_Z12baseID_EatInI10sStateID_cERK12sStateIDIf_cv 0x800A7DC0 f
_Z13baseID_EatNowI10sStateID_cERK12sStateIDIf_cv 0x800A7DD0 f
_Z13baseID_EatOutI10sStateID_cERK12sStateIDIf_cv 0x800A7DE0 f
_ZN5dEn_c11changeStateERK12sStateIDIf_c 0x800A7DF0 f
_ZN5dEn_c19initializeState_IceEv 0x800A7E90     f
_ZN5dEn_c17finalizeState_IceEv  0x800A7F30      f
_ZN5dEn_c16executeState_IceEv   0x800A7F40      f
_ZN5dEn_c14createIceActorEv     0x800A8060      f
_ZN5dEn_c9setIceAnmEv           0x800A8150      f
_ZN5dEn_c13returnAnm_IceEv      0x800A8160      f
_ZN5dEn_c7killIceEv             0x800A8170      f
_ZN5dEn_c15returnState_IceEv    0x800A8180      f
_ZN5dEn_c23initializeState_HitSpinEv 0x800A8190 f
_ZN5dEn_c21finalizeState_HitSpinEv 0x800A81A0   f
_ZN5dEn_c20executeState_HitSpinEv 0x800A81B0    f
_ZN5dEn_c21initializeState_EatInEv 0x800A81C0   f
_ZN5dEn_c19finalizeState_EatInEv 0x800A81D0     f
_ZN5dEn_c18executeState_EatInEv 0x800A81E0      f
_ZN5dEn_c22initializeState_EatNowEv 0x800A8260  f
_ZN5dEn_c20finalizeState_EatNowEv 0x800A8270    f
_ZN5dEn_c19executeState_EatNowEv 0x800A8280     f
_ZN5dEn_c22initializeState_EatOutEv 0x800A8290  f
_ZN5dEn_c20finalizeState_EatOutEv 0x800A82A0    f
_ZN5dEn_c19executeState_EatOutEv 0x800A82B0     f
__sinit_\d_enemy_state_cpp      0x800A82C0      f
_Z14baseID_Jump_StI10sStateID_cERK12sStateIDIf_cv 0x800A8710 f
_Z11baseID_JumpI10sStateID_cERK12sStateIDIf_cv 0x800A8720 f
_Z17baseID_BigJump_StI10sStateID_cERK12sStateIDIf_cv 0x800A8730 f
_Z14baseID_BigJumpI10sStateID_cERK12sStateIDIf_cv 0x800A8740 f
_Z13baseID_LandOnI10sStateID_cERK12sStateIDIf_cv 0x800A8750 f
_Z18baseID_AttackReadyI10sStateID_cERK12sStateIDIf_cv 0x800A8760 f
_Z18baseID_AttackBeginI10sStateID_cERK12sStateIDIf_cv 0x800A8770 f
_Z19baseID_AttackSearchI10sStateID_cERK12sStateIDIf_cv 0x800A8780 f
_Z13baseID_AttackI10sStateID_cERK12sStateIDIf_cv 0x800A8790 f
_Z16baseID_AttackEndI10sStateID_cERK12sStateIDIf_cv 0x800A87A0 f
_Z14baseID_FumiHitI10sStateID_cERK12sStateIDIf_cv 0x800A87B0 f
_Z14baseID_FireHitI10sStateID_cERK12sStateIDIf_cv 0x800A87C0 f
_Z14baseID_StarHitI10sStateID_cERK12sStateIDIf_cv 0x800A87D0 f
_Z15baseID_SlideHitI10sStateID_cERK12sStateIDIf_cv 0x800A87E0 f
_Z15baseID_QuakeHitI10sStateID_cERK12sStateIDIf_cv 0x800A87F0 f
_Z15baseID_ShellHitI10sStateID_cERK12sStateIDIf_cv 0x800A8800 f
_Z18baseID_ShellAtk_StI10sStateID_cERK12sStateIDIf_cv 0x800A8810 f
_Z15baseID_ShellAtkI10sStateID_cERK12sStateIDIf_cv 0x800A8820 f
_Z15baseID_ShellOutI10sStateID_cERK12sStateIDIf_cv 0x800A8830 f
_Z17baseID_DieFumi_StI10sStateID_cERK12sStateIDIf_cv 0x800A8840 f
_Z16baseID_DemoAwakeI10sStateID_cERK12sStateIDIf_cv 0x800A8850 f
_Z21baseID_DemoAwake_WaitI10sStateID_cERK12sStateIDIf_cv 0x800A8860 f
_Z16baseID_DemoIkakuI10sStateID_cERK12sStateIDIf_cv 0x800A8870 f
_Z21baseID_DemoIkaku_WaitI10sStateID_cERK12sStateIDIf_cv 0x800A8880 f
_Z20baseID_DemoEscape_StI10sStateID_cERK12sStateIDIf_cv 0x800A8890 f
_ZN18dEnTorideKokoopa_cC1Ev     0x800A88A0      f
_ZN3mEf13levelEffect_cC1Ev      0x800A8AB0      f
_ZN18dEnTorideKokoopa_cD0Ev     0x800A8B10      f
_ZN18dEnTorideKokoopa_c10preExecuteEv 0x800A8C60 f
_ZN18dEnTorideKokoopa_c12getDrawScaleEv 0x800A8D70 f
_ZN18dEnTorideKokoopa_c14moveAdjust_HIOEv 0x800A8D80 f
_ZN18dEnTorideKokoopa_c11postExecuteEN7fBase_c12MAIN_STATE_eE 0x800A8D90 f
_ZN18dEnTorideKokoopa_c4drawEv  0x800A8E10      f
_ZN18dEnTorideKokoopa_c11drawKokoopaEv 0x800A8E80 f
_ZN18dEnTorideKokoopa_c9drawShellEv 0x800A8E90  f
_ZN18dEnTorideKokoopa_c11finalUpdateEv 0x800A8EA0 f
_ZN18dEnTorideKokoopa_c14calcKokoopaMdlEv 0x800A8F90 f
_ZN18dEnTorideKokoopa_c11calcFacePosEv 0x800A8FA0 f
_ZN18dEnTorideKokoopa_c10calcCcDataEv 0x800A8FC0 f
_ZN18dEnTorideKokoopa_c12calcShellMdlEv 0x800A8FD0 f
_ZN18dEnTorideKokoopa_c12calcBlitzPosEv 0x800A8FE0 f
_ZNK18dEnTorideKokoopa_c25getMagicStickEffectOffsetEv 0x800A9070 f
_ZN18dEnTorideKokoopa_c13isQuakeDamageEv 0x800A9090 f
_ZN18dEnTorideKokoopa_c24hitCallback_PenguinSlideEP5dCc_cP5dCc_c 0x800A9140 f
_ZN18dEnTorideKokoopa_c13setFumiDamageEP8dActor_c 0x800A9190 f
_ZN18dEnTorideKokoopa_c11setFumiDeadEP8dActor_c 0x800A9280 f
_ZN18dEnTorideKokoopa_c13setFireDamageEP8dActor_c 0x800A9440 f
_ZN18dEnTorideKokoopa_c11setFireDeadEP8dActor_c 0x800A9550 f
_ZN18dEnTorideKokoopa_c13setStarDamageEP8dActor_c 0x800A9720 f
_ZN18dEnTorideKokoopa_c11setStarDeadEP8dActor_c 0x800A9810 f
_ZN18dEnTorideKokoopa_c14setQuakeDamageEv 0x800A99D0 f
_ZN18dEnTorideKokoopa_c12setQuakeDeadEv 0x800A9A90 f
_ZN18dEnTorideKokoopa_c14setShellDamageEP8dActor_c 0x800A9BF0 f
_ZN18dEnTorideKokoopa_c12setShellDeadEP8dActor_c 0x800A9D00 f
_ZN18dEnTorideKokoopa_c10damageProcEv 0x800A9EC0 f
_ZN18dEnTorideKokoopa_c7speedUpEv 0x800A9F60    f
_ZN18dEnTorideKokoopa_c8deadProcEv 0x800A9F70   f
_ZN18dEnTorideKokoopa_c12calcJumpRateEv 0x800A9FC0 f
_ZNK18dEnTorideKokoopa_c11getJumpDistEv 0x800AA080 f
_ZN18dEnTorideKokoopa_c14movelimitCheckEf 0x800AA090 f
_ZN18dEnTorideKokoopa_c10moveReviseEv 0x800AA150 f
_ZN18dEnTorideKokoopa_c14wandCcCallbackEP5dCc_cP5dCc_c 0x800AA220 f
_ZN18dEnTorideKokoopa_c16calcAttackTargetEv 0x800AA2A0 f
_ZN18dEnTorideKokoopa_c10lockonTurnEv 0x800AA370 f
_ZN18dEnTorideKokoopa_c13calcLookAngleEv 0x800AA400 f
_ZN18dEnTorideKokoopa_c11changeShellEv 0x800AA480 f
_ZN18dEnTorideKokoopa_c10setShellCcEv 0x800AA4E0 f
_ZN18dEnTorideKokoopa_c13changeKokoopaEv 0x800AA4F0 f
_ZN18dEnTorideKokoopa_c12setKokoopaCcEv 0x800AA530 f
_ZN18dEnTorideKokoopa_c9setAtkCntEv 0x800AA540  f
_ZN18dEnTorideKokoopa_c20getTorideFunfareTimeEv 0x800AA5D0 f
_ZN18dEnTorideKokoopa_c12getTurnSpeedEv 0x800AA5E0 f
_ZN18dEnTorideKokoopa_c12calcDirAngleEs 0x800AA620 f
_ZN18dEnTorideKokoopa_c15defaultDirAngleEv 0x800AA690 f
_ZN18dEnTorideKokoopa_c9blitzMoveEP8dActor_c 0x800AA6A0 f
_ZN18dEnTorideKokoopa_c11getDownTimeEv 0x800AA730 f
_ZN18dEnTorideKokoopa_c18getFumiRecoverTimeEv 0x800AA740 f
_ZN18dEnTorideKokoopa_c20getTenmetsuTime_FireEv 0x800AA750 f
_ZN18dEnTorideKokoopa_c21getTenmetsuTime_PressEv 0x800AA760 f
_ZN18dEnTorideKokoopa_c14calcRootJntPosEv 0x800AA770 f
_ZN18dEnTorideKokoopa_c15calcShellJntPosEv 0x800AA7B0 f
_ZN18dEnTorideKokoopa_c12isTorideBossEv 0x800AA7F0 f
_ZN18dEnTorideKokoopa_c10jumpEffectEv 0x800AA850 f
_ZN18dEnTorideKokoopa_c14jumpRootEffectEv 0x800AA8B0 f
_ZN18dEnTorideKokoopa_c12landonEffectEv 0x800AA920 f
_ZN18dEnTorideKokoopa_c17shellLandonEffectEv 0x800AA980 f
_ZN18dEnTorideKokoopa_c17hitFireLoopEffectEv 0x800AAA10 f
_ZN18dEnTorideKokoopa_c19hitFireDamageEffectEv 0x800AAA80 f
_ZN18dEnTorideKokoopa_c17shellChangeEffectEv 0x800AAAF0 f
_ZNK18dEnTorideKokoopa_c27getShellChangeEffectOffsetYEv 0x800AAB70 f
_ZN18dEnTorideKokoopa_c17shellBumMarEffectEv 0x800AAB80 f
_ZN18dEnTorideKokoopa_c14shellAtkEffectEv 0x800AABF0 f
_ZN18dEnTorideKokoopa_c14downFallEffectEv 0x800AAD70 f
_ZN18dEnTorideKokoopa_c16downLandOnEffectEf 0x800AADE0 f
_ZN18dEnTorideKokoopa_c13fumidmgEffectEv 0x800AAE80 f
_ZN18dEnTorideKokoopa_c14fumideadEffectEv 0x800AAEF0 f
_ZN18dEnTorideKokoopa_c15shellWallEffectEv 0x800AAF80 f
_ZN18dEnTorideKokoopa_c9notice1VoEv 0x800AB0C0  f
_ZN18dEnTorideKokoopa_c9notice2VoEv 0x800AB150  f
_ZN18dEnTorideKokoopa_c6wakeVoEv 0x800AB210     f
_ZN18dEnTorideKokoopa_c9escJumpVoEv 0x800AB2C0  f
_ZN18dEnTorideKokoopa_c11magicShotVoEv 0x800AB300 f
_ZN18dEnTorideKokoopa_c10shellOutVoEv 0x800AB340 f
_ZN18dEnTorideKokoopa_c9damageSVoEv 0x800AB3C0  f
_ZN18dEnTorideKokoopa_c9damageLVoEv 0x800AB400  f
_ZN18dEnTorideKokoopa_c6deadVoEv 0x800AB440     f
_ZN18dEnTorideKokoopa_c11loseFirstVoEv 0x800AB4A0 f
_ZN18dEnTorideKokoopa_c12loseSecondVoEv 0x800AB4E0 f
_ZN18dEnTorideKokoopa_c13checkDownJumpEv 0x800AB590 f
_ZNK18dEnTorideKokoopa_c13isCreateBlitzEv 0x800AB650 f
_ZNK18dEnTorideKokoopa_c17getCreateBlitzFrmEv 0x800AB6F0 f
_ZNK18dEnTorideKokoopa_c12isShootBlitzEv 0x800AB700 f
_ZNK18dEnTorideKokoopa_c11getShootFrmEv 0x800AB7B0 f
_ZN18dEnTorideKokoopa_c17setBeginMoveStateEv 0x800AB7C0 f
_ZN18dEnTorideKokoopa_c14getJumpGravityEv 0x800AB860 f
_ZN18dEnTorideKokoopa_c23initializeState_Jump_StEv 0x800AB870 f
_ZN18dEnTorideKokoopa_c21finalizeState_Jump_StEv 0x800AB910 f
_ZN18dEnTorideKokoopa_c20executeState_Jump_StEv 0x800AB920 f
_ZN18dEnTorideKokoopa_c20initializeState_JumpEv 0x800AB9F0 f
_ZN18dEnTorideKokoopa_c6jumpSEEv 0x800ABB60     f
_ZN18dEnTorideKokoopa_c18finalizeState_JumpEv 0x800ABB80 f
_ZN18dEnTorideKokoopa_c17executeState_JumpEv 0x800ABB90 f
_ZN18dEnTorideKokoopa_c26initializeState_BigJump_StEv 0x800ABC30 f
_ZN18dEnTorideKokoopa_c24finalizeState_BigJump_StEv 0x800ABCD0 f
_ZN18dEnTorideKokoopa_c23executeState_BigJump_StEv 0x800ABCE0 f
_ZN18dEnTorideKokoopa_c23initializeState_BigJumpEv 0x800ABDB0 f
_ZN18dEnTorideKokoopa_c21finalizeState_BigJumpEv 0x800ABF20 f
_ZN18dEnTorideKokoopa_c20executeState_BigJumpEv 0x800ABF30 f
_ZN18dEnTorideKokoopa_c22initializeState_LandOnEv 0x800ABFD0 f
_ZN18dEnTorideKokoopa_c8landonSEEv 0x800AC080   f
_ZN18dEnTorideKokoopa_c20finalizeState_LandOnEv 0x800AC0A0 f
_ZN18dEnTorideKokoopa_c19executeState_LandOnEv 0x800AC0B0 f
_ZN18dEnTorideKokoopa_c27initializeState_AttackReadyEv 0x800AC1A0 f
_ZN18dEnTorideKokoopa_c25finalizeState_AttackReadyEv 0x800AC230 f
_ZN18dEnTorideKokoopa_c24executeState_AttackReadyEv 0x800AC240 f
_ZN18dEnTorideKokoopa_c27initializeState_AttackBeginEv 0x800AC310 f
_ZN18dEnTorideKokoopa_c25finalizeState_AttackBeginEv 0x800AC390 f
_ZN18dEnTorideKokoopa_c24executeState_AttackBeginEv 0x800AC3A0 f
_ZN18dEnTorideKokoopa_c28initializeState_AttackSearchEv 0x800AC470 f
_ZN18dEnTorideKokoopa_c26finalizeState_AttackSearchEv 0x800AC550 f
_ZN18dEnTorideKokoopa_c25executeState_AttackSearchEv 0x800AC560 f
_ZN18dEnTorideKokoopa_c13blitzchargeSEEv 0x800AC760 f
_ZN18dEnTorideKokoopa_c11createBlitzEv 0x800AC770 f
_ZN18dEnTorideKokoopa_c19getAtkSearch2ndTimeEv 0x800AC780 f
_ZN18dEnTorideKokoopa_c16getAtkSearchTimeEv 0x800AC790 f
_ZN18dEnTorideKokoopa_c22initializeState_AttackEv 0x800AC7A0 f
_ZN18dEnTorideKokoopa_c20finalizeState_AttackEv 0x800AC840 f
_ZN18dEnTorideKokoopa_c19executeState_AttackEv 0x800AC850 f
_ZN18dEnTorideKokoopa_c14calcWandCcDataEv 0x800ACA10 f
_ZN18dEnTorideKokoopa_c14setBlitzTargetEv 0x800ACA20 f
_ZN18dEnTorideKokoopa_c10blitzShootEv 0x800ACA30 f
_ZN18dEnTorideKokoopa_c25initializeState_AttackEndEv 0x800ACA40 f
_ZN18dEnTorideKokoopa_c13getAtkEndTimeEv 0x800ACAE0 f
_ZN18dEnTorideKokoopa_c23finalizeState_AttackEndEv 0x800ACAF0 f
_ZN18dEnTorideKokoopa_c22executeState_AttackEndEv 0x800ACB00 f
_ZN18dEnTorideKokoopa_c10beginDanceEv 0x800ACC00 f
_ZN18dEnTorideKokoopa_c18getAtkEndTime_WaitEv 0x800ACC10 f
_ZN18dEnTorideKokoopa_c23initializeState_FumiHitEv 0x800ACC20 f
_ZN18dEnTorideKokoopa_c13getPressScaleEv 0x800ACD30 f
_ZN18dEnTorideKokoopa_c12getPressTimeEv 0x800ACD50 f
_ZN18dEnTorideKokoopa_c21finalizeState_FumiHitEv 0x800ACD60 f
_ZN18dEnTorideKokoopa_c20executeState_FumiHitEv 0x800ACD70 f
_ZN18dEnTorideKokoopa_c23initializeState_FireHitEv 0x800ACF20 f
_ZN18dEnTorideKokoopa_c21finalizeState_FireHitEv 0x800ACFF0 f
_ZN18dEnTorideKokoopa_c20executeState_FireHitEv 0x800AD000 f
_ZN18dEnTorideKokoopa_c23initializeState_StarHitEv 0x800AD090 f
_ZN18dEnTorideKokoopa_c21finalizeState_StarHitEv 0x800AD150 f
_ZN18dEnTorideKokoopa_c20executeState_StarHitEv 0x800AD160 f
_ZN18dEnTorideKokoopa_c24initializeState_QuakeHitEv 0x800AD1E0 f
_ZN18dEnTorideKokoopa_c22finalizeState_QuakeHitEv 0x800AD230 f
_ZN18dEnTorideKokoopa_c21executeState_QuakeHitEv 0x800AD240 f
_ZN18dEnTorideKokoopa_c24initializeState_SlideHitEv 0x800AD250 f
_ZN18dEnTorideKokoopa_c22finalizeState_SlideHitEv 0x800AD310 f
_ZN18dEnTorideKokoopa_c21executeState_SlideHitEv 0x800AD320 f
_ZN18dEnTorideKokoopa_c24initializeState_ShellHitEv 0x800AD3A0 f
_ZN18dEnTorideKokoopa_c22finalizeState_ShellHitEv 0x800AD460 f
_ZN18dEnTorideKokoopa_c21executeState_ShellHitEv 0x800AD470 f
_ZN18dEnTorideKokoopa_c27initializeState_ShellAtk_StEv 0x800AD4F0 f
_ZN18dEnTorideKokoopa_c9shellinSEEv 0x800AD6F0  f
_ZN18dEnTorideKokoopa_c25finalizeState_ShellAtk_StEv 0x800AD710 f
_ZN18dEnTorideKokoopa_c24executeState_ShellAtk_StEv 0x800AD720 f
_ZN18dEnTorideKokoopa_c10shellatkSEEv 0x800AD990 f
_ZN18dEnTorideKokoopa_c13shelllandonSEEv 0x800AD9B0 f
_ZN18dEnTorideKokoopa_c24initializeState_ShellAtkEv 0x800AD9D0 f
_ZN18dEnTorideKokoopa_c22finalizeState_ShellAtkEv 0x800ADAF0 f
_ZN18dEnTorideKokoopa_c21executeState_ShellAtkEv 0x800ADB00 f
_ZN18dEnTorideKokoopa_c24initializeState_ShellOutEv 0x800ADCE0 f
_ZN18dEnTorideKokoopa_c10shelloutSEEv 0x800ADE20 f
_ZN18dEnTorideKokoopa_c22finalizeState_ShellOutEv 0x800ADE40 f
_ZN18dEnTorideKokoopa_c21executeState_ShellOutEv 0x800ADE50 f
_ZNK18dEnTorideKokoopa_c10checkGetUpEv 0x800ADFE0 f
_ZN18dEnTorideKokoopa_c7getupSEEv 0x800ADFF0    f
_ZNK18dEnTorideKokoopa_c15getKokoopaOnFrmEv 0x800AE000 f
_ZNK18dEnTorideKokoopa_c14getShellOffFrmEv 0x800AE010 f
_ZN18dEnTorideKokoopa_c26initializeState_DieFumi_StEv 0x800AE020 f
_ZN18dEnTorideKokoopa_c24finalizeState_DieFumi_StEv 0x800AE120 f
_ZN18dEnTorideKokoopa_c23executeState_DieFumi_StEv 0x800AE130 f
_ZN18dEnTorideKokoopa_c23initializeState_DieFireEv 0x800AE2D0 f
_ZN18dEnTorideKokoopa_c21finalizeState_DieFireEv 0x800AE310 f
_ZN18dEnTorideKokoopa_c20executeState_DieFireEv 0x800AE320 f
_ZN18dEnTorideKokoopa_c24initializeState_DieShellEv 0x800AE370 f
_ZN18dEnTorideKokoopa_c22finalizeState_DieShellEv 0x800AE3B0 f
_ZN18dEnTorideKokoopa_c21executeState_DieShellEv 0x800AE3C0 f
_ZN18dEnTorideKokoopa_c20hitShellDamageEffectEv 0x800AE410 f
_ZN18dEnTorideKokoopa_c24initializeState_DemoWaitEv 0x800AE420 f
_ZN18dEnTorideKokoopa_c22finalizeState_DemoWaitEv 0x800AE500 f
_ZN18dEnTorideKokoopa_c21executeState_DemoWaitEv 0x800AE510 f
_ZN18dEnTorideKokoopa_c25initializeState_DemoAwakeEv 0x800AE580 f
_ZN18dEnTorideKokoopa_c23finalizeState_DemoAwakeEv 0x800AE660 f
_ZN18dEnTorideKokoopa_c22executeState_DemoAwakeEv 0x800AE670 f
_ZN18dEnTorideKokoopa_c7awakeSEEv 0x800AE740    f
_ZN18dEnTorideKokoopa_c30initializeState_DemoAwake_WaitEv 0x800AE750 f
_ZN18dEnTorideKokoopa_c28finalizeState_DemoAwake_WaitEv 0x800AE820 f
_ZN18dEnTorideKokoopa_c27executeState_DemoAwake_WaitEv 0x800AE830 f
_ZN18dEnTorideKokoopa_c25initializeState_DemoIkakuEv 0x800AE8B0 f
_ZN18dEnTorideKokoopa_c23finalizeState_DemoIkakuEv 0x800AE990 f
_ZN18dEnTorideKokoopa_c22executeState_DemoIkakuEv 0x800AE9A0 f
_ZN18dEnTorideKokoopa_c7ikakuSEEv 0x800AEA80    f
_ZN18dEnTorideKokoopa_c11ikakuEffectEv 0x800AEA90 f
_ZN18dEnTorideKokoopa_c30initializeState_DemoIkaku_WaitEv 0x800AEAA0 f
_ZN18dEnTorideKokoopa_c28finalizeState_DemoIkaku_WaitEv 0x800AEB70 f
_ZN18dEnTorideKokoopa_c27executeState_DemoIkaku_WaitEv 0x800AEB80 f
_ZN18dEnTorideKokoopa_c29initializeState_DemoEscape_StEv 0x800AEC00 f
_ZN18dEnTorideKokoopa_c27finalizeState_DemoEscape_StEv 0x800AEC10 f
_ZN18dEnTorideKokoopa_c26executeState_DemoEscape_StEv 0x800AEC20 f
_ZN18dEnTorideKokoopa_c14setBattleReadyEv 0x800AEC30 f
_ZN18dEnTorideKokoopa_c11tenmetsuFinEv 0x800AEC90 f
_ZN18dEnTorideKokoopa_c12tenmetsuProcEv 0x800AECC0 f
_ZNK18dEnTorideKokoopa_c13getShellOnFrmEv 0x800AECD0 f
_ZNK18dEnTorideKokoopa_c16getKokoopaOffFrmEv 0x800AECE0 f
_ZNK18dEnTorideKokoopa_c13isStarInvalidEv 0x800AECF0 f
_ZNK18dEnTorideKokoopa_c13isFireInvalidEv 0x800AED00 f
_ZNK18dEnTorideKokoopa_c13isFumiInvalidEv 0x800AED10 f
_ZNK18dEnTorideKokoopa_c12getLookatPosEv 0x800AED20 f
__sinit_\d_enemy_toride_kokoopa_cpp 0x800AED40  f
_ZN11sFStateID_cI18dEnTorideKokoopa_cED0Ev 0x800B03E0 f
_ZN18sFStateVirtualID_cI18dEnTorideKokoopa_cED0Ev 0x800B0440 f
_Z15baseID_DemoWaitI9dEnBoss_cERK12sStateIDIf_cv 0x800B04A0 f
_Z15baseID_DieShellI9dEnBoss_cERK12sStateIDIf_cv 0x800B04B0 f
_Z14baseID_DieFireI9dEnBoss_cERK12sStateIDIf_cv 0x800B04C0 f
_ZNK18sFStateVirtualID_cI18dEnTorideKokoopa_cE6numberEv 0x800B04D0 f
_ZNK18sFStateVirtualID_cI18dEnTorideKokoopa_cE7superIDEv 0x800B05B0 f
_ZNK11sFStateID_cI18dEnTorideKokoopa_cE10isSameNameEPKc 0x800B0690 f
_ZNK11sFStateID_cI18dEnTorideKokoopa_cE15initializeStateER18dEnTorideKokoopa_c 0x800B0720 f
_ZNK11sFStateID_cI18dEnTorideKokoopa_cE12executeStateER18dEnTorideKokoopa_c 0x800B0750 f
_ZNK11sFStateID_cI18dEnTorideKokoopa_cE13finalizeStateER18dEnTorideKokoopa_c 0x800B0780 f
_ZN12FumiCcInfo_c10getFumiRevEv 0x800B07B0      f
_ZN21MugenComboFumiCheck_c7operateERiP5dEn_cR12FumiCcInfo_c 0x800B0800 f
_ZN20KokoopaSpFumiCheck_c7operateERiP5dEn_cR12FumiCcInfo_c 0x800B0840 f
_ZN20KokoopaSpFumiCheck_cD0Ev   0x800B09A0      f
_ZN21MugenComboFumiCheck_cD0Ev  0x800B09E0      f
_ZN8dFader_c11startFadeInEt     0x800B0A20      f
_ZN8dFader_c12startFadeOutEt    0x800B0A90      f
_ZN8dFader_c4calcEv             0x800B0B00      f
_ZN8dFader_c4drawEv             0x800B0B20      f
_ZN8dFader_c11createFaderEPN3EGG4HeapE 0x800B0B50 f
_ZN8dFader_c8setFaderEN8dFader_c12fader_type_eE 0x800B0DB0 f
_ZN11dFlagCtrl_c7initialEv      0x800B0EA0      f
_ZN11dFlagCtrl_c16clearAllFlagDataEv 0x800B0EB0 f
_ZN11dFlagCtrl_c11getFlagDataEtff 0x800B0FD0    f
_ZN11dFlagCtrl_c11setFlagDataEtfft 0x800B1100   f
_ZN10dFontMng_cC1Ev             0x800B11D0      f
_ZN10dFontMng_cD0Ev             0x800B1250      f
_ZN10dFontMng_c14getResFontDataEPKc 0x800B12D0  f
_ZN10dFontMng_c7getFontEi       0x800B1310      f
_ZN10dFontMng_c6createEPN3EGG4HeapE 0x800B1330  f
_ZN10dFontMng_c15getResFontIndexEPKc 0x800B1410 f
__sinit_\d_font_manager_cpp     0x800B1490      f
_ZN16dfukidashiInfo_cC1Ev       0x800B14E0      f
_ZN9sFState_cI16dfukidashiInfo_cED0Ev 0x800B1590 f
_ZN12sFStateFct_cI16dfukidashiInfo_cED0Ev 0x800B15D0 f
_ZN11sStateMgr_cI16dfukidashiInfo_c20sStateMethodUsr_FI_c12sFStateFct_c13sStateIDChk_cED0Ev 0x800B1610 f
_ZN12sFStateMgr_cI16dfukidashiInfo_c20sStateMethodUsr_FI_cED0Ev 0x800B1670 f
_ZN16dfukidashiInfo_cD0Ev       0x800B16E0      f
_ZN16dfukidashiInfo_c12createLayoutEPN3d2d18ResAccMultLoader_cE 0x800B1760 f
_ZN16dfukidashiInfo_c7executeEv 0x800B1910      f
_ZN11sStateMgr_cI16dfukidashiInfo_c20sStateMethodUsr_FI_c12sFStateFct_c13sStateIDChk_cE12executeStateEv 0x800B1980 f
_ZN16dfukidashiInfo_c4drawEv    0x800B1990      f
_ZN16dfukidashiInfo_c8doDeleteEv 0x800B19B0     f
_ZN16dfukidashiInfo_c22ControllerConnectCheckEv 0x800B19C0 f
hash_9563828A_7F1C35A6          0x800B1A50      f
_ZN16dfukidashiInfo_c11PositionSetEv 0x800B1A90 f
_ZN16dfukidashiInfo_c8ColorSetEv 0x800B1BD0     f
_ZN16dfukidashiInfo_c14ScissorMaskSetEv 0x800B1EB0 f
_ZN16dfukidashiInfo_c25initializeState_StartWaitEv 0x800B1F80 f
_ZN16dfukidashiInfo_c22executeState_StartWaitEv 0x800B1FD0 f
_ZN11sStateMgr_cI16dfukidashiInfo_c20sStateMethodUsr_FI_c12sFStateFct_c13sStateIDChk_cE11changeStateERK12sStateIDIf_c 0x800B2020 f
_ZN16dfukidashiInfo_c23finalizeState_StartWaitEv 0x800B2030 f
_ZN16dfukidashiInfo_c28initializeState_OnStageStartEv 0x800B2070 f
_ZN16dfukidashiInfo_c25executeState_OnStageStartEv 0x800B2180 f
_ZN16dfukidashiInfo_c26finalizeState_OnStageStartEv 0x800B21E0 f
_ZN16dfukidashiInfo_c20initializeState_MoveEv 0x800B21F0 f
_ZN16dfukidashiInfo_c17executeState_MoveEv 0x800B2230 f
_ZN7dInfo_c10getWorldNoEv       0x800B2350      f
_ZN7dInfo_c11getCourseNoEv      0x800B2360      f
_ZN16dfukidashiInfo_c18finalizeState_MoveEv 0x800B2370 f
_ZN16dfukidashiInfo_c20initializeState_ExitEv 0x800B2440 f
_ZN16dfukidashiInfo_c17executeState_ExitEv 0x800B2450 f
_ZN16dfukidashiInfo_c18finalizeState_ExitEv 0x800B24B0 f
hash_4E1D9D56_A815AF1A          0x800B2550      f
_ZN12sFStateFct_cI16dfukidashiInfo_cE5buildERK12sStateIDIf_c 0x800B2720 f
_ZN12sFStateFct_cI16dfukidashiInfo_cE7disposeERP10sStateIf_c 0x800B2780 f
_ZN9sFState_cI16dfukidashiInfo_cE10initializeEv 0x800B2790 f
_ZN9sFState_cI16dfukidashiInfo_cE7executeEv 0x800B27B0 f
_ZN9sFState_cI16dfukidashiInfo_cE8finalizeEv 0x800B27D0 f
_ZN11sStateMgr_cI16dfukidashiInfo_c20sStateMethodUsr_FI_c12sFStateFct_c13sStateIDChk_cE15initializeStateEv 0x800B27F0 f
_ZN11sStateMgr_cI16dfukidashiInfo_c20sStateMethodUsr_FI_c12sFStateFct_c13sStateIDChk_cE13finalizeStateEv 0x800B2800 f
_ZN11sStateMgr_cI16dfukidashiInfo_c20sStateMethodUsr_FI_c12sFStateFct_c13sStateIDChk_cE12refreshStateEv 0x800B2810 f
_ZNK11sStateMgr_cI16dfukidashiInfo_c20sStateMethodUsr_FI_c12sFStateFct_c13sStateIDChk_cE8getStateEv 0x800B2820 f
_ZNK11sStateMgr_cI16dfukidashiInfo_c20sStateMethodUsr_FI_c12sFStateFct_c13sStateIDChk_cE13getNewStateIDEv 0x800B2830 f
_ZNK11sStateMgr_cI16dfukidashiInfo_c20sStateMethodUsr_FI_c12sFStateFct_c13sStateIDChk_cE10getStateIDEv 0x800B2840 f
_ZNK11sStateMgr_cI16dfukidashiInfo_c20sStateMethodUsr_FI_c12sFStateFct_c13sStateIDChk_cE13getOldStateIDEv 0x800B2850 f
_ZNK11sFStateID_cI16dfukidashiInfo_cE13finalizeStateER16dfukidashiInfo_c 0x800B2860 f
_ZNK11sFStateID_cI16dfukidashiInfo_cE12executeStateER16dfukidashiInfo_c 0x800B2890 f
_ZNK11sFStateID_cI16dfukidashiInfo_cE15initializeStateER16dfukidashiInfo_c 0x800B28C0 f
__sinit_\d_fukidashiInfo_cpp    0x800B28F0      f
_ZN11sFStateID_cI16dfukidashiInfo_cED0Ev 0x800B2C30 f
_ZNK11sFStateID_cI16dfukidashiInfo_cE10isSameNameEPKc 0x800B2C90 f
_ZN12dFunsuiAct_c7posMoveEv     0x800B2D20      f
_ZN8dGameCom14initRandomSeedEv  0x800B2E70      f
_ZN8dGameCom13setRandomSeedEm   0x800B2EB0      f
_ZN8dGameCom13getRandomSeedEv   0x800B2EC0      f
_ZN8dGameCom9getRandomEm        0x800B2ED0      f
_ZN8dGameCom6rndIntEm           0x800B2EE0      f
_ZN8dGameCom10getRandomFEv      0x800B2EF0      f
_ZN8dGameCom3rndEv              0x800B2F00      f
_ZN8dGameCom4rndFEf             0x800B2F10      f
_ZN8dGameCom11getRandomDpEv     0x800B2F50      f
_ZN8dGameCom5rndFXEf            0x800B2F60      f
_ZN8dGameCom8initGameEv         0x800B2FB0      f
_ZN8dGameCom6calcXYEffs         0x800B3000      f
_ZN8dGameCom14getDispCenterXEv  0x800B30C0      f
_ZN8dGameCom14getDispCenterYEv  0x800B30E0      f
hash_3D0336D3_869EE5BA          0x800B3100      f
hash_762245F8_36F3AAC2          0x800B32E0      f
_ZN8dGameCom14getGlbPosToLytER7mVec3_c 0x800B33D0 f
_ZN8dGameCom16CreateBlueNumberERK7mVec3_cii 0x800B34D0 f
_ZN8dGameCom15CreateRedNumberERK7mVec3_ci 0x800B3510 f
_ZN8dGameCom16CreateSmallScoreERK7mVec3_ciib 0x800B3540 f
_ZN8dGameCom17CreateSmallAll1upERK7mVec3_c 0x800B35B0 f
_ZN8dGameCom16GoalScoreExecuteERK7mVec3_ci 0x800B35D0 f
hash_B6F64CB2_F0C70BE1          0x800B3600      f
hash_5EDAA1DF_BF88549A          0x800B3720      f
hash_9723880B_DEA8588E          0x800B3750      f
hash_08303BDB_5B4097C8          0x800B3780      f
hash_8B549B75_664D0D06          0x800B37B0      f
hash_879781BA_339FED26          0x800B37E0      f
hash_CC16889B_9AC8392E          0x800B38D0      f
hash_D439590F_B380FBB3          0x800B3980      f
hash_5B65588F_EE3EDA18          0x800B39C0      f
_ZN8dGameCom13clearGameStopEv   0x800B3A20      f
_ZN8dGameCom11setGameStopEv     0x800B3A30      f
_ZN17dWarningManager_c9isWarningEv 0x800B3B20   f
_ZN8dGameCom10isGameStopEm      0x800B3B50      f
_ZN8dGameCom16LayoutDispNumberERKiRKiP12LytTextBox_cb 0x800B3B60 f
_ZN8dGameCom21LayoutDispNumberDigitERKiP12LytTextBox_cb 0x800B3BE0 f
_ZN8dGameCom18WindowPaneColorSetEPN4nw4r3lyt6WindowEi 0x800B3C50 f
_ZN8dGameCom19SetSoftLight_PlayerERN3m3d6bmdl_cEi 0x800B3E50 f
_ZN8dGameCom16SetSoftLight_MapERN3m3d6bmdl_cEi 0x800B3F50 f
_ZN8dGameCom17SetSoftLight_BossERN3m3d6bmdl_cEi 0x800B4050 f
_ZN8dGameCom18SetSoftLight_EnemyERN3m3d6bmdl_cEi 0x800B4170 f
_ZN8dGameCom19SetSoftLight_MapObjERN3m3d6bmdl_cEi 0x800B42B0 f
_ZN8dGameCom17SetSoftLight_ItemERN3m3d6bmdl_cEi 0x800B43D0 f
_ZN8dGameCom17SelectCursorSetupEPN4nw4r3lyt4PaneEib 0x800B44D0 f
_ZN8dGameCom15EasyPairingStopEv 0x800B4540      f
_ZN8dGameCom17EasyPairingResumeEv 0x800B45A0    f
_ZN8dGameCom12GetLanguageXEv    0x800B45F0      f
_ZN8dGameCom12GetLanguage6Ev    0x800B4600      f
_ZN8dGameCom14GetLanguageHBMEv  0x800B4630      f
_ZN8dGameCom18AreaLanguageFolderEPKcPc 0x800B4670 f
_ZN8dGameCom16PlayerEnterCheckEi 0x800B4760     f
_ZN8dGameCom14Player1upColorEP12LytTextBox_ci 0x800B4780 f
_ZN8dGameCom19MiniGameCannonTitleEv 0x800B4940  f
_ZN8dGameCom19MiniGameCannonStartEv 0x800B4970  f
_ZN8dGameCom20MiniGameCannonResultEv 0x800B49A0 f
_ZN8dGameCom22MiniGameCannonEndCheckEv 0x800B49D0 f
_ZN8dGameCom31MiniGameCannonTitleCloseRequestEv 0x800B4A00 f
_ZN8dGameCom33MiniGameCannonOperateCloseRequestEv 0x800B4A30 f
_ZN8dGameCom32MiniGameCannonResultCloseRequestEv 0x800B4A60 f
_ZN8dGameCom17MiniGameWireTitleEv 0x800B4A90    f
_ZN8dGameCom17MiniGameWireStartEv 0x800B4AC0    f
hash_71636FC0_C70BA13D          0x800B4AF0      f
_ZN8dGameCom18MiniGameWireResultEPKi 0x800B4B20 f
_ZN8dGameCom20MiniGameWireEndCheckEv 0x800B4B90 f
_ZN8dGameCom29MiniGameWireTitleCloseRequestEv 0x800B4BC0 f
_ZN8dGameCom31MiniGameWireOperateCloseRequestEv 0x800B4BF0 f
_ZN8dGameCom30MiniGameWireResultCloseRequestEv 0x800B4C20 f
_ZN8dGameCom32MiniGameWireTurnOverCloseRequestEv 0x800B4C50 f
hash_28043523_E21C82B0          0x800B4C80      f
hash_F8207C44_B2544017          0x800B4CC0      f
hash_8F40075D_69D61FE1          0x800B4CF0      f
_ZN8dGameCom19MiniGameMessageDispEi 0x800B4DC0  f
_ZN8dGameCom20MiniGameMessageCloseEv 0x800B4E00 f
_ZN8dGameCom16isNowCourseClearEv 0x800B4E30     f
_ZN8dGameCom12isWorldClearEii   0x800B4ED0      f
_ZN8dGameCom12getCourseNumEii   0x800B4F90      f
_ZN8dGameCom18ModelPlayMenuStartEv 0x800B4FD0   f
_ZN8dGameCom19setMultiCourseClearEi 0x800B5000  f
_ZN8dGameCom19offMultiCourseClearEv 0x800B5090  f
_ZN8dGameCom13DispSizeScaleERN4nw4r4math4VEC2E 0x800B5140 f
_ZN8dGameCom16StaffCreditStartEv 0x800B51A0     f
_ZN8dGameCom18StaffCreditAddCoinEi 0x800B51D0   f
_ZN8dGameCom25StaffCreditHighScoreCheckEv 0x800B5210 f
_ZN8dGameCom20StaffCreditHighScoreEv 0x800B5240 f
_ZN8dGameCom15StaffCreditKiMeEv 0x800B5270      f
_ZN8dGameCom11TheEndStartEv     0x800B52A0      f
_ZN8dGameCom16MovieMessageDispEi 0x800B52D0     f
_ZN8dGameCom17MovieMessageCloseEv 0x800B5310    f
_ZN8dGameCom11chkContinueEv     0x800B5340      f
_ZN8dGameCom15chkCancelButtonEi 0x800B53F0      f
_ZN8dGameCom17setWorldClearFlagEv 0x800B5450    f
_ZN8dGameCom14GetAspectRatioEv  0x800B5500      f
_ZN8dGameCom14setRandomArrayEPhi 0x800B5510     f
hash_3CFE71B3_BC58F5FC          0x800B5640      f
hash_47BE0D05_03906D3A          0x800B5730      f
__sinit_\d_game_common_cpp      0x800B5890      f
__arraydtor$82054               0x800B5910      f
_ZN10dGameKey_c14createInstanceEPN3EGG4HeapE 0x800B5930 f
_ZN10dGameKey_cC1Ev             0x800B5980      f
_ZN10dGameKey_cD0Ev             0x800B5A00      f
_ZN10dGameKey_c8allclearEv      0x800B5AB0      f
_ZN10dGameKey_c4readEv          0x800B5B00      f
_ZN14dGameKeyCore_cC1EN4mPad4CH_eE 0x800B5B50   f
_ZN14dGameKeyCore_cD0Ev         0x800B5BA0      f
_ZN14dGameKeyCore_c8allclearEv  0x800B5BE0      f
_ZN14dGameKeyCore_c20getAccVerticalAngleXEv 0x800B5CA0 f
_ZN14dGameKeyCore_c4readEv      0x800B5CB0      f
_ZN14dGameKeyCore_c12setConfigKeyEm 0x800B60D0  f
hash_1E9FEF72_132831B2          0x800B61F0      f
_ZN14dGameKeyCore_c9setShakeYEv 0x800B62A0      f
_ZN14dGameKeyCore_c14triggerAnyMenuEm 0x800B63F0 f
_ZN8dGraph_cC1Ev                0x800B64A0      f
_ZN8dGraph_c6createEPN3EGG4HeapEPN3EGG4HeapEPN3EGG4HeapE 0x800B64B0 f
_ZN8dGraph_c7painterEv          0x800B6530      f
_ZN15dHanaBodyBase_c4drawEv     0x800B6570      f
_ZN15dHanaBodyBase_c7calcMdlERK7mVec3_c 0x800B6580 f
_ZN15dHanaBodyBase_c10calcJntPosEv 0x800B66D0   f
_ZN15dHanaBodyBase_c13alldeathSmokeEv 0x800B66E0 f
_ZN15dHanaBodyBase_c5setCcEPK10sCcDatNewF 0x800B6740 f
_ZN15dHanaBodyBase_c11setCircleCcEPK10sCcDatNewF 0x800B67E0 f
_ZN15dHanaBodyBase_c11setPosAngleERK7mVec3_cRK7mAng3_cf 0x800B6880 f
_ZN15dHanaBodyBase_c12calcPosAngleEv 0x800B6980 f
_ZN15dHanaBodyBase_c6setAnmEPcf 0x800B6A40      f
_ZN15dHanaBodyBase_c12setAnimFrameEf 0x800B6AC0 f
_ZN15dHanaBodyBase_c8downProcEv 0x800B6AD0      f
_ZN15dHanaBodyBase_c9downProc2Ev 0x800B6BA0     f
_ZN15dHanaBodyBase_c11recoverProcEv 0x800B6C30  f
_ZN11dHanaHead_c9createMdlEP16mHeapAllocator_c 0x800B6C70 f
_ZN11dHanaHead_c10calcJntPosEv  0x800B6DA0      f
_ZN11dHanaHead_c10noseBreathEv  0x800B6E40      f
_ZN11dHanaHead_c8moveProcEP15dHanaBodyBase_cf 0x800B6EA0 f
hash_0DE7F011_C5366DC9          0x800B6F40      f
_ZN11dHanaBody_c9createMdlEP16mHeapAllocator_c 0x800B6FA0 f
_ZNK11dHanaBody_c7getDistEv     0x800B7120      f
_ZN11dHanaBody_c8moveProcEP15dHanaBodyBase_cf 0x800B7140 f
hash_F1872629_2BCFBE71          0x800B72E0      f
_ZN14dHanaBigHead_c13calcSakaAngleEs 0x800B7560 f
_ZN14dHanaBigHead_c9createMdlEP16mHeapAllocator_c 0x800B7580 f
_ZN14dHanaBigHead_c13alldeathSmokeEv 0x800B76D0 f
_ZN14dHanaBigHead_c14nodeCallback_c7timingBEmPN4nw4r3g3d13WorldMtxManipEN4nw4r3g3d6ResMdlE 0x800B7730 f
_ZN14dHanaBigBody_c9createMdlEP16mHeapAllocator_c 0x800B77B0 f
_ZN14dHanaBigBody_c13alldeathSmokeEv 0x800B7960 f
_ZN14dHanaBigBody_c14nodeCallback_c7timingBEmPN4nw4r3g3d13WorldMtxManipEN4nw4r3g3d6ResMdlE 0x800B79C0 f
_ZN15dHanaBodyBase_c9downInit2Ev 0x800B7A70     f
_ZN15dHanaBodyBase_c8downInitEv 0x800B7AA0      f
_ZN15dHanaBodyBase_c9angryProcEv 0x800B7AD0     f
_ZN11dHanaBody_c14removeColorAnmEv 0x800B7B00   f
_ZN11dHanaBody_c13initWalkFrameEv 0x800B7B10    f
_ZN11dHanaBody_c13initDushFrameEv 0x800B7B60    f
_ZN11dHanaBody_c13setAngryColorEv 0x800B7BB0    f
_ZN11dHanaBody_c14setNormalColorEv 0x800B7BC0   f
_ZN14dHanaBigBody_c14nodeCallback_cD0Ev 0x800B7BD0 f
_ZN15dHanaBodyBase_c13initWalkFrameEv 0x800B7C10 f
_ZN15dHanaBodyBase_c13initDushFrameEv 0x800B7C20 f
_ZN11dHanaHead_c14removeColorAnmEv 0x800B7C30   f
_ZN11dHanaHead_c13setAngryColorEv 0x800B7C40    f
_ZN11dHanaHead_c14setNormalColorEv 0x800B7C50   f
_ZN14dHanaBigHead_c14nodeCallback_cD0Ev 0x800B7C60 f
_ZN11dHanaBody_cD0Ev            0x800B7CA0      f
_ZN15dHanaBodyBase_cD0Ev        0x800B7D60      f
_ZN11dHanaHead_cD0Ev            0x800B7E00      f
hash_3D99DFF8_C8901F84          0x800B7EF0      f
_ZN15dHanaBodyBase_c8moveProcEP15dHanaBodyBase_cf 0x800B7F00 f
_ZN15dHanaBodyBase_c13setAngryColorEv 0x800B7F10 f
_ZN15dHanaBodyBase_c14setNormalColorEv 0x800B7F20 f
_ZN15dHanaBodyBase_c14removeColorAnmEv 0x800B7F30 f
_ZN15dHanaBodyBase_c9createMdlEP16mHeapAllocator_c 0x800B7F40 f
_ZN14dHanaBigHead_cD0Ev         0x800B7F50      f
_ZN14dHanaBigBody_cD0Ev         0x800B8050      f
__sinit_\d_hana_body_cpp        0x800B8110      f
_ZN13dIceEfMaker_c4initEiP13dIceEfScale_c 0x800B8130 f
_ZN13dIceEfMaker_c7executeEv    0x800B8160      f
_ZN13dIceEfMaker_c3finEv        0x800B8200      f
_ZN13dIceEfMaker_c10setEfScaleERK13dIceEfScale_c 0x800B8210 f
_ZN13dIceEfMaker_c12createEffectEN13dIceEfMaker_c8EfKind_eE 0x800B82A0 f
_ZN13dIceEfMaker_c11hahenEffectEv 0x800B8320    f
__sinit_\d_ice_effect_maker_cpp 0x800B8390      f
_ZN9dIceMng_cC1EP8dActor_c      0x800B8490      f
_ZN9dIceMng_cD0Ev               0x800B8530      f
_ZN9dIceMng_c10initializeEv     0x800B85A0      f
_ZN9dIceMng_c9getIceActEv       0x800B8670      f
_ZN9dIceMng_c12setIceStatusEiii 0x800B8740      f
_ZN9dIceMng_c9createIceEP8dIceInfoi 0x800B8750  f
_ZN9dIceMng_c9removeIceEv       0x800B88A0      f
_ZN9dIceMng_c7setTimeEv         0x800B8920      f
_ZN9dIceMng_c14setNonMeltTimeEv 0x800B8980      f
_ZNK9dIceMng_c14checkMeltShakeEv 0x800B8A00     f
_ZN9dIceMng_c17checkInstantBreakEi 0x800B8A70   f
_ZN9dIceMng_c12setMeltShakeEv   0x800B8B00      f
_ZN9dIceMng_c13stopMeltShakeEv  0x800B8B80      f
_ZN9dIceMng_c11breakEffectEv    0x800B8C00      f
_ZN9dIceMng_c16beginMelt_NormalEv 0x800B8C80    f
_ZN9dIceMng_c11checkLowAirEv    0x800B8D40      f
_ZN9dIceMng_c10manageProcEv     0x800B8F30      f
__sinit_\d_ice_param_cpp        0x800B8FF0      f
_ZN16dIggyWanKusari_c6createEi  0x800B90A0      f
_ZN16dIggyWanKusari_c8allocateEv 0x800B9110     f
_ZN16dIggyWanKusari_c7executeEv 0x800B9170      f
_ZN16dIggyWanKusari_c7calcMdlEv 0x800B91C0      f
_ZN16dIggyWanKusari_c4drawEv    0x800B9220      f
_ZN16dIggyWanKusari_c6removeEv  0x800B9280      f
_ZN16dIggyWanKusari_c11make_kusariEv 0x800B9350 f
_ZN16dIggyWanKusari_c9createMdlEv 0x800B9510    f
_ZN16dIggyWanKusari_c4initEv    0x800B9580      f
_ZNK16dIggyWanKusari_c9getLengthEv 0x800B95C0   f
_ZN16dIggyWanKusari_c22setAlphaForKameckMagicEh 0x800B9600 f
_ZN16dIggyWanKusari_c13calcTightRateEv 0x800B9630 f
_ZN16dIggyWanKusari_c5readyEv   0x800B96F0      f
_ZN16dIggyWanKusari_c6normalEv  0x800B9AE0      f
_ZN16dIggyWanKusari_c5tightEv   0x800B9E90      f
_ZN16dIggyWanKusari_c7releaseEv 0x800BA010      f
_ZN16dIggyWanKusari_c21initializeState_ReadyEv 0x800BA270 f
_ZN16dIggyWanKusari_c19finalizeState_ReadyEv 0x800BA280 f
_ZN16dIggyWanKusari_c18executeState_ReadyEv 0x800BA290 f
_ZN16dIggyWanKusari_c22initializeState_NormalEv 0x800BA310 f
_ZN16dIggyWanKusari_c20finalizeState_NormalEv 0x800BA320 f
_ZN16dIggyWanKusari_c19executeState_NormalEv 0x800BA330 f
_ZN16dIggyWanKusari_c21initializeState_TightEv 0x800BA3A0 f
_ZN16dIggyWanKusari_c19finalizeState_TightEv 0x800BA3B0 f
_ZN16dIggyWanKusari_c18executeState_TightEv 0x800BA3C0 f
_ZN16dIggyWanKusari_c23initializeState_ReleaseEv 0x800BA3D0 f
_ZN16dIggyWanKusari_c21finalizeState_ReleaseEv 0x800BA3E0 f
_ZN16dIggyWanKusari_c20executeState_ReleaseEv 0x800BA3F0 f
_ZN16dIggyWanKusari_c24initializeState_CollapseEv 0x800BA400 f
_ZN16dIggyWanKusari_c22finalizeState_CollapseEv 0x800BA4C0 f
_ZN16dIggyWanKusari_c21executeState_CollapseEv 0x800BA4D0 f
_ZN16dIggyWanKusari_c20initializeState_DeadEv 0x800BA570 f
_ZN16dIggyWanKusari_c18finalizeState_DeadEv 0x800BA580 f
_ZN16dIggyWanKusari_c17executeState_DeadEv 0x800BA590 f
_ZNK11sFStateID_cI16dIggyWanKusari_cE13finalizeStateER16dIggyWanKusari_c 0x800BA5A0 f
_ZNK11sFStateID_cI16dIggyWanKusari_cE12executeStateER16dIggyWanKusari_c 0x800BA5D0 f
_ZNK11sFStateID_cI16dIggyWanKusari_cE15initializeStateER16dIggyWanKusari_c 0x800BA600 f
__sinit_\d_iggy_wan_kusari_cpp  0x800BA630      f
_ZN11sFStateID_cI16dIggyWanKusari_cED0Ev 0x800BAB10 f
_ZNK11sFStateID_cI16dIggyWanKusari_cE10isSameNameEPKc 0x800BAB70 f
_ZN21dIggyWanKusariPiece_c9createMdlER16mHeapAllocator_c 0x800BAC00 f
_ZN21dIggyWanKusariPiece_c7calcMdlEv 0x800BAD20 f
_ZN21dIggyWanKusariPiece_c4drawEv 0x800BAE10    f
_ZN21dIggyWanKusariPiece_c11calcForDemoEv 0x800BAEA0 f
_ZN21dIggyWanKusariPiece_c12calcPosAngleEP8dActor_c 0x800BAEB0 f
_ZN21dIggyWanKusariPiece_c12collapseMoveEv 0x800BAFA0 f
_ZN21dIggyWanKusariPiece_c16setCollapseSpeedEi 0x800BB060 f
_ZN7dInfo_cC1Ev                 0x800BB0E0      f
_ZN7dInfo_cD0Ev                 0x800BB130      f
_ZN7dInfo_c15PlayerStateInitEv  0x800BB180      f
_ZN7dInfo_c16CourseSelectInitEv 0x800BB1C0      f
_ZN7dInfo_c12addStockItemEi     0x800BB330      f
_ZN7dInfo_c12subStockItemEi     0x800BB380      f
_ZNK7dInfo_c12getStockItemEi    0x800BB3D0      f
_ZN7dInfo_c12clsStockItemEi     0x800BB410      f
_ZN7dInfo_c8initGameEv          0x800BB450      f
_ZN7dInfo_c13initMultiModeEv    0x800BB5B0      f
_ZN7dInfo_c9startGameERKN7dInfo_c15StartGameInfo_sE 0x800BB7D0 f
_ZN7dInfo_c16startStaffCreditEv 0x800BB8D0      f
_ZN7dInfo_c9initStageEv         0x800BB940      f
_ZN7dInfo_c16SetWorldMapEnemyEiiRKN7dInfo_c7enemy_sE 0x800BBBC0 f
_ZN7dInfo_c16GetWorldMapEnemyEii 0x800BBC00     f
_ZN7dInfo_c15SetMapEnemyInfoEiiii 0x800BBC20    f
hash_0A406FBE_915302B4          0x800BBC40      f
_ZN7dInfo_c15GetMapEnemyInfoEiiRN7dInfo_c7enemy_sE 0x800BBC60 f
_ZN7dInfo_c11SetIbaraNowEiN7dInfo_c11IbaraMode_eE 0x800BBCA0 f
_ZN7dInfo_c11SetIbaraOldEiN7dInfo_c11IbaraMode_eE 0x800BBCB0 f
_ZN7dInfo_c11GetIbaraNowEi      0x800BBCC0      f
_ZN7dInfo_c11GetIbaraOldEi      0x800BBCD0      f
__sinit_\d_info_cpp             0x800BBCE0      f
__arraydtor$68604               0x800BBD60      f
_ZN7dKADr_c9createMdlEv         0x800BBD80      f
hash_1E9AE6B1_F61F374B          0x800BBE20      f
_ZN7dKADr_c12calc_vtx_posEv     0x800BBE60      f
_ZN7dKADr_c13top_point_setEv    0x800BBF50      f
_ZN7dKADr_c4initEt              0x800BBF60      f
_ZN7dKADr_c4moveERK7mVec3_c     0x800BBFC0      f
_ZN7dKADr_c4drawEv              0x800BC060      f
_ZN7dKADr_c8doDeleteEv          0x800BC070      f
_ZN7dKADr_c9trans_posEPK7mVec3_cP7mVec3_c 0x800BC0C0 f
_ZN7dKADr_c14nodeCallback_c7timingBEmPN4nw4r3g3d13WorldMtxManipEN4nw4r3g3d6ResMdlE 0x800BC190 f
_ZN7dKADr_c14nodeCallback_cD0Ev 0x800BC2F0      f
hash_FB857C58_CE287A3B          0x800BC330      f
_ZN22dKinokoKasaColorDraw_c8setFrameEf 0x800BC4B0 f
_ZN17dKinokoKasaDraw_c17middle_repeat_setEf 0x800BC510 f
_ZN17dKinokoKasaDraw_c19calc_mid_half_widthEff 0x800BC5F0 f
hash_AAFE801E_A45BC727          0x800BC620      f
_ZN17dKinokoKasaDraw_c4drawERK6mMtx_cf 0x800BC700 f
_ZN15dKinokoliftDr_c9createMdlEP12mAllocator_cfft 0x800BC9A0 f
_ZN15dKinokoliftDr_c4calcEft    0x800BCA90      f
_ZN15dKinokoliftDr_c4drawERK7mVec3_cR6mMtx_cs 0x800BCAB0 f
_ZN15dKinokoliftDr_c6removeEv   0x800BCBC0      f
_ZN13dKinopioMdl_cC1Eh          0x800BCBD0      f
_ZN13dKinopioMdl_cD0Ev          0x800BCC90      f
_ZN13dKinopioMdl_c10initializeEv 0x800BCD10     f
_ZN13dKinopioMdl_c17createPlayerModelEv 0x800BCD20 f
_ZN13dKinopioMdl_c5_calcEv      0x800BCF00      f
_ZN13dKinopioMdl_c4playEv       0x800BCF10      f
_ZN13dKinopioMdl_c4drawEv       0x800BCF20      f
_ZN13dKinopioMdl_c12setColorTypeEh 0x800BCF30   f
_ZN12dPlayerMdl_c10getBodyMdlEv 0x800BD140      f
_ZN13dKinopioMdl_c13setTexAnmTypeEN12dPyMdlBase_c12TexAnmType_eE 0x800BD160 f
_ZN13dKinopioMdl_c13getBodyTexAnmEv 0x800BD230  f
_ZN13dKinopioMdl_c14setPersonalAnmEiPN4nw4r3g3d9ResAnmChrEi 0x800BD260 f
_ZN13dKinopioMdl_c18setPersonalRideAnmEiPN4nw4r3g3d9ResAnmChrE 0x800BD5D0 f
_ZN13dKinopioMdl_c22getAimMotionShareScaleEv 0x800BD670 f
_ZN13dKinopioMdl_c15callbackTimingAEPN4nw4r3g3d12ChrAnmResultEN4nw4r3g3d7ResNodeE 0x800BD6F0 f
_ZN12dPyMdlBase_c14updateBonusCapEv 0x800BD720  f
_ZN12dPyMdlBase_c13offStarEffectEv 0x800BD730   f
_ZN12dPyMdlBase_c12onStarEffectEv 0x800BD740    f
_ZN12dPyMdlBase_c14setFunbariRateEf 0x800BD750  f
_ZN12dPlayerMdl_c13getLegLengthPEh 0x800BD760   f
_ZN12dPlayerMdl_c14setPropelScaleEf 0x800BD780  f
_ZNK12dPlayerMdl_c18getPropelRollAngleEv 0x800BD790 f
_ZN12dPlayerMdl_c18setPropelRollAngleEs 0x800BD7A0 f
_ZNK12dPlayerMdl_c18getPropelRollSpeedEv 0x800BD7B0 f
_ZN12dPlayerMdl_c18setPropelRollSpeedEs 0x800BD7C0 f
_ZNK12dPlayerMdl_c13getAnmResFileEv 0x800BD7D0  f
_ZNK12dPlayerMdl_c15getFaceJointIdxEv 0x800BD7E0 f
_ZN18daLiftAllHitDraw_c17toge_hline_texsetEiiff 0x800BD7F0 f
_ZN18daLiftAllHitDraw_c12hline_texsetEiiff 0x800BD9C0 f
_ZN18daLiftAllHitDraw_c6texsetEv 0x800BE050     f
_ZN18daLiftAllHitDraw_c4initEv  0x800BE390      f
_ZN18daLiftAllHitDraw_c4moveER7mVec3_c 0x800BE3E0 f
_ZN18daLiftAllHitDraw_c4drawEv  0x800BE5A0      f
_ZN18daLiftAllHitDraw_c8doDeleteEv 0x800BE640   f
hash_09CCFCD5_8909683A          0x800BE6E0      f
hash_EB3F5B73_918CD94A          0x800BE800      f
hash_1B9676FB_C6834451          0x800BE8D0      f
hash_5D137C53_352A6F1F          0x800BE960      f
hash_F2747BB2_F52BE71E          0x800BE980      f
hash_CACC1769_62462FD7          0x800BE9A0      f
hash_D7B2DB23_A22B97C3          0x800BEA50      f
hash_6B4B8BAB_E08987F8          0x800BEBA0      f
hash_076943F4_6128B552          0x800BEC50      f
hash_00089F26_837E94A3          0x800BEF50      f
hash_30EB1B68_76072004          0x800BF440      f
hash_31FCBC68_472A5DB4          0x800BF730      f
hash_AA3297E0_B14BF1BC          0x800BF820      f
hash_7C3A3474_796C3462          0x800BF9C0      f
hash_A17DF6C1_579723AB          0x800BFA90      f
hash_30E1E344_4DD5950B          0x800BFAF0      f
hash_DD617963_5AA1204B          0x800BFB60      f
hash_399B0A19_720AB0E8          0x800BFCB0      f
_ZN18dLiftAllhitDraw2_c4drawEv  0x800BFDD0      f
hash_5EE5D3B9_5EE5D3B9          0x800BFEA0      f
hash_F6E7F4BF_907FB8B8          0x800BFEC0      f
hash_0D4E3568_4A24D00F          0x800BFEE0      f
hash_1BEFC212_6B54AE35          0x800BFFE0      f
hash_EFC2242C_7CD822CB          0x800C0010      f
hash_AF34C24C_8D9653AB          0x800C0040      f
_ZN23dLiftDownOnNormalDraw_c9createMdlER12mAllocator_cfff 0x800C0060 f
_ZN23dLiftDownOnNormalDraw_c4drawERK6mMtx_c 0x800C01F0 f
_ZN23dLiftDownOnNormalDraw_c8setFrameEf 0x800C0260 f
hash_997025C0_9862D939          0x800C02B0      f
_ZN23daLiftNormalModelDraw_c8modelsetEv 0x800C0360 f
_ZN23daLiftNormalModelDraw_c10repeat_setEv 0x800C0490 f
_ZN23daLiftNormalModelDraw_c14center_pos_setEv 0x800C0590 f
_ZN23daLiftNormalModelDraw_c12side_pos_setER7mVec3_cis 0x800C05C0 f
_ZN23daLiftNormalModelDraw_c4initEv 0x800C0710  f
_ZN23daLiftNormalModelDraw_c4moveERK7mVec3_cf 0x800C07A0 f
_ZN23daLiftNormalModelDraw_c4drawEv 0x800C0800  f
_ZN6dLight4InitEv               0x800C0B30      f
_ZN6dLight11setFarLightEiR6mColorR7mVec3_c 0x800C0C40 f
_ZN6dLight6setAmbEiR6mColor     0x800C0D40      f
_ZN10dLineMng_cC1Ev             0x800C0DC0      f
_ZN17sFStateStateMgr_cI10dLineMng_c20sStateMethodUsr_FI_c20sStateMethodUsr_FI_cED0Ev 0x800C0ED0 f
_ZN16sStateStateMgr_cI10dLineMng_c12sFStateMgr_c20sStateMethodUsr_FI_c20sStateMethodUsr_FI_cED0Ev 0x800C0F60 f
_ZN12sFStateMgr_cI10dLineMng_c20sStateMethodUsr_FI_cED0Ev 0x800C0FF0 f
_ZN11sStateMgr_cI10dLineMng_c20sStateMethodUsr_FI_c12sFStateFct_c13sStateIDChk_cED0Ev 0x800C1060 f
_ZN12sFStateFct_cI10dLineMng_cED0Ev 0x800C10C0  f
_ZN9sFState_cI10dLineMng_cED0Ev 0x800C1100      f
_ZN10dLineMng_c4initERK7mVec2_cfih 0x800C1140   f
_ZN16sStateStateMgr_cI10dLineMng_c12sFStateMgr_c20sStateMethodUsr_FI_c20sStateMethodUsr_FI_cE11changeStateERK12sStateIDIf_c 0x800C1260 f
_ZN10dLineMng_c4moveEv          0x800C1280      f
_ZN16sStateStateMgr_cI10dLineMng_c12sFStateMgr_c20sStateMethodUsr_FI_c20sStateMethodUsr_FI_cE12executeStateEv 0x800C12E0 f
_ZNK10dLineMng_c6GetPosEv       0x800C1300      f
_ZN10dLineMng_c6SetPosERK7mVec2_c 0x800C1320    f
_ZN10dLineMng_c14CalcAdjustPosYEff 0x800C1340   f
_ZNK16sStateStateMgr_cI10dLineMng_c12sFStateMgr_c20sStateMethodUsr_FI_c20sStateMethodUsr_FI_cE10getStateIDEv 0x800C1540 f
_ZN10dLineMng_c12SetBaseSpeedEf 0x800C1560      f
_ZNK10dLineMng_c9acm_angleEv    0x800C1580      f
hash_993CE68C_3BF3A98B          0x800C15B0      f
_ZN10dLineMng_c15start_line_moveEv 0x800C15D0   f
_ZN10dLineMng_c17is_unit_circle2x2Em 0x800C1750 f
_ZN10dLineMng_c17is_unit_circle4x4Em 0x800C1790 f
_ZN10dLineMng_c10change_dirEv   0x800C17D0      f
_ZN10dLineMng_c13getLineUnitNoEff 0x800C17F0    f
hash_DC3CE209_57BD5ECD          0x800C1860      f
_ZN10dLineMng_c10check_termEv   0x800C1900      f
_ZN10dLineMng_c22line_cross_slope_checkERK7mVec2_cRK7mVec2_cRfRf 0x800C1A30 f
_ZN10dLineMng_c22line_cross_range_checkEfff 0x800C1A90 f
_ZN10dLineMng_c15line_cross_chk1EffRK7mVec2_c7mVec2_c7mVec2_cR7mVec2_c 0x800C1AE0 f
_ZN10dLineMng_c15line_cross_chk2EfRK7mVec2_c7mVec2_c7mVec2_cRf 0x800C1CD0 f
_ZN10dLineMng_c15line_cross_chk3EfRK7mVec2_cRK7mVec2_c 0x800C1E60 f
hash_F570128A_4F751640          0x800C1EE0      f
_ZN10dLineMng_c16height_cross_chkERK7mVec2_cRK7mVec2_cRK7mVec2_c 0x800C1F70 f
_ZN10dLineMng_c15width_cross_chkERK7mVec2_cRK7mVec2_cRK7mVec2_c 0x800C2080 f
_ZN10dLineMng_c15line0_cross_chkERK7mVec2_cRK7mVec2_cRK7mVec2_c 0x800C20C0 f
_ZN10dLineMng_c15line1_cross_chkERK7mVec2_cRK7mVec2_cRK7mVec2_c 0x800C2140 f
_ZN10dLineMng_c16line3h_cross_chkERK7mVec2_cRK7mVec2_cRK7mVec2_c 0x800C21B0 f
_ZN10dLineMng_c16line3v_cross_chkERK7mVec2_cRK7mVec2_cRK7mVec2_c 0x800C2210 f
_ZN10dLineMng_c15line4_cross_chkERK7mVec2_cRK7mVec2_cRK7mVec2_c 0x800C2270 f
_ZN10dLineMng_c15line5_cross_chkERK7mVec2_cRK7mVec2_cRK7mVec2_c 0x800C22D0 f
_ZN10dLineMng_c15line7_cross_chkERK7mVec2_cRK7mVec2_cRK7mVec2_c 0x800C2330 f
_ZN10dLineMng_c15line8_cross_chkERK7mVec2_cRK7mVec2_cRK7mVec2_c 0x800C23B0 f
_ZN10dLineMng_c15line9_cross_chkERK7mVec2_cRK7mVec2_cRK7mVec2_c 0x800C2440 f
_ZN10dLineMng_c15lineA_cross_chkERK7mVec2_cRK7mVec2_cRK7mVec2_c 0x800C24B0 f
_ZN10dLineMng_c15lineB_cross_chkERK7mVec2_cRK7mVec2_cRK7mVec2_c 0x800C2540 f
_ZN10dLineMng_c15lineC_cross_chkERK7mVec2_cRK7mVec2_cRK7mVec2_c 0x800C25D0 f
_ZN10dLineMng_c15lineD_cross_chkERK7mVec2_cRK7mVec2_cRK7mVec2_c 0x800C2660 f
_ZN10dLineMng_c15lineE_cross_chkERK7mVec2_cRK7mVec2_cRK7mVec2_c 0x800C26E0 f
_ZN10dLineMng_c15lineF_cross_chkERK7mVec2_c7mVec2_c7mVec2_c 0x800C2750 f
_ZN10dLineMng_c20circle_ul2_cross_chkERK7mVec2_c7mVec2_c7mVec2_c 0x800C2840 f
_ZN10dLineMng_c20circle_ur2_cross_chkERK7mVec2_c7mVec2_c7mVec2_c 0x800C2980 f
_ZN10dLineMng_c20circle_dl2_cross_chkERK7mVec2_c7mVec2_c7mVec2_c 0x800C2AB0 f
_ZN10dLineMng_c20circle_dr2_cross_chkERK7mVec2_c7mVec2_c7mVec2_c 0x800C2BE0 f
_ZN10dLineMng_c18lineRHUR_cross_chkERK7mVec2_c7mVec2_c7mVec2_c 0x800C2D00 f
_ZN10dLineMng_c18lineRHUL_cross_chkERK7mVec2_c7mVec2_c7mVec2_c 0x800C2E30 f
_ZN10dLineMng_c18lineRHLL_cross_chkERK7mVec2_c7mVec2_c7mVec2_c 0x800C2F70 f
_ZN10dLineMng_c18lineRHLR_cross_chkERK7mVec2_c7mVec2_c7mVec2_c 0x800C30A0 f
hash_9B72C199_D3689F1D          0x800C31C0      f
_ZN10dLineMng_c18circle_nextpos_setERK7mVec2_cf 0x800C3A60 f
hash_56D7D81B_2735F7DF          0x800C3B20      f
hash_6264449A_7A11D31E          0x800C3B60      f
hash_3079926B_82942B90          0x800C3BA0      f
hash_3668217B_A84AF940          0x800C3BF0      f
_ZN10dLineMng_c25calc_rotate_to_circle_revEtb 0x800C3C10 f
_ZN10dLineMng_c26calc_rotate_to_circle_prevEtb 0x800C3C80 f
_ZN10dLineMng_c17mov_to_rightupperEmRK7mVec2_cb 0x800C3CF0 f
_ZN10dLineMng_c17mov_to_rightlowerEmRK7mVec2_cb 0x800C40B0 f
_ZN10dLineMng_c16mov_to_leftupperEmRK7mVec2_cb 0x800C43F0 f
_ZN10dLineMng_c16mov_to_leftlowerEmRK7mVec2_cb 0x800C47D0 f
_ZN10dLineMng_c18mov_frm_rightupperERK7mVec2_cb 0x800C4BA0 f
_ZN10dLineMng_c17mov_frm_leftlowerERK7mVec2_cb 0x800C4CA0 f
_ZN10dLineMng_c18mov_frm_rightlowerERK7mVec2_cb 0x800C4DA0 f
_ZN10dLineMng_c17mov_frm_leftupperERK7mVec2_cb 0x800C4EA0 f
_ZN10dLineMng_c23move_on_circle_speedsetEff 0x800C4FA0 f
_ZN10dLineMng_c15move_on_circle1Eff 0x800C50D0  f
_ZN10dLineMng_c15move_on_circle2Eff 0x800C51F0  f
_ZN10dLineMng_c15move_on_circle3Eff 0x800C5330  f
_ZN10dLineMng_c15move_on_circle4Eff 0x800C5460  f
_ZN10dLineMng_c20initializeState_IdleEv 0x800C55A0 f
_ZN10dLineMng_c18finalizeState_IdleEv 0x800C55B0 f
_ZN10dLineMng_c17executeState_IdleEv 0x800C55C0 f
_ZN10dLineMng_c24initializeState_FallDownEv 0x800C55D0 f
_ZN10dLineMng_c22finalizeState_FallDownEv 0x800C55E0 f
_ZN10dLineMng_c21executeState_FallDownEv 0x800C55F0 f
_ZN10dLineMng_c22initializeState_Left45Ev 0x800C5630 f
_ZN10dLineMng_c20finalizeState_Left45Ev 0x800C5690 f
_ZN10dLineMng_c19executeState_Left45Ev 0x800C56A0 f
_ZN10dLineMng_c23initializeState_Right45Ev 0x800C5790 f
_ZN10dLineMng_c21finalizeState_Right45Ev 0x800C57E0 f
_ZN10dLineMng_c20executeState_Right45Ev 0x800C57F0 f
_ZN10dLineMng_c20initializeState_SideEv 0x800C58E0 f
_ZN10dLineMng_c18finalizeState_SideEv 0x800C5930 f
_ZN10dLineMng_c17executeState_SideEv 0x800C5940 f
_ZN10dLineMng_c22initializeState_HeightEv 0x800C5A10 f
_ZN10dLineMng_c20finalizeState_HeightEv 0x800C5A60 f
_ZN10dLineMng_c19executeState_HeightEv 0x800C5A70 f
_ZN10dLineMng_c32initializeState_CornerHeightLineEv 0x800C5B40 f
_ZN10dLineMng_c30finalizeState_CornerHeightLineEv 0x800C5B90 f
_ZN10dLineMng_c29executeState_CornerHeightLineEv 0x800C5BA0 f
_ZN10dLineMng_c30initializeState_CornerSideLineEv 0x800C5C80 f
_ZN10dLineMng_c28finalizeState_CornerSideLineEv 0x800C5CD0 f
_ZN10dLineMng_c27executeState_CornerSideLineEv 0x800C5CE0 f
_ZN10dLineMng_c26initializeState_Left30LeftEv 0x800C5DC0 f
_ZN10dLineMng_c24finalizeState_Left30LeftEv 0x800C5E30 f
_ZN10dLineMng_c23executeState_Left30LeftEv 0x800C5E40 f
_ZN10dLineMng_c27initializeState_Left30RightEv 0x800C5FD0 f
_ZN10dLineMng_c25finalizeState_Left30RightEv 0x800C6040 f
_ZN10dLineMng_c24executeState_Left30RightEv 0x800C6050 f
_ZN10dLineMng_c27initializeState_Right30LeftEv 0x800C61E0 f
_ZN10dLineMng_c25finalizeState_Right30LeftEv 0x800C6240 f
_ZN10dLineMng_c24executeState_Right30LeftEv 0x800C6250 f
_ZN10dLineMng_c28initializeState_Right30RightEv 0x800C63F0 f
_ZN10dLineMng_c26finalizeState_Right30RightEv 0x800C6450 f
_ZN10dLineMng_c25executeState_Right30RightEv 0x800C6460 f
_ZN10dLineMng_c24initializeState_Left60UpEv 0x800C6600 f
_ZN10dLineMng_c22finalizeState_Left60UpEv 0x800C6670 f
_ZN10dLineMng_c21executeState_Left60UpEv 0x800C6680 f
_ZN10dLineMng_c26initializeState_Left60DownEv 0x800C6820 f
_ZN10dLineMng_c24finalizeState_Left60DownEv 0x800C6890 f
_ZN10dLineMng_c23executeState_Left60DownEv 0x800C68A0 f
_ZN10dLineMng_c27initializeState_Right60DownEv 0x800C6A40 f
_ZN10dLineMng_c25finalizeState_Right60DownEv 0x800C6AB0 f
_ZN10dLineMng_c24executeState_Right60DownEv 0x800C6AC0 f
_ZN10dLineMng_c25initializeState_Right60UpEv 0x800C6C60 f
_ZN10dLineMng_c23finalizeState_Right60UpEv 0x800C6CC0 f
_ZN10dLineMng_c22executeState_Right60UpEv 0x800C6CD0 f
_ZN10dLineMng_c22initializeState_CircleEv 0x800C6E70 f
_ZN10dLineMng_c20finalizeState_CircleEv 0x800C6EB0 f
_ZN10dLineMng_c19executeState_CircleEv 0x800C6EC0 f
_ZN10dLineMng_c31initializeState_Circle2x2LeftupEv 0x800C6F50 f
_ZN10dLineMng_c29finalizeState_Circle2x2LeftupEv 0x800C6F90 f
_ZN10dLineMng_c28executeState_Circle2x2LeftupEv 0x800C6FA0 f
_ZN10dLineMng_c32initializeState_Circle2x2RightupEv 0x800C6FB0 f
_ZN10dLineMng_c30finalizeState_Circle2x2RightupEv 0x800C6FF0 f
_ZN10dLineMng_c29executeState_Circle2x2RightupEv 0x800C7000 f
_ZN10dLineMng_c33initializeState_Circle2x2LeftDownEv 0x800C7010 f
_ZN10dLineMng_c31finalizeState_Circle2x2LeftDownEv 0x800C7050 f
_ZN10dLineMng_c30executeState_Circle2x2LeftDownEv 0x800C7060 f
_ZN10dLineMng_c34initializeState_Circle2x2RightDownEv 0x800C7070 f
_ZN10dLineMng_c32finalizeState_Circle2x2RightDownEv 0x800C70B0 f
_ZN10dLineMng_c31executeState_Circle2x2RightDownEv 0x800C70C0 f
_ZN10dLineMng_c32initializeState_Circle4x4RightupEv 0x800C70D0 f
_ZN10dLineMng_c30finalizeState_Circle4x4RightupEv 0x800C7110 f
_ZN10dLineMng_c29executeState_Circle4x4RightupEv 0x800C7120 f
_ZN10dLineMng_c31initializeState_Circle4x4LeftUpEv 0x800C7130 f
_ZN10dLineMng_c29finalizeState_Circle4x4LeftUpEv 0x800C7170 f
_ZN10dLineMng_c28executeState_Circle4x4LeftUpEv 0x800C7180 f
_ZN10dLineMng_c33initializeState_Circle4x4LeftDownEv 0x800C7190 f
_ZN10dLineMng_c31finalizeState_Circle4x4LeftDownEv 0x800C71D0 f
_ZN10dLineMng_c30executeState_Circle4x4LeftDownEv 0x800C71E0 f
_ZN10dLineMng_c34initializeState_Circle4x4RightDownEv 0x800C71F0 f
_ZN10dLineMng_c32finalizeState_Circle4x4RightDownEv 0x800C7230 f
_ZN10dLineMng_c31executeState_Circle4x4RightDownEv 0x800C7240 f
_ZN16sStateStateMgr_cI10dLineMng_c12sFStateMgr_c20sStateMethodUsr_FI_c20sStateMethodUsr_FI_cE15initializeStateEv 0x800C7250 f
_ZN16sStateStateMgr_cI10dLineMng_c12sFStateMgr_c20sStateMethodUsr_FI_c20sStateMethodUsr_FI_cE13finalizeStateEv 0x800C7270 f
_ZNK16sStateStateMgr_cI10dLineMng_c12sFStateMgr_c20sStateMethodUsr_FI_c20sStateMethodUsr_FI_cE10isSubStateEv 0x800C72E0 f
_ZN16sStateStateMgr_cI10dLineMng_c12sFStateMgr_c20sStateMethodUsr_FI_c20sStateMethodUsr_FI_cE11returnStateEv 0x800C7300 f
_ZNK16sStateStateMgr_cI10dLineMng_c12sFStateMgr_c20sStateMethodUsr_FI_c20sStateMethodUsr_FI_cE13getOldStateIDEv 0x800C7360 f
_ZN12sFStateFct_cI10dLineMng_cE5buildERK12sStateIDIf_c 0x800C7380 f
_ZN12sFStateFct_cI10dLineMng_cE7disposeERP10sStateIf_c 0x800C73E0 f
_ZN9sFState_cI10dLineMng_cE10initializeEv 0x800C73F0 f
_ZN9sFState_cI10dLineMng_cE7executeEv 0x800C7410 f
_ZN9sFState_cI10dLineMng_cE8finalizeEv 0x800C7430 f
_ZN16sStateStateMgr_cI10dLineMng_c12sFStateMgr_c20sStateMethodUsr_FI_c20sStateMethodUsr_FI_cE12refreshStateEv 0x800C7450 f
_ZN16sStateStateMgr_cI10dLineMng_c12sFStateMgr_c20sStateMethodUsr_FI_c20sStateMethodUsr_FI_cE16changeToSubStateERK12sStateIDIf_c 0x800C7470 f
_ZNK16sStateStateMgr_cI10dLineMng_c12sFStateMgr_c20sStateMethodUsr_FI_c20sStateMethodUsr_FI_cE8getStateEv 0x800C7490 f
_ZNK16sStateStateMgr_cI10dLineMng_c12sFStateMgr_c20sStateMethodUsr_FI_c20sStateMethodUsr_FI_cE13getNewStateIDEv 0x800C74B0 f
_ZNK16sStateStateMgr_cI10dLineMng_c12sFStateMgr_c20sStateMethodUsr_FI_c20sStateMethodUsr_FI_cE14getMainStateIDEv 0x800C74D0 f
_ZN11sStateMgr_cI10dLineMng_c20sStateMethodUsr_FI_c12sFStateFct_c13sStateIDChk_cE15initializeStateEv 0x800C74E0 f
_ZN11sStateMgr_cI10dLineMng_c20sStateMethodUsr_FI_c12sFStateFct_c13sStateIDChk_cE12executeStateEv 0x800C74F0 f
_ZN11sStateMgr_cI10dLineMng_c20sStateMethodUsr_FI_c12sFStateFct_c13sStateIDChk_cE13finalizeStateEv 0x800C7500 f
_ZN11sStateMgr_cI10dLineMng_c20sStateMethodUsr_FI_c12sFStateFct_c13sStateIDChk_cE11changeStateERK12sStateIDIf_c 0x800C7510 f
_ZN11sStateMgr_cI10dLineMng_c20sStateMethodUsr_FI_c12sFStateFct_c13sStateIDChk_cE12refreshStateEv 0x800C7520 f
_ZNK11sStateMgr_cI10dLineMng_c20sStateMethodUsr_FI_c12sFStateFct_c13sStateIDChk_cE8getStateEv 0x800C7530 f
_ZNK11sStateMgr_cI10dLineMng_c20sStateMethodUsr_FI_c12sFStateFct_c13sStateIDChk_cE13getNewStateIDEv 0x800C7540 f
_ZNK11sStateMgr_cI10dLineMng_c20sStateMethodUsr_FI_c12sFStateFct_c13sStateIDChk_cE10getStateIDEv 0x800C7550 f
_ZNK11sStateMgr_cI10dLineMng_c20sStateMethodUsr_FI_c12sFStateFct_c13sStateIDChk_cE13getOldStateIDEv 0x800C7560 f
_ZNK11sFStateID_cI10dLineMng_cE13finalizeStateER10dLineMng_c 0x800C7570 f
_ZNK11sFStateID_cI10dLineMng_cE12executeStateER10dLineMng_c 0x800C75A0 f
_ZNK11sFStateID_cI10dLineMng_cE15initializeStateER10dLineMng_c 0x800C75D0 f
__sinit_\d_line_mng_cpp         0x800C7600      f
_ZN11sFStateID_cI10dLineMng_cED0Ev 0x800C88B0   f
_ZNK11sFStateID_cI10dLineMng_cE10isSameNameEPKc 0x800C8910 f
_ZN9LytBase_cC1Ev               0x800C89A0      f
_ZN9LytBase_cD0Ev               0x800C89F0      f
_ZN9LytBase_c5buildEPKcPN3d2d12ResAccMult_cE 0x800C8A60 f
_ZN9LytBase_c11findTextBoxEPKc  0x800C8AE0      f
_ZN9LytBase_c17allocStringBufferEPN4nw4r3lyt4PaneE 0x800C8AF0 f
_ZN9LytBase_c14ReadResourceExEPKcib 0x800C8C00  f
_ZN9LytBase_c12ReadResourceEPKcb 0x800C8D00     f
_ZN9LytBase_c13ReadResource2EPKci 0x800C8D10    f
_ZN9LytBase_c13NPaneRegisterEPPKcPPN4nw4r3lyt4PaneEi 0x800C8E50 f
_ZN9LytBase_c13WPaneRegisterEPPKcPPN4nw4r3lyt6WindowEi 0x800C8EC0 f
_ZN9LytBase_c13PPaneRegisterEPPKcPPN4nw4r3lyt7PictureEi 0x800C8F30 f
_ZN9LytBase_c13TPaneRegisterEPPKcPP12LytTextBox_ci 0x800C8FA0 f
_ZN9LytBase_c17TPaneNameRegisterEPPKcPKiii 0x800C9010 f
_ZN9LytBase_c16AnimeResRegisterEPPKci 0x800C90A0 f
_ZN3m2d10AnmResV2_cC1Ev         0x800C9150      f
_ZN3m2d10AnmResV2_cD0Ev         0x800C91A0      f
_ZN9LytBase_c13GroupRegisterEPPKcPKii 0x800C91E0 f
_ZN3m2d10AnmGroup_cC1Ev         0x800C92A0      f
_ZN3m2d11FrameCtrl_cD0Ev        0x800C92E0      f
_ZN3m2d10AnmGroup_cD0Ev         0x800C9320      f
_ZN9LytBase_c19AnimeStartBaseSetupEi 0x800C9360 f
_ZN9LytBase_c15AnimeStartSetupEib 0x800C93E0    f
_ZN9LytBase_c19LoopAnimeStartSetupEi 0x800C9470 f
_ZN9LytBase_c22ReverseAnimeStartSetupEib 0x800C94C0 f
_ZN9LytBase_c13AnimeEndSetupEi  0x800C9580      f
_ZN9LytBase_c16AllAnimeEndSetupEv 0x800C95F0    f
_ZN9LytBase_c9AnimePlayEv       0x800C9650      f
_ZN9LytBase_c7isAnimeEi         0x800C9700      f
_ZN9LytBase_c10isAllAnimeEv     0x800C9730      f
hash_E08847B5_282DC441          0x800C9770      f
_ZN9LytBase_c8doDeleteEv        0x800C9A20      f
__sinit_\d_lytbase_cpp          0x800C9B00      f
_ZN12LytTextBox_c10setMessageEP8MsgRes_cmmlz 0x800C9B50 f
_ZN12LytTextBox_c22ExtensionUserDataSetupEv 0x800C9BF0 f
_ZN12LytTextBox_c10setMessageEP8MsgRes_cmmlP16__va_list_struct 0x800C9C40 f
_ZN12LytTextBox_c7setTextEPKwlz 0x800C9EE0      f
_ZN12LytTextBox_c7setTextEPKwlP16__va_list_structP8MsgRes_c 0x800C9F70 f
_ZN5dMain6CreateEv              0x800CA000      f
_ZN5dMain7ExecuteEv             0x800CA030      f
_ZN5dMain6main01EPv             0x800CA050      f
main                            0x800CA080      f
_ZN11dMarioMdl_cC1Eh            0x800CA150      f
_ZN11dMarioMdl_cD0Ev            0x800CA210      f
_ZN11dMarioMdl_c10initializeEv  0x800CA290      f
_ZN11dMarioMdl_c17createPlayerModelEv 0x800CA2D0 f
_ZN11dMarioMdl_c5_calcEv        0x800CA4E0      f
_ZN11dMarioMdl_c4playEv         0x800CA5F0      f
_ZN11dMarioMdl_c4drawEv         0x800CA640      f
_ZN11dMarioMdl_c12setColorTypeEh 0x800CA6B0     f
_ZN11dMarioMdl_c13setTexAnmTypeEN12dPyMdlBase_c12TexAnmType_eE 0x800CA880 f
_ZN11dMarioMdl_c14setPersonalAnmEiPN4nw4r3g3d9ResAnmChrEi 0x800CA890 f
hash_19B15E04_380C5DE2          0x800CAAB0      f
hash_1FE12A4C_C8016F49          0x800CAB00      f
_ZN11dMarioMdl_c22getAimMotionShareScaleEv 0x800CAB60 f
_ZN11dMarioMdl_c14updateBonusCapEv 0x800CABF0   f
hash_DF575746_33A01CFB          0x800CAC00      f
hash_6BA49346_D1C160D3          0x800CAC20      f
hash_9DD586C7_0CE6BC6C          0x800CADA0      f
hash_5C03EC13_B2ABB463          0x800CAE10      f
hash_3E2778E2_4DF20268          0x800CAF60      f
_ZN6quad_cC1EPK7mVec3_c         0x800CB0C0      f
hash_60C8BF2E_5A6BDBA9          0x800CB140      f
_ZN6quad_c9debugDrawEv          0x800CB160      f
_ZN6quad_c6SetPosEPK7mVec3_c    0x800CB170      f
_ZN8spline_cC1ER7mVec3_cff      0x800CB1E0      f
hash_B1C96D0C_49DDCB85          0x800CB2B0      f
_ZN8spline_c9debugDrawEv        0x800CB310      f
_ZN8spline_c4calcEv             0x800CB320      f
hash_7EAE646B_12CFC1E1          0x800CB520      f
_ZN7dMask_cC1Ev                 0x800CB560      f
hash_50F6F16B_9203B759          0x800CB580      f
_ZN7dMask_c7executeEv           0x800CB6A0      f
_ZN7dMask_c4drawEv              0x800CB6C0      f
hash_F82623EE_376BEC91          0x800CB720      f
hash_27098AF4_90209519          0x800CB760      f
hash_A406B4C7_F6DC286B          0x800CB830      f
hash_D5377DB1_2ECBA356          0x800CB850      f
hash_8E170DAA_8C887D46          0x800CB870      f
_ZN13texMaskCave_c7drawOpaEv    0x800CB8D0      f
_ZN18texMaskCaveColor_c7drawOpaEv 0x800CB8E0    f
_ZN13texMaskDark_c7drawXluEv    0x800CB8F0      f
_ZN9texMask_c6__drawEv          0x800CB900      f
_ZN13texMaskCave_c12loadMaterialEv 0x800CB990   f
_ZN18texMaskCaveColor_c12loadMaterialEv 0x800CBBD0 f
_ZN13texMaskDark_c12loadMaterialEv 0x800CBE10   f
_ZN11dDarkMask_cC1Ev            0x800CC050      f
_ZN11dDarkMask_c6createEP12mAllocator_cii 0x800CC090 f
_ZN11dDarkMask_c7drawXluEv      0x800CC140      f
_ZN11dDarkMask_c12loadMaterialEv 0x800CC180     f
_ZN18dDarkSettingMask_cC1Ev     0x800CC340      f
_ZN18dDarkSettingMask_c6createEP12mAllocator_cii 0x800CC390 f
_ZN18dDarkSettingMask_c7drawXluEv 0x800CC440    f
_ZN18dDarkSettingMask_c12loadMaterialEv 0x800CC480 f
_ZN18dDarkSettingMask_c7drawOpaEv 0x800CC660    f
_ZN18dDarkSettingMask_cD0Ev     0x800CC670      f
_ZN11dDarkMask_c7drawOpaEv      0x800CC6D0      f
_ZN11dDarkMask_cD0Ev            0x800CC6E0      f
_ZN7dMask_cD0Ev                 0x800CC740      f
_ZN9texMask_c7drawOpaEv         0x800CC780      f
_ZN13texMaskDark_cD0Ev          0x800CC790      f
_ZN9texMask_c7drawXluEv         0x800CC800      f
_ZN18texMaskCaveColor_cD0Ev     0x800CC810      f
_ZN13texMaskCave_cD0Ev          0x800CC880      f
_ZN8spline_c7getTypeEv          0x800CC8F0      f
_ZN8spline_cD0Ev                0x800CC900      f
_ZN6quad_c7getTypeEv            0x800CC940      f
_ZN6quad_c4calcEv               0x800CC950      f
_ZN6quad_cD0Ev                  0x800CC960      f
hash_C87D25CE_6B8B4BD7          0x800CC9D0      f
_ZN11dCaveMask_c7executeEv      0x800CCA90      f
_ZN11dCaveMask_c4drawEv         0x800CCB30      f
hash_D0237988_335466C0          0x800CCB60      f
hash_4E4F671A_6DB3F22A          0x800CCB70      f
_ZN18dCircleLightMask_c7executeEv 0x800CCC30    f
_ZN18dCircleLightMask_c4drawEv  0x800CCCE0      f
hash_F3155CC3_A202947C          0x800CCD30      f
_ZN17dSwingLightMask_c7executeEv 0x800CCDF0     f
_ZN17dSwingLightMask_c4drawEv   0x800CCE50      f
_ZN16dHandLightMask_cC1Ev       0x800CCE80      f
hash_DEAC5145_CA842F5B          0x800CCEF0      f
_ZN16dHandLightMask_c7executeEv 0x800CCFA0      f
_ZN16dHandLightMask_c4drawEv    0x800CD150      f
_ZN16dHandLightMask_cD0Ev       0x800CD180      f
_ZN17dSwingLightMask_cD0Ev      0x800CD1C0      f
_ZN11dCaveMask_cD0Ev            0x800CD200      f
__sinit_\d_mask_draw_cpp        0x800CD240      f
_ZN8dMaskMng16CreatePlayerMaskEv 0x800CD290     f
_ZN8dMaskMng13GetCaveRadiusEv   0x800CD310      f
_ZN8dMaskMng13GetDarkRadiusEv   0x800CD320      f
_ZN8dMaskMng11GetMaskTypeEv     0x800CD330      f
_ZN8dMaskMng10isDarkMaskEv      0x800CD340      f
_ZN8dMaskMng10isCaveMaskEv      0x800CD3B0      f
_ZN8dMaskMng16GetCaveMaskColorEv 0x800CD420     f
_ZN8dMaskMng8GetAlphaEv         0x800CD440      f
_ZN8dMaskMng20GetWalkDarkMaskScaleEv 0x800CD450 f
_ZN8dMaskMng20GetDashDarkMaskScaleEv 0x800CD460 f
_ZN8dMaskMng25GetDarkMaskScaleResetTimeEv 0x800CD470 f
_ZN10dMaskMng_cC1Ev             0x800CD480      f
_ZN10dMaskMng_cD0Ev             0x800CD4D0      f
_ZN10dMaskMng_c10initializeEv   0x800CD560      f
_ZN10dMaskMng_c6createEv        0x800CD610      f
_ZN10dMaskMng_c10CreateHeapEv   0x800CD670      f
_ZN10dMaskMng_c7executeEv       0x800CD6F0      f
_ZN10dMaskMng_c4drawEv          0x800CD700      f
__sinit_\d_mask_mng_cpp         0x800CD7B0      f
_ZN10dMdActor_cC1Ev             0x800CD800      f
_ZN10dMdActor_cD0Ev             0x800CD860      f
_ZN10dMdActor_c9preCreateEv     0x800CD8C0      f
_ZN10dMdActor_c10postCreateEN7fBase_c12MAIN_STATE_eE 0x800CD8F0 f
_ZN10dMdActor_c9preDeleteEv     0x800CD900      f
_ZN10dMdActor_c10postDeleteEN7fBase_c12MAIN_STATE_eE 0x800CD930 f
_ZN10dMdActor_c10preExecuteEv   0x800CD940      f
_ZN10dMdActor_c11postExecuteEN7fBase_c12MAIN_STATE_eE 0x800CD9D0 f
_ZN10dMdActor_c7preDrawEv       0x800CD9E0      f
_ZN10dMdActor_c8postDrawEN7fBase_c12MAIN_STATE_eE 0x800CDAA0 f
_ZN10dMdActor_c9constructEtP7dBase_cmPK7mVec3_cPK7mAng3_c 0x800CDAB0 f
_ZN10dMdActor_c12GetActorTypeEv 0x800CDAC0      f
__sinit_\d_md_actor_cpp         0x800CDAD0      f
__arraydtor$63024               0x800CDB40      f
_ZN10dMessage_cC1Ev             0x800CDB60      f
_ZN10dMessage_cD0Ev             0x800CDBA0      f
_ZN10dMessage_c6createEPN3EGG4HeapE 0x800CDC20  f
_ZN10dMessage_c11buildMsgResEPN3EGG4HeapE 0x800CDCE0 f
_ZN10dMessage_c6getMsgEmm       0x800CDD30      f
_ZN10dMessage_c9getMesResEv     0x800CDD50      f
hash_6A1BC980_642F33AF          0x800CDD60      f
hash_DF8566D0_A451FFFF          0x800CDEA0      f
_ZN10dMessage_c16changetoFullSizeEPw 0x800CDEE0 f
__sinit_\d_message_cpp          0x800CDF60      f
_ZN11dMj2dGame_cC1Ev            0x800CDFB0      f
_ZN11dMj2dGame_c10initializeEv  0x800CDFC0      f
_ZN11dMj2dGame_c13versionUpdateEv 0x800CE110    f
_ZN11dMj2dGame_c8setPlrIDEii    0x800CE150      f
_ZNK11dMj2dGame_c8getPlrIDEi    0x800CE160      f
_ZN11dMj2dGame_c10setPlrModeEih 0x800CE170      f
_ZNK11dMj2dGame_c10getPlrModeEi 0x800CE180      f
_ZN11dMj2dGame_c7setRestEih     0x800CE190      f
_ZNK11dMj2dGame_c7getRestEi     0x800CE1A0      f
_ZN11dMj2dGame_c13setCreateItemEih 0x800CE1B0   f
_ZNK11dMj2dGame_c13getCreateItemEi 0x800CE1C0   f
_ZN11dMj2dGame_c7setCoinEia     0x800CE1D0      f
_ZNK11dMj2dGame_c7getCoinEi     0x800CE1E0      f
_ZN11dMj2dGame_c8setScoreEm     0x800CE1F0      f
_ZNK11dMj2dGame_c8getScoreEv    0x800CE200      f
_ZN11dMj2dGame_c23setStaffCreditHighScoreEt 0x800CE210 f
_ZN11dMj2dGame_c23getStaffCreditHighScoreEv 0x800CE230 f
_ZN11dMj2dGame_c20onOtehonMenuOpenFlagEi 0x800CE240 f
_ZNK11dMj2dGame_c20isOtehonMenuOpenFlagEi 0x800CE250 f
_ZN11dMj2dGame_c14setCollectCoinEiih 0x800CE270 f
_ZN11dMj2dGame_c24getTotalWorldCollectCoinEi 0x800CE280 f
_ZNK11dMj2dGame_c13isCollectCoinEiii 0x800CE300 f
_ZN11dMj2dGame_c18setStartKinokoKindEih 0x800CE330 f
_ZNK11dMj2dGame_c18getStartKinokoKindEi 0x800CE340 f
_ZN11dMj2dGame_c13setDeathCountEiibh 0x800CE350 f
_ZNK11dMj2dGame_c13getDeathCountEiib 0x800CE3B0 f
hash_2A2E8DE6_9008A666          0x800CE3E0      f
hash_DCA90F91_72E70B52          0x800CE3F0      f
_ZN11dMj2dGame_c11setContinueEia 0x800CE400     f
_ZNK11dMj2dGame_c11getContinueEi 0x800CE410     f
_ZN11dMj2dGame_c12setStockItemEia 0x800CE420    f
_ZNK11dMj2dGame_c15isWorldDataFlagEih 0x800CE440 f
_ZN11dMj2dGame_c15onWorldDataFlagEih 0x800CE450 f
_ZN11dMj2dGame_c16offWorldDataFlagEih 0x800CE470 f
_ZNK11dMj2dGame_c17getCourseDataFlagEii 0x800CE490 f
_ZNK11dMj2dGame_c16isCourseDataFlagEiim 0x800CE4B0 f
_ZN11dMj2dGame_c16onCourseDataFlagEiim 0x800CE4E0 f
_ZN11dMj2dGame_c17offCourseDataFlagEiim 0x800CE500 f
_ZN11dMj2dGame_c20setCSEnemyRevivalCntEiii 0x800CE520 f
_ZNK11dMj2dGame_c20getCSEnemyRevivalCntEii 0x800CE540 f
_ZN11dMj2dGame_c17setCSEnemySceneNoEiih 0x800CE560 f
_ZNK11dMj2dGame_c17getCSEnemySceneNoEii 0x800CE580 f
_ZN11dMj2dGame_c18setCSEnemyPosIndexEiih 0x800CE5A0 f
_ZNK11dMj2dGame_c18getCSEnemyPosIndexEii 0x800CE5C0 f
_ZN11dMj2dGame_c17setCSEnemyWalkDirEiih 0x800CE5E0 f
_ZNK11dMj2dGame_c17getCSEnemyWalkDirEii 0x800CE600 f
_ZN11dMj2dGame_c18setKinopioCourseNoEii 0x800CE620 f
_ZNK11dMj2dGame_c18getKinopioCourseNoEi 0x800CE630 f
_ZN11dMj2dGame_c11setIbaraNowEi 0x800CE640      f
_ZNK11dMj2dGame_c11getIbaraNowEv 0x800CE650     f
_ZN13dMj2dHeader_cC1Ev          0x800CE660      f
_ZN13dMj2dHeader_c10initializeEv 0x800CE670     f
_ZN13dMj2dHeader_c15setSelectFileNoEa 0x800CE6E0 f
_ZNK13dMj2dHeader_c20getPlayCountFreeModeEii 0x800CE6F0 f
_ZN13dMj2dHeader_c20setPlayCountFreeModeEiii 0x800CE710 f
_ZNK13dMj2dHeader_c22getPlayCountCoinBattleEii 0x800CE730 f
_ZN13dMj2dHeader_c22setPlayCountCoinBattleEiii 0x800CE750 f
_ZN13dMj2dHeader_c20onMultiWorldOpenFlagEi 0x800CE770 f
_ZN13dMj2dHeader_c20isMultiWorldOpenFlagEi 0x800CE790 f
_ZN13dMj2dHeader_c13versionUpdateEv 0x800CE7B0  f
_ZN8MsgRes_cC1EPKvPN3EGG4HeapE  0x800CE7F0      f
_ZN8MsgRes_cD0Ev                0x800CE830      f
_ZN8MsgRes_c8getScaleEmm        0x800CE890      f
_ZN8MsgRes_c7getFontEmm         0x800CE8C0      f
_ZN11dMultiMng_cC1Ev            0x800CE8F0      f
_ZN11dMultiMng_cD0Ev            0x800CE910      f
_ZN11dMultiMng_c9initStageEv    0x800CE950      f
_ZN11dMultiMng_c9setClapSEEv    0x800CE9B0      f
_ZN11dMultiMng_c7setRestEii     0x800CEA30      f
_ZN11dMultiMng_c8addScoreEii    0x800CEA40      f
_ZN11dMultiMng_c7incCoinEi      0x800CEAC0      f
_ZN11dMultiMng_c12incEnemyDownEi 0x800CEB10     f
_ZN11dMultiMng_c13setBattleCoinEii 0x800CEB60   f
_ZN11dMultiMng_c17setCollectionCoinEv 0x800CEC70 f
_ZN13dNandThread_cC1EiPN3EGG4HeapE 0x800CED00   f
_ZN3EGG5MutexD0Ev               0x800CEE20      f
_ZN6mMutexD0Ev                  0x800CEE60      f
_ZN13dNandThread_cD0Ev          0x800CEEA0      f
_ZN13dNandThread_c13cmdExistCheckEv 0x800CEF10  f
_ZN13dNandThread_c10existCheckEv 0x800CEF80     f
_ZN13dNandThread_c13cmdSpaceCheckEv 0x800CF060  f
_ZN13dNandThread_c10spaceCheckEv 0x800CF0D0     f
hash_824E1B62_5D9393A3          0x800CF170      f
_ZN13dNandThread_c4saveEv       0x800CF200      f
_ZN13dNandThread_c12createBannerEv 0x800CF380   f
_ZN13dNandThread_c11writeBannerEP12NANDFileInfo 0x800CF500 f
_ZN13dNandThread_c7cmdLoadEv    0x800CF610      f
_ZN13dNandThread_c4loadEv       0x800CF680      f
_ZN13dNandThread_c8checkCRCEv   0x800CF910      f
_ZN13dNandThread_c13cmdDeleteFileEv 0x800CF9E0  f
_ZN13dNandThread_c10deleteFileEv 0x800CFA50     f
_ZN13dNandThread_c3runEv        0x800CFAC0      f
_ZN13dNandThread_c6createEPN3EGG4HeapE 0x800CFBA0 f
_ZN13dNandThread_c12setNandErrorEl 0x800CFC20   f
_ZN13dNandThread_c11getSaveDataEv 0x800CFCA0    f
_ZN3EGG6Thread6onExitEv         0x800CFCB0      f
_ZN3EGG6Thread7onEnterEv        0x800CFCC0      f
_ZN3EGG6Thread3runEv            0x800CFCD0      f
_ZN7dNext_cC1Ev                 0x800CFCE0      f
_ZN7dNext_c14createInstanceEPN3EGG4HeapE 0x800CFD00 f
_ZN7dNext_c14deleteInstanceEv   0x800CFD50      f
_ZN7dNext_c10initializeEv       0x800CFD70      f
_ZN7dNext_c21setChangeSceneNextDatEhhN8dFader_c12fader_type_eE 0x800CFD90 f
_ZN7dNext_c14setOwnNextDataEhh  0x800CFDF0      f
hash_C0636DBE_0226EFA2          0x800CFED0      f
_ZN7dNext_c13searchNextNumEhffPi 0x800CFF90     f
_ZN7dNext_c17simpleChangeSceneEhN8dFader_c12fader_type_eE 0x800D0100 f
_ZN7dNext_c17simpleChangeSceneEhhN8dFader_c12fader_type_eE 0x800D0120 f
_ZN7dNext_c11changeSceneEv      0x800D01F0      f
_ZN7dNext_c7executeEv           0x800D0360      f
_ZN14dObjBlockMng_cC1Ev         0x800D03C0      f
_ZN14dObjBlockMng_cD0Ev         0x800D03D0      f
_ZN14dObjBlockMng_c11allDoDeleteEv 0x800D0430   f
_ZN14dObjBlockMng_c14objblock_entryEP7mVec3_ctii 0x800D0490 f
_ZN14dObjBlockMng_c18set_objblock_checkEP7mVec3_ctii 0x800D0560 f
_ZN14dObjBlockMng_c21create_objblock_checkEP7mVec3_ct 0x800D0610 f
_ZN14dObjBlockMng_c22objblock_status_chengeEv 0x800D0680 f
__sinit_\d_objblock_mng_cpp     0x800D06E0      f
_ZN4dPad11beginPad_BREv         0x800D0700      f
_ZN4dPad9endPad_BREv            0x800D0990      f
__sinit_\d_pad_cpp              0x800D09A0      f
_ZN4dPad4ex_cC1Ev               0x800D0A00      f
_ZN4dPad4ex_cD0Ev               0x800D0A30      f
__arraydtor$52278               0x800D0A70      f
_ZN14PauseManager_cC1Ev         0x800D0A90      f
_ZN14PauseManager_cD0Ev         0x800D0AC0      f
_ZN14PauseManager_c18CourseHoinitializeEv 0x800D0B10 f
_ZN14PauseManager_c10initializeEv 0x800D0B30    f
_ZN14PauseManager_c7executeEv   0x800D0B60      f
_ZN14PauseManager_c14setPauseEnableEb 0x800D0C10 f
_ZN14PauseManager_c9isDisableEv 0x800D0C40      f
_ZN14PauseManager_c12ProcMainInitEv 0x800D0C50  f
_ZN14PauseManager_c15ProcMainPauseOnEv 0x800D0CE0 f
_ZN14PauseManager_c14SelectSoundSetEi 0x800D0CF0 f
_ZN14PauseManager_c8KeyChackEv  0x800D0DA0      f
_ZN14PauseManager_c13ProcMainPauseEv 0x800D0F40 f
_ZN14PauseManager_c20ProcMainPauseOffInitEv 0x800D0F80 f
_ZN14PauseManager_c16ProcMainPauseOffEv 0x800D1010 f
_ZN14PauseManager_c21CourseOutConfirmationEv 0x800D10D0 f
_ZN14PauseManager_c30ConfirmationSelectDecisionWaitEv 0x800D11F0 f
_ZN14PauseManager_c11OtasukeDispEv 0x800D1280   f
_ZN14PauseManager_c10PauseSetUpEi 0x800D12E0    f
_ZN14PauseManager_c8setPauseEv  0x800D1350      f
_ZN14PauseManager_c19onDispOtasukeWindowEv 0x800D15A0 f
_ZN14PauseManager_c14isOtasukePauseEv 0x800D15D0 f
_ZN5dPc_c3setEP8dActor_ch       0x800D15F0      f
_ZN5dPc_c5checkEi               0x800D1600      f
_ZN5dPc_c8chkTimerEv            0x800D1730      f
_ZN5dPc_c9_hitCheckEP11dPole_ctr_ci 0x800D17A0  f
_ZN5dPc_c13_hitCheckLineEP11dPole_ctr_ci 0x800D17E0 f
_ZN5dPc_c13_hitCheckRopeEP11dPole_ctr_ci 0x800D1AD0 f
_ZN5dPc_c15_hitCheckLadderEP11dPole_ctr_ci 0x800D1EB0 f
_ZN5dPc_c4moveEf                0x800D2000      f
_ZN5dPc_c9_moveLineEf           0x800D2070      f
_ZN5dPc_c9_moveRopeEf           0x800D2150      f
_ZN5dPc_c7releaseEv             0x800D22F0      f
_ZNK5dPc_c8getAngleEv           0x800D2360      f
_ZN11dPole_ctr_c4initEv         0x800D2480      f
_ZN11dPole_ctr_c5entryEv        0x800D24A0      f
_ZN11dPole_ctr_c7releaseEv      0x800D24F0      f
hash_31429D8D_36A212C5          0x800D2550      f
_ZN11dPoleRope_c10calcLengthEv  0x800D2600      f
hash_2AD5EC1D_596D77CE          0x800D2700      f
_ZN11dPoleRope_c4calcEv         0x800D2780      f
_ZNK11dPoleRope_c9revisePosEv   0x800D28A0      f
_ZN11dPyEffect_cC1Ev            0x800D2AE0      f
_ZN11dPyEffect_cD0Ev            0x800D2B40      f
hash_4EB72C06_D8875F8A          0x800D2BB0      f
_ZN11dPyEffect_c6updateEv       0x800D2C80      f
_ZN14dPyEffectMng_cC1Ev         0x800D2D10      f
_ZN14dPyEffectMng_cD0Ev         0x800D2D70      f
hash_957BFB67_0D45F02E          0x800D2DE0      f
_ZN14dPyEffectMng_c6updateEv    0x800D2E70      f
_ZN12dPlayerMdl_cC1Eh           0x800D2EC0      f
_ZN12dPlayerMdl_c14nodeCallback_cD0Ev 0x800D30A0 f
_ZN12dPlayerMdl_c17nodeCallbackPLH_cD0Ev 0x800D30E0 f
_ZN12dPlayerMdl_c9mdl_inf_cC1Ev 0x800D3120      f
_ZN12dPlayerMdl_c9mdl_inf_cD0Ev 0x800D3160      f
_ZN12dPlayerMdl_cD0Ev           0x800D31D0      f
_ZN12dPlayerMdl_c11createModelEv 0x800D3300     f
_ZN12dPlayerMdl_c22getAimMotionShareScaleEv 0x800D3360 f
_ZN12dPlayerMdl_c10initializeEv 0x800D3370      f
_ZN12dPlayerMdl_c18getPlayerObjectResEv 0x800D33E0 f
_ZN12dPlayerMdl_c17createPlayerModelEv 0x800D3470 f
_ZN12dPlayerMdl_c5_calcEv       0x800D37D0      f
_ZN12dPlayerMdl_c5calc2Ev       0x800D3920      f
_ZN12dPlayerMdl_c4playEv        0x800D3990      f
_ZN12dPlayerMdl_c4drawEv        0x800D3B20      f
_ZN12dPlayerMdl_c13setInitTexAnmEv 0x800D3BC0   f
_ZN12dPlayerMdl_c14_setHeadTexAnmERN4nw4r3g3d12ResAnmTexPatEN3m3d10playMode_eEff 0x800D3C10 f
_ZN12dPlayerMdl_c13setTexAnmTypeEN12dPyMdlBase_c12TexAnmType_eE 0x800D3CE0 f
_ZN12dPlayerMdl_c15resetTexAnmTypeEv 0x800D3D70 f
_ZN12dPlayerMdl_c13getHeadTexAnmEv 0x800D3DA0   f
_ZN12dPlayerMdl_c18setPersonalRideAnmEiPN4nw4r3g3d9ResAnmChrE 0x800D3DD0 f
_ZN12dPlayerMdl_c14setPersonalAnmEiPN4nw4r3g3d9ResAnmChrEi 0x800D3FE0 f
hash_425EA9EE_E5B8C34B          0x800D4150      f
_ZN12dPlayerMdl_c7copyAnmEv     0x800D41E0      f
_ZN12dPlayerMdl_c11_setFootAnmERN4nw4r3g3d9ResAnmChrEN3m3d10playMode_eEfff 0x800D4330 f
_ZN12dPlayerMdl_c11_setBodyAnmERN4nw4r3g3d9ResAnmChrEN3m3d10playMode_eEfff 0x800D44D0 f
_ZN12dPlayerMdl_c10setAnmBindEv 0x800D4610      f
hash_8675DA0C_553B45A9          0x800D4750      f
_ZN12dPlayerMdl_c13setPlayerModeEi 0x800D4760   f
_ZN12dPlayerMdl_c12setColorTypeEh 0x800D4870    f
_ZN12dPlayerMdl_c7setDarkEi     0x800D4880      f
_ZN12dPlayerMdl_c21getHeadPropelJointMtxEP6mMtx_c 0x800D4A70 f
_ZN12dPlayerMdl_c9onStarAnmEv   0x800D4AC0      f
_ZN12dPlayerMdl_c10offStarAnmEv 0x800D4B40      f
_ZN12dPlayerMdl_c18changeLightTextureEPN3m3d5mdl_cE11_GXTexMapID 0x800D4BC0 f
_ZN12dPlayerMdl_c10setStarAnmEPN3m3d5mdl_cEPN3m3d11anmMatClr_cE 0x800D4D00 f
_ZN12dPlayerMdl_c13removeStarAnmEPN3m3d5mdl_cE 0x800D4D60 f
_ZN12dPlayerMdl_c13calcBlendRateEv 0x800D4DC0   f
_ZN12dPlayerMdl_c15callbackTimingAEPN4nw4r3g3d12ChrAnmResultEN4nw4r3g3d7ResNodeE 0x800D4E70 f
_ZN12dPlayerMdl_c14nodeCallback_c7timingAEmPN4nw4r3g3d12ChrAnmResultEN4nw4r3g3d6ResMdlE 0x800D4F80 f
_ZN12dPlayerMdl_c14nodeCallback_c7timingBEmPN4nw4r3g3d13WorldMtxManipEN4nw4r3g3d6ResMdlE 0x800D4FE0 f
_ZN12dPlayerMdl_c17nodeCallbackPLH_c7timingAEmPN4nw4r3g3d12ChrAnmResultEN4nw4r3g3d6ResMdlE 0x800D5150 f
_ZN12dPlayerMdl_c17nodeCallbackPLH_c7timingBEmPN4nw4r3g3d13WorldMtxManipEN4nw4r3g3d6ResMdlE 0x800D5160 f
_ZN12dPlayerMdl_c13setStarEffectEv 0x800D5260   f
_ZN12dPyMdlBase_cC1Eh           0x800D5420      f
_ZN3m3d8anmChr_cC1Ev            0x800D5590      f
_ZN12dPyMdlBase_cD0Ev           0x800D55D0      f
_ZN12dPyMdlBase_c6createEhhi    0x800D5670      f
_ZN12dPyMdlBase_c11createModelEv 0x800D5720     f
_ZN12dPyMdlBase_c13setPlayerModeEi 0x800D5730   f
_ZN12dPyMdlBase_c10initializeEv 0x800D5740      f
_ZN12dPyMdlBase_c4playEv        0x800D5750      f
_ZN12dPyMdlBase_c5_calcEv       0x800D5760      f
_ZN12dPyMdlBase_c4calcER6mMtx_c 0x800D5770      f
_ZN12dPyMdlBase_c4calcE7mVec3_c7mAng3_c7mVec3_c 0x800D57E0 f
_ZN12dPyMdlBase_c11getJointMtxEP6mMtx_ci 0x800D5820 f
_ZN12dPyMdlBase_c10getBodyMdlEv 0x800D5870      f
_ZN12dPyMdlBase_c11getJointPosEP7mVec3_ci 0x800D5880 f
_ZN12dPyMdlBase_c10setBaseMtxER7mVec3_cR7mAng3_cR7mVec3_c 0x800D58E0 f
_ZN12dPyMdlBase_c4drawEv        0x800D5C70      f
_ZN12dPyMdlBase_c12setSoftLightERN3m3d6bmdl_cE 0x800D5C80 f
_ZN12dPyMdlBase_c12setColorTypeEh 0x800D5CC0    f
_ZN12dPyMdlBase_c11isBodyAnmOnEv 0x800D5CD0     f
_ZN12dPyMdlBase_c8setFrameEf    0x800D5D00      f
_ZN12dPyMdlBase_c12setBodyFrameEf 0x800D5D70    f
_ZN12dPyMdlBase_c7setRateEf     0x800D5D80      f
_ZN12dPyMdlBase_c11setBodyRateEf 0x800D5DF0     f
_ZN12dPyMdlBase_c14setJumpAnmRandEN12dPyMdlBase_c9RndType_eE 0x800D5E00 f
_ZN12dPyMdlBase_c6setAnmEifff   0x800D5EC0      f
_ZNK12dPyMdlBase_c13getAnmResFileEv 0x800D62D0  f
_ZN12dPyMdlBase_c7copyAnmEv     0x800D62E0      f
_ZN12dPyMdlBase_c10setBodyAnmEifff 0x800D62F0   f
_ZN12dPyMdlBase_c14releaseBodyAnmEf 0x800D63E0  f
_ZN12dPyMdlBase_c15setCarryBodyAnmEf 0x800D6550 f
_ZN12dPyMdlBase_c15setSlopeBodyAnmEf 0x800D6640 f
_ZN12dPyMdlBase_c11_setFootAnmERN4nw4r3g3d9ResAnmChrEN3m3d10playMode_eEfff 0x800D6690 f
_ZN12dPyMdlBase_c11_setBodyAnmERN4nw4r3g3d9ResAnmChrEN3m3d10playMode_eEfff 0x800D66A0 f
_ZN12dPyMdlBase_c10setAnmBindEv 0x800D66B0      f
_ZN12dPyMdlBase_c18setPersonalRideAnmEiPN4nw4r3g3d9ResAnmChrE 0x800D66C0 f
_ZN12dPyMdlBase_c10setRideAnmEifff 0x800D66D0   f
_ZN12dPyMdlBase_c14setPersonalAnmEiPN4nw4r3g3d9ResAnmChrEi 0x800D6920 f
hash_CEA36DC1_24DED584          0x800D6930      f
_ZN12dPyMdlBase_c13setTexAnmTypeEN12dPyMdlBase_c12TexAnmType_eE 0x800D6A20 f
_ZN12dPyMdlBase_c11copyLinkAnmEf 0x800D6A30     f
_ZN12dPyMdlBase_c10setLinkAnmEifff 0x800D6AA0   f
_ZN12dPyMdlBase_c15calcStoopOffsetEv 0x800D6B20 f
_ZN12dPyMdlBase_c16isFootStepTimingEv 0x800D6BA0 f
_ZN12dPyMdlBase_c13getLegLengthPEh 0x800D6CF0   f
_ZN12dPyMdlBase_c14setPropelScaleEf 0x800D6D00  f
_ZNK12dPyMdlBase_c18getPropelRollAngleEv 0x800D6D10 f
_ZN12dPyMdlBase_c18setPropelRollAngleEs 0x800D6D20 f
_ZNK12dPyMdlBase_c18getPropelRollSpeedEv 0x800D6D30 f
_ZN12dPyMdlBase_c18setPropelRollSpeedEs 0x800D6D40 f
_ZN12dPyMdlBase_c21getHeadPropelJointMtxEP6mMtx_c 0x800D6D50 f
_ZN12dPyMdlBase_c10offStarAnmEv 0x800D6D60      f
_ZN12dPyMdlBase_c9onStarAnmEv   0x800D6D70      f
_ZN12dPyMdlBase_c7setDarkEi     0x800D6D80      f
_ZN12dPyMdlBase_c5calc2Ev       0x800D6D90      f
_ZNK12dPyMdlBase_c15getFaceJointIdxEv 0x800D6DA0 f
_ZN11dPyMdlMng_cC1EN11dPyMdlMng_c11ModelType_eE 0x800D6DB0 f
_ZN11dPyMdlMng_c9constructEh    0x800D6E00      f
_ZN11dPyMdlMng_c6createEhhN11dPyMdlMng_c11SceneType_eE 0x800D6EE0 f
_ZN11dPyMdlMng_cD0Ev            0x800D6EF0      f
_ZN11dPyMdlMng_c4playEv         0x800D6F80      f
_ZN11dPyMdlMng_c4calcER6mMtx_c  0x800D6FA0      f
_ZN11dPyMdlMng_c4calcE7mVec3_c7mAng3_c7mVec3_c 0x800D7030 f
_ZN11dPyMdlMng_c5calc2Ev        0x800D70F0      f
_ZN11dPyMdlMng_c4drawEv         0x800D7110      f
__sinit_\d_player_model_manager_cpp 0x800D7140  f
_ZN18dPlayerOrchestra_cC1Ev     0x800D7190      f
_ZN18dPlayerOrchestra_c4initEi  0x800D71B0      f
_ZN18dPlayerOrchestra_c6updateEv 0x800D71D0     f
_ZN18dPlayerOrchestra_cD0Ev     0x800D7400      f
_ZN21dPosGoAndComeExeFrm_c11setMoveDataEjjjjj 0x800D7440 f
_ZN21dPosGoAndComeExeFrm_c17moveOffsetOverChkEv 0x800D7570 f
_ZN21dPosGoAndComeExeFrm_c13procChk_AccelERfRmmi 0x800D75B0 f
_ZN21dPosGoAndComeExeFrm_c12procChk_MoveERfRmmi 0x800D7690 f
_ZN21dPosGoAndComeExeFrm_c13procChk_DecelERfRmmi 0x800D7740 f
_ZN21dPosGoAndComeExeFrm_c12procChk_WaitERfRmmi 0x800D7810 f
_ZNK21dPosGoAndComeExeFrm_c11calcProcFrmEv 0x800D7870 f
_ZN21dPosGoAndComeExeFrm_c4initEjjjjj 0x800D78C0 f
_ZN21dPosGoAndComeExeFrm_c4moveEv 0x800D7910    f
_ZN21dPosGoAndComeExeFrm_c18changeStateByFrameEv 0x800D7970 f
_ZN21dPosGoAndComeExeFrm_c17changeStateToWaitEv 0x800D7A70 f
_ZN21dPosGoAndComeExeFrm_c18changeStateToAccelEv 0x800D7AA0 f
_ZN21dPosGoAndComeExeFrm_c21initializeState_AccelEv 0x800D7AD0 f
_ZN21dPosGoAndComeExeFrm_c19finalizeState_AccelEv 0x800D7AE0 f
_ZN21dPosGoAndComeExeFrm_c18executeState_AccelEv 0x800D7AF0 f
_ZN21dPosGoAndComeExeFrm_c20initializeState_MoveEv 0x800D7B80 f
_ZN21dPosGoAndComeExeFrm_c18finalizeState_MoveEv 0x800D7B90 f
_ZN21dPosGoAndComeExeFrm_c17executeState_MoveEv 0x800D7BA0 f
_ZN21dPosGoAndComeExeFrm_c21initializeState_DecelEv 0x800D7BF0 f
_ZN21dPosGoAndComeExeFrm_c19finalizeState_DecelEv 0x800D7C00 f
_ZN21dPosGoAndComeExeFrm_c18executeState_DecelEv 0x800D7C10 f
_ZN21dPosGoAndComeExeFrm_c20initializeState_WaitEv 0x800D7C70 f
_ZN21dPosGoAndComeExeFrm_c18finalizeState_WaitEv 0x800D7C90 f
_ZN21dPosGoAndComeExeFrm_c17executeState_WaitEv 0x800D7CA0 f
_ZNK11sFStateID_cI21dPosGoAndComeExeFrm_cE13finalizeStateER21dPosGoAndComeExeFrm_c 0x800D7CE0 f
_ZNK11sFStateID_cI21dPosGoAndComeExeFrm_cE12executeStateER21dPosGoAndComeExeFrm_c 0x800D7D10 f
_ZNK11sFStateID_cI21dPosGoAndComeExeFrm_cE15initializeStateER21dPosGoAndComeExeFrm_c 0x800D7D40 f
__sinit_\d_pos_go_and_come_exe_frm_cpp 0x800D7D70 f
_ZN11sFStateID_cI21dPosGoAndComeExeFrm_cED0Ev 0x800D80B0 f
_ZNK11sFStateID_cI21dPosGoAndComeExeFrm_cE10isSameNameEPKc 0x800D8110 f
_ZN11dPosShake_c4initEffffff    0x800D81A0      f
_ZN11dPosShake_c4moveEv         0x800D81C0      f
_ZN11dPosShake_c10startShakeEf  0x800D82C0      f
_ZN14dPropelParts_cC1Ev         0x800D82D0      f
_ZN14dPropelParts_c6createEP8dActor_c 0x800D8370 f
_ZN14dPropelParts_c6updateERK6mMtx_c 0x800D8390 f
_ZN14dPropelParts_c13setSpinEffectERK6mMtx_c 0x800D8510 f
_ZN14dPropelParts_c6isModeEN14dPropelParts_c6Mode_eE 0x800D85E0 f
_ZN14dPropelParts_c17finalizePropelFlyEs 0x800D8600 f
_ZN14dPropelParts_cD0Ev         0x800D8630      f
_ZN13dPSwManager_cC1Ev          0x800D86C0      f
_ZN13dPSwManager_cD0Ev          0x800D86E0      f
_ZN13dPSwManager_c10initializeEv 0x800D8730     f
_ZN13dPSwManager_c7executeEv    0x800D8760      f
_ZN13dPSwManager_c8ProcMainEv   0x800D8770      f
_ZN13dPSwManager_c8finalizeEv   0x800D8870      f
_ZN13dPSwManager_c11checkSwitchEN13dPSwManager_c8SwType_eE 0x800D88A0 f
_ZN13dPSwManager_c9checkMoveEv  0x800D88C0      f
_ZN13dPSwManager_c8getTimerEN13dPSwManager_c8SwType_eE 0x800D88E0 f
_ZN13dPSwManager_c8onSwitchEN13dPSwManager_c8SwType_eEi 0x800D88F0 f
_ZN13dPSwManager_c9offSwitchEN13dPSwManager_c8SwType_eE 0x800D8910 f
_ZN13dPSwManager_c8setTimerEN13dPSwManager_c8SwType_eEi 0x800D8930 f
_ZN8dQuake_c10startQuakeEaN8dQuake_c12TYPE_QUAKE_eEib 0x800D8940 f
_ZN8dQuake_c13startQuakeAllEN8dQuake_c12TYPE_QUAKE_eEib 0x800D8A50 f
_ZN8dQuake_c9stopQuakeEv        0x800D8B70      f
_ZN8dQuake_c10startShockEaN8dQuake_c12TYPE_SHOCK_eEiib 0x800D8BF0 f
_ZN8dQuake_c10shockMotorEaN8dQuake_c12TYPE_SHOCK_eEib 0x800D8CA0 f
_ZN8dQuake_c13startShockAllEN8dQuake_c12TYPE_SHOCK_eEiib 0x800D8D50 f
hash_10A0C5D7_6D461AA8          0x800D8E20      f
_ZN8dQuake_c11shockCameraEaN8dQuake_c12TYPE_SHOCK_eEi 0x800D8F30 f
_ZN8dQuake_c7executeEv          0x800D8F90      f
_ZN7dRail_c12getRailInfoPEh     0x800D91B0      f
_ZN7dRail_c3setEhP7mVec3_cP7mVec3_cPfth 0x800D9220 f
_ZN7dRail_c13calcNextPointEv    0x800D9380      f
_ZN7dRail_c13calcTargetPosEv    0x800D9460      f
_ZN7dRail_c9calcSpeedEv         0x800D9510      f
_ZN7dRail_c7executeEv           0x800D9650      f
_ZN7dRail_c11checkArriveEv      0x800D97C0      f
_ZN7dRail_cD0Ev                 0x800D9810      f
_ZN9dRandom_c17calcMachineRandomEv 0x800D9850   f
_ZN5dRc_cC1Ev                   0x800D9950      f
_ZN5dRc_cD0Ev                   0x800D9970      f
_ZN5dRc_c3setEP8dActor_ch       0x800D99B0      f
_ZN5dRc_c7setRideEP11dRide_ctr_c 0x800D99E0     f
_ZNK5dRc_c7getRideEv            0x800D99F0      f
_ZN5dRc_c10isRideFlagEt         0x800D9A10      f
_ZN5dRc_c5checkEmmm             0x800D9A30      f
_ZN5dRc_c6check2Emmm            0x800D9B20      f
_ZN5dRc_c7clrLinkEv             0x800D9BB0      f
_ZN5dRc_c7chkLinkEv             0x800D9BC0      f
_ZN5dRc_c16setRideCheckFuncEi   0x800D9C20      f
_ZN5dRc_c9_setAngleEst          0x800D9C50      f
_ZN5dRc_c16_rideCheckNormalEP11dRide_ctr_cmmm 0x800D9C70 f
_ZN5dRc_c19lineLayerActorCheckEP11dRide_ctr_c 0x800D9DF0 f
_ZN5dRc_c12fakeColCheckEt       0x800D9E30      f
_ZN5dRc_c14_rideCheckRollEP11dRide_ctr_cmmfm 0x800D9E60 f
_ZN5dRc_c15_rideCheckRoll2EP11dRide_ctr_cmmfm 0x800DA220 f
_ZN5dRc_c14getCircleYdiffEff    0x800DA740      f
_ZN5dRc_c16_rideCheckCircleEP11dRide_ctr_cmmfm 0x800DA7A0 f
hash_409205E4_119DD850          0x800DAB00      f
hash_C112661E_15E1E660          0x800DAC30      f
hash_DA4BE5B1_3D810A0F          0x800DAD30      f
_ZN11dRide_ctr_cC1Ev            0x800DAEA0      f
_ZN11dRide_ctr_cD0Ev            0x800DAEF0      f
_ZN11dRide_ctr_c4initEv         0x800DAF50      f
_ZN11dRide_ctr_c5entryEv        0x800DAF70      f
_ZN11dRide_ctr_c7releaseEv      0x800DAFC0      f
_ZN11dRide_ctr_c4calcEv         0x800DB020      f
_ZN11dRide_ctr_c9revisePosEv    0x800DB030      f
hash_2641D71D_33C81A87          0x800DB210      f
_ZN11dRideRoll_cC1Ev            0x800DB220      f
_ZN11dRideRoll_c3setEP8dActor_cfffffshP7mVec3_c 0x800DB270 f
_ZN11dRideRoll_c3setEP8dActor_c7mVec2_cfffshP7mVec3_c 0x800DB300 f
_ZN11dRideRoll_c9setLineLREff   0x800DB3A0      f
_ZN11dRideRoll_c9setLineLREfff  0x800DB3C0      f
_ZN11dRideRoll_c4calcEv         0x800DB3E0      f
_ZN13dRide2Point_cC1Ev          0x800DB540      f
_ZN13dRide2Point_c3setEP8dActor_c7mVec2_c7mVec2_c 0x800DB590 f
_ZN13dRide2Point_c3setEP8dActor_cffff 0x800DB620 f
_ZN13dRide2Point_c11setStartEndE7mVec2_c7mVec2_c 0x800DB680 f
_ZN13dRide2Point_c11setStartEndEffff 0x800DB6E0 f
_ZN13dRide2Point_c4calcEv       0x800DB710      f
_ZN13dRideCircle_cC1Ev          0x800DB7E0      f
_ZN13dRideCircle_c3setEP8dActor_cfffffsiihh 0x800DB830 f
_ZN13dRideCircle_c7setInfoEfffffi 0x800DB8C0    f
_ZN13dRideCircle_c4calcEv       0x800DB8F0      f
_ZN13dRideCircle_c9revisePosEv  0x800DBAC0      f
hash_3FA75997_8F32154F          0x800DBCE0      f
_ZN13dRide2Point_cD0Ev          0x800DBCF0      f
_ZN13dRideCircle_cD0Ev          0x800DBD50      f
hash_74ABB363_7E804CBB          0x800DBDB0      f
hash_E26C320D_6CCA26F5          0x800DBE00      f
hash_96597BC9_B306DD69          0x800DBE50      f
hash_B7A8E2BA_5B08D8B4          0x800DBE70      f
hash_06361970_DBE84686          0x800DBF20      f
hash_5A3C394A_50778924          0x800DBF70      f
_ZN13dRemoconMng_c5resetEv      0x800DBFD0      f
_Z19ClearDeviceCallbackl        0x800DC000      f
_ZN13dRemoconMng_cC1Ev          0x800DC040      f
_ZN13dRemoconMng_cD0Ev          0x800DC0D0      f
_ZN13dRemoconMng_c10dConnect_cD0Ev 0x800DC180   f
_ZN12sFStateMgr_cIN13dRemoconMng_c10dConnect_cE20sStateMethodUsr_FI_cED0Ev 0x800DC210 f
_ZN11sStateMgr_cIN13dRemoconMng_c10dConnect_cE20sStateMethodUsr_FI_c12sFStateFct_c13sStateIDChk_cED0Ev 0x800DC280 f
_ZN12sFStateFct_cIN13dRemoconMng_c10dConnect_cEED0Ev 0x800DC2E0 f
_ZN9sFState_cIN13dRemoconMng_c10dConnect_cEED0Ev 0x800DC320 f
_ZN13dRemoconMng_c10dConnect_c12dExtension_cD0Ev 0x800DC360 f
_ZN12sFStateMgr_cIN13dRemoconMng_c10dConnect_c12dExtension_cE20sStateMethodUsr_FI_cED0Ev 0x800DC3D0 f
_ZN11sStateMgr_cIN13dRemoconMng_c10dConnect_c12dExtension_cE20sStateMethodUsr_FI_c12sFStateFct_c13sStateIDChk_cED0Ev 0x800DC440 f
_ZN12sFStateFct_cIN13dRemoconMng_c10dConnect_c12dExtension_cEED0Ev 0x800DC4A0 f
_ZN9sFState_cIN13dRemoconMng_c10dConnect_c12dExtension_cEED0Ev 0x800DC4E0 f
_ZN13dRemoconMng_c6createEPN3EGG4HeapE 0x800DC520 f
_ZN13dRemoconMng_c7executeEv    0x800DC570      f
_ZNK11sStateMgr_cIN13dRemoconMng_c10dConnect_cE20sStateMethodUsr_FI_c12sFStateFct_c13sStateIDChk_cE10getStateIDEv 0x800DC650 f
_ZN13dRemoconMng_c10dConnect_cC1EN4mPad4CH_eE 0x800DC660 f
_ZN13dRemoconMng_c10dConnect_c24initializeState_ShutdownEv 0x800DC7B0 f
_ZN13dRemoconMng_c10dConnect_c22finalizeState_ShutdownEv 0x800DC7D0 f
_ZN13dRemoconMng_c10dConnect_c21executeState_ShutdownEv 0x800DC7E0 f
_ZNK3EGG7TBufferIN3EGG12eCoreDevTypeEE12errRangeOverEv 0x800DC8F0 f
_ZN11sStateMgr_cIN13dRemoconMng_c10dConnect_cE20sStateMethodUsr_FI_c12sFStateFct_c13sStateIDChk_cE11changeStateERK12sStateIDIf_c 0x800DC900 f
_ZN13dRemoconMng_c10dConnect_c21initializeState_SetupEv 0x800DC910 f
_ZN13dRemoconMng_c10dConnect_c19finalizeState_SetupEv 0x800DC990 f
_ZN13dRemoconMng_c10dConnect_c18executeState_SetupEv 0x800DC9D0 f
_ZN13dRemoconMng_c10dConnect_c7executeEv 0x800DCA60 f
_ZN11sStateMgr_cIN13dRemoconMng_c10dConnect_cE20sStateMethodUsr_FI_c12sFStateFct_c13sStateIDChk_cE12executeStateEv 0x800DCA70 f
_ZN13dRemoconMng_c10dConnect_c14onRumbleEnableEv 0x800DCA80 f
_ZN13dRemoconMng_c10dConnect_c15offRumbleEnableEv 0x800DCA90 f
_ZN13dRemoconMng_c10dConnect_c12dExtension_c20initializeState_WaitEv 0x800DCAF0 f
_ZN13dRemoconMng_c10dConnect_c12dExtension_c18finalizeState_WaitEv 0x800DCB00 f
_ZN13dRemoconMng_c10dConnect_c12dExtension_c17executeState_WaitEv 0x800DCB10 f
_ZN11sStateMgr_cIN13dRemoconMng_c10dConnect_c12dExtension_cE20sStateMethodUsr_FI_c12sFStateFct_c13sStateIDChk_cE11changeStateERK12sStateIDIf_c 0x800DCC30 f
_ZN13dRemoconMng_c10dConnect_c12dExtension_c20initializeState_NoneEv 0x800DCC40 f
_ZN13dRemoconMng_c10dConnect_c12dExtension_c18finalizeState_NoneEv 0x800DCC50 f
_ZN13dRemoconMng_c10dConnect_c12dExtension_c17executeState_NoneEv 0x800DCC60 f
_ZN13dRemoconMng_c10dConnect_c12dExtension_c25initializeState_FreestyleEv 0x800DCD70 f
_ZN13dRemoconMng_c10dConnect_c12dExtension_c23finalizeState_FreestyleEv 0x800DCD80 f
_ZN13dRemoconMng_c10dConnect_c12dExtension_c22executeState_FreestyleEv 0x800DCD90 f
_ZN13dRemoconMng_c10dConnect_c12dExtension_c21initializeState_OtherEv 0x800DCEA0 f
_ZN13dRemoconMng_c10dConnect_c12dExtension_c19finalizeState_OtherEv 0x800DCEB0 f
_ZN13dRemoconMng_c10dConnect_c12dExtension_c18executeState_OtherEv 0x800DCEC0 f
_ZN13dRemoconMng_c10dConnect_c12dExtension_c5setupEv 0x800DCFC0 f
_ZN13dRemoconMng_c10dConnect_c12dExtension_c8shutdownEv 0x800DCFD0 f
_ZN13dRemoconMng_c10dConnect_c12dExtension_c7executeEv 0x800DCFF0 f
_ZN11sStateMgr_cIN13dRemoconMng_c10dConnect_c12dExtension_cE20sStateMethodUsr_FI_c12sFStateFct_c13sStateIDChk_cE12executeStateEv 0x800DD000 f
_ZN11sStateMgr_cIN13dRemoconMng_c10dConnect_cE20sStateMethodUsr_FI_c12sFStateFct_c13sStateIDChk_cE15initializeStateEv 0x800DD010 f
_ZN11sStateMgr_cIN13dRemoconMng_c10dConnect_cE20sStateMethodUsr_FI_c12sFStateFct_c13sStateIDChk_cE13finalizeStateEv 0x800DD020 f
_ZNK11sStateMgr_cIN13dRemoconMng_c10dConnect_cE20sStateMethodUsr_FI_c12sFStateFct_c13sStateIDChk_cE13getOldStateIDEv 0x800DD030 f
_ZN11sStateMgr_cIN13dRemoconMng_c10dConnect_c12dExtension_cE20sStateMethodUsr_FI_c12sFStateFct_c13sStateIDChk_cE15initializeStateEv 0x800DD040 f
_ZN11sStateMgr_cIN13dRemoconMng_c10dConnect_c12dExtension_cE20sStateMethodUsr_FI_c12sFStateFct_c13sStateIDChk_cE13finalizeStateEv 0x800DD050 f
_ZNK11sStateMgr_cIN13dRemoconMng_c10dConnect_c12dExtension_cE20sStateMethodUsr_FI_c12sFStateFct_c13sStateIDChk_cE10getStateIDEv 0x800DD060 f
_ZNK11sStateMgr_cIN13dRemoconMng_c10dConnect_c12dExtension_cE20sStateMethodUsr_FI_c12sFStateFct_c13sStateIDChk_cE13getOldStateIDEv 0x800DD070 f
_ZN12sFStateFct_cIN13dRemoconMng_c10dConnect_cEE5buildERK12sStateIDIf_c 0x800DD080 f
_ZN12sFStateFct_cIN13dRemoconMng_c10dConnect_cEE7disposeERP10sStateIf_c 0x800DD0E0 f
_ZN12sFStateFct_cIN13dRemoconMng_c10dConnect_c12dExtension_cEE5buildERK12sStateIDIf_c 0x800DD0F0 f
_ZN12sFStateFct_cIN13dRemoconMng_c10dConnect_c12dExtension_cEE7disposeERP10sStateIf_c 0x800DD150 f
_ZN9sFState_cIN13dRemoconMng_c10dConnect_cEE10initializeEv 0x800DD160 f
_ZN9sFState_cIN13dRemoconMng_c10dConnect_cEE7executeEv 0x800DD180 f
_ZN9sFState_cIN13dRemoconMng_c10dConnect_cEE8finalizeEv 0x800DD1A0 f
_ZN9sFState_cIN13dRemoconMng_c10dConnect_c12dExtension_cEE10initializeEv 0x800DD1C0 f
_ZN9sFState_cIN13dRemoconMng_c10dConnect_c12dExtension_cEE7executeEv 0x800DD1E0 f
_ZN9sFState_cIN13dRemoconMng_c10dConnect_c12dExtension_cEE8finalizeEv 0x800DD200 f
_ZN11sStateMgr_cIN13dRemoconMng_c10dConnect_cE20sStateMethodUsr_FI_c12sFStateFct_c13sStateIDChk_cE12refreshStateEv 0x800DD220 f
_ZNK11sStateMgr_cIN13dRemoconMng_c10dConnect_cE20sStateMethodUsr_FI_c12sFStateFct_c13sStateIDChk_cE8getStateEv 0x800DD230 f
_ZNK11sStateMgr_cIN13dRemoconMng_c10dConnect_cE20sStateMethodUsr_FI_c12sFStateFct_c13sStateIDChk_cE13getNewStateIDEv 0x800DD240 f
_ZN11sStateMgr_cIN13dRemoconMng_c10dConnect_c12dExtension_cE20sStateMethodUsr_FI_c12sFStateFct_c13sStateIDChk_cE12refreshStateEv 0x800DD250 f
_ZNK11sStateMgr_cIN13dRemoconMng_c10dConnect_c12dExtension_cE20sStateMethodUsr_FI_c12sFStateFct_c13sStateIDChk_cE8getStateEv 0x800DD260 f
_ZNK11sStateMgr_cIN13dRemoconMng_c10dConnect_c12dExtension_cE20sStateMethodUsr_FI_c12sFStateFct_c13sStateIDChk_cE13getNewStateIDEv 0x800DD270 f
_ZNK11sFStateID_cIN13dRemoconMng_c10dConnect_c12dExtension_cEE13finalizeStateERN13dRemoconMng_c10dConnect_c12dExtension_cE 0x800DD280 f
_ZNK11sFStateID_cIN13dRemoconMng_c10dConnect_c12dExtension_cEE12executeStateERN13dRemoconMng_c10dConnect_c12dExtension_cE 0x800DD2B0 f
_ZNK11sFStateID_cIN13dRemoconMng_c10dConnect_c12dExtension_cEE15initializeStateERN13dRemoconMng_c10dConnect_c12dExtension_cE 0x800DD2E0 f
_ZNK11sFStateID_cIN13dRemoconMng_c10dConnect_cEE13finalizeStateERN13dRemoconMng_c10dConnect_cE 0x800DD310 f
_ZNK11sFStateID_cIN13dRemoconMng_c10dConnect_cEE12executeStateERN13dRemoconMng_c10dConnect_cE 0x800DD340 f
_ZNK11sFStateID_cIN13dRemoconMng_c10dConnect_cEE15initializeStateERN13dRemoconMng_c10dConnect_cE 0x800DD370 f
__sinit_\d_remocon_mng_cpp      0x800DD3A0      f
_ZN11sFStateID_cIN13dRemoconMng_c10dConnect_cEED0Ev 0x800DD860 f
_ZN11sFStateID_cIN13dRemoconMng_c10dConnect_c12dExtension_cEED0Ev 0x800DD8C0 f
_ZNK11sFStateID_cIN13dRemoconMng_c10dConnect_cEE10isSameNameEPKc 0x800DD920 f
_ZNK11sFStateID_cIN13dRemoconMng_c10dConnect_c12dExtension_cEE10isSameNameEPKc 0x800DD9B0 f
_ZN13dReplayPlay_cC1EN4mPad4CH_eE 0x800DDA40    f
_ZN9sFState_cI13dReplayPlay_cED0Ev 0x800DDB60   f
_ZN12sFStateFct_cI13dReplayPlay_cED0Ev 0x800DDBA0 f
_ZN11sStateMgr_cI13dReplayPlay_c20sStateMethodUsr_FI_c12sFStateFct_c13sStateIDChk_cED0Ev 0x800DDBE0 f
_ZN12sFStateMgr_cI13dReplayPlay_c20sStateMethodUsr_FI_cED0Ev 0x800DDC40 f
_ZN13dReplayPlay_cD0Ev          0x800DDCB0      f
_ZN13dReplayPlay_c7executeEv    0x800DDD40      f
_ZNK11sStateMgr_cI13dReplayPlay_c20sStateMethodUsr_FI_c12sFStateFct_c13sStateIDChk_cE10getStateIDEv 0x800DDF60 f
_ZN11sStateMgr_cI13dReplayPlay_c20sStateMethodUsr_FI_c12sFStateFct_c13sStateIDChk_cE11changeStateERK12sStateIDIf_c 0x800DDF70 f
_ZN11sStateMgr_cI13dReplayPlay_c20sStateMethodUsr_FI_c12sFStateFct_c13sStateIDChk_cE12executeStateEv 0x800DDF80 f
_ZN13dReplayPlay_c11loadPlayResEPN3EGG4HeapEPKc 0x800DDF90 f
_ZN13dReplayPlay_c8initPlayEv   0x800DDFF0      f
_ZN13dReplayPlay_c9startPlayEt  0x800DE070      f
_ZN13dReplayPlay_c25initializeState_StartWaitEv 0x800DE090 f
_ZN13dReplayPlay_c23finalizeState_StartWaitEv 0x800DE0A0 f
_ZN13dReplayPlay_c22executeState_StartWaitEv 0x800DE0B0 f
_ZN13dReplayPlay_c20initializeState_WaitEv 0x800DE0C0 f
_ZN13dReplayPlay_c18finalizeState_WaitEv 0x800DE0D0 f
_ZN13dReplayPlay_c17executeState_WaitEv 0x800DE0E0 f
_ZN13dReplayPlay_c20initializeState_PlayEv 0x800DE0F0 f
_ZN13dReplayPlay_c18finalizeState_PlayEv 0x800DE100 f
_ZN13dReplayPlay_c17executeState_PlayEv 0x800DE110 f
_ZN13dReplayPlay_c23initializeState_PlayEndEv 0x800DE300 f
_ZN13dReplayPlay_c21finalizeState_PlayEndEv 0x800DE360 f
_ZN13dReplayPlay_c20executeState_PlayEndEv 0x800DE370 f
_ZN13dReplayPlay_c10loadHeaderEv 0x800DE380     f
_ZN11sStateMgr_cI13dReplayPlay_c20sStateMethodUsr_FI_c12sFStateFct_c13sStateIDChk_cE15initializeStateEv 0x800DE440 f
_ZN11sStateMgr_cI13dReplayPlay_c20sStateMethodUsr_FI_c12sFStateFct_c13sStateIDChk_cE13finalizeStateEv 0x800DE450 f
_ZNK11sStateMgr_cI13dReplayPlay_c20sStateMethodUsr_FI_c12sFStateFct_c13sStateIDChk_cE13getOldStateIDEv 0x800DE460 f
_ZN12sFStateFct_cI13dReplayPlay_cE5buildERK12sStateIDIf_c 0x800DE470 f
_ZN12sFStateFct_cI13dReplayPlay_cE7disposeERP10sStateIf_c 0x800DE4D0 f
_ZN9sFState_cI13dReplayPlay_cE10initializeEv 0x800DE4E0 f
_ZN9sFState_cI13dReplayPlay_cE7executeEv 0x800DE500 f
_ZN9sFState_cI13dReplayPlay_cE8finalizeEv 0x800DE520 f
_ZN11sStateMgr_cI13dReplayPlay_c20sStateMethodUsr_FI_c12sFStateFct_c13sStateIDChk_cE12refreshStateEv 0x800DE540 f
_ZNK11sStateMgr_cI13dReplayPlay_c20sStateMethodUsr_FI_c12sFStateFct_c13sStateIDChk_cE8getStateEv 0x800DE550 f
_ZNK11sStateMgr_cI13dReplayPlay_c20sStateMethodUsr_FI_c12sFStateFct_c13sStateIDChk_cE13getNewStateIDEv 0x800DE560 f
_ZNK11sFStateID_cI13dReplayPlay_cE13finalizeStateER13dReplayPlay_c 0x800DE570 f
_ZNK11sFStateID_cI13dReplayPlay_cE12executeStateER13dReplayPlay_c 0x800DE5A0 f
_ZNK11sFStateID_cI13dReplayPlay_cE15initializeStateER13dReplayPlay_c 0x800DE5D0 f
__sinit_\d_replay_play_cpp      0x800DE600      f
_ZN11sFStateID_cI13dReplayPlay_cED0Ev 0x800DE940 f
_ZNK11sFStateID_cI13dReplayPlay_cE10isSameNameEPKc 0x800DE9A0 f
_ZN6dRes_c6info_cC1Ev           0x800DEA30      f
_ZN6dRes_c6info_cD0Ev           0x800DEA60      f
_ZN6dRes_c6info_c7cleanupEv     0x800DEAE0      f
_ZN6dRes_c6info_c3setEPKcPKchPN3EGG4HeapE 0x800DEBC0 f
_ZN6dRes_c6info_c6setResEPN6dRes_c10callback_cE 0x800DEC90 f
hash_F7E0AFAA_983B7A58          0x800DEDD0      f
hash_E359F4D4_808B9132          0x800DEE90      f
_ZN6dRes_c6info_c7loadResEPN6dRes_c10callback_cE 0x800DEEA0 f
_ZN6dRes_cC1Ev                  0x800DF040      f
_ZN6dRes_cD0Ev                  0x800DF060      f
_ZN6dRes_c4initEtPN6dRes_c10callback_cE 0x800DF0E0 f
_ZN6dRes_c6setResEPKcPKchPN3EGG4HeapE 0x800DF170 f
_ZN6dRes_c9deleteResEPKc        0x800DF220      f
_ZNK6dRes_c6getResEPKcPKc       0x800DF270      f
_ZNK6dRes_c6getResEPKcPKcPm     0x800DF2D0      f
_ZNK6dRes_c6getResEPKcPKcPmPi   0x800DF360      f
_ZN6dRes_c7copyResEPKvPvi       0x800DF490      f
_ZN6dRes_c7copyResEPKvPvii      0x800DF4A0      f
_ZNK6dRes_c14getResSilentlyEPKcPKc 0x800DF4B0   f
_ZNK6dRes_c14getResSilentlyEPKcPKcPm 0x800DF530 f
_ZN6dRes_c10syncAllResEv        0x800DF5D0      f
_ZNK6dRes_c10getResInfoEPKc     0x800DF660      f
_ZN6dRes_c10newResInfoEv        0x800DF6F0      f
_ZNK6dRes_c16getResInfoLoadedEPKc 0x800DF730    f
_ZN9dResMng_cC1Ev               0x800DF770      f
_ZN9dResMng_cD0Ev               0x800DF7D0      f
_ZN9dResMng_c13resCallback_c4initEPKc 0x800DF840 f
_ZN9dResMng_c13resCallback_c7executeEPvmPKc 0x800DF850 f
_ZN9dResMng_c6setResEPKcPPKciPN3EGG4HeapE 0x800DF8C0 f
_ZN9dResMng_c6setResEPKcPKcPN3EGG4HeapE 0x800DF930 f
_ZN11dRotShake_c4initEssssssss  0x800DF950      f
_ZN11dRotShake_c4moveEv         0x800DF980      f
hash_DA5DE8AA_3618A86A          0x800DFA80      f
hash_1D21C373_B6E92DEE          0x800DFB30      f
hash_F85C8BB1_C338D517          0x800DFBF0      f
hash_1799DCA8_DF5F1E19          0x800DFC60      f
hash_54281DB5_63D7AED8          0x800DFCD0      f
hash_A9B5A877_77EC84AD          0x800DFD60      f
hash_C475995E_F00E5AED          0x800DFDD0      f
hash_F5229205_9D73221A          0x800DFE10      f
hash_52516C2F_DD093186          0x800DFEC0      f
hash_39DE9830_002349EE          0x800DFF50      f
hash_D7254809_D7F1FAEA          0x800E0020      f
hash_2A841966_354A6AD3          0x800E0160      f
_ZN10dSaveMng_c6createEPN3EGG4HeapE 0x800E0270  f
_ZN10dSaveMng_cC1Ev             0x800E02C0      f
_ZN11dMj2dGame_cD0Ev            0x800E0380      f
_ZN10dSaveMng_c7refreshEv       0x800E03C0      f
_ZN10dSaveMng_c11getSaveGameEa  0x800E0470      f
_ZN10dSaveMng_c11getTempGameEa  0x800E04A0      f
_ZN10dSaveMng_c12saveGameCopyEaa 0x800E04D0     f
_ZN10dSaveMng_c9isNowSaveEv     0x800E0520      f
_ZN10dSaveMng_c10isNandBusyEv   0x800E0540      f
_ZN10dSaveMng_c13calcHeaderCRCEv 0x800E0560     f
_ZN10dSaveMng_c7calcCRCEv       0x800E05A0      f
_ZN10dSaveMng_c13startNandSaveEv 0x800E0630     f
_ZN10dSaveMng_c22startMultiModeNandSaveEv 0x800E0D10 f
_ZN10dSaveMng_c18startQuickNandSaveEv 0x800E0E10 f
_ZN10dSaveMng_c24startDeleteQuickNandSaveEv 0x800E12C0 f
_ZN10dSaveMng_c13startNandLoadEv 0x800E1770     f
_ZN10dSaveMng_c11prepareSaveEv  0x800E1780      f
_ZN10dSaveMng_c12initLoadGameEa 0x800E1930      f
_ZN10dSaveMng_c17loadQuickSaveDataEh 0x800E1A30 f
_ZN8dScene_cC1Ev                0x800E1AA0      f
_ZN8dScene_cD0Ev                0x800E1B10      f
_ZN8dScene_c9preCreateEv        0x800E1B90      f
_ZN8dScene_c10postCreateEN7fBase_c12MAIN_STATE_eE 0x800E1BD0 f
_ZN8dScene_c9preDeleteEv        0x800E1C40      f
_ZN8dScene_c10postDeleteEN7fBase_c12MAIN_STATE_eE 0x800E1C70 f
_ZN8dScene_c10preExecuteEv      0x800E1CD0      f
_ZN8dScene_c11postExecuteEN7fBase_c12MAIN_STATE_eE 0x800E1E10 f
_ZN8dScene_c7preDrawEv          0x800E1E60      f
_ZN8dScene_c8postDrawEN7fBase_c12MAIN_STATE_eE 0x800E1E90 f
_ZN8dScene_c13setStartSceneEv   0x800E1EA0      f
_ZN8dScene_c13setResetSceneEv   0x800E1EC0      f
_ZN8dScene_c15createNextSceneEv 0x800E1ED0      f
_ZN8dScene_c12setNextSceneEtmb  0x800E1F50      f
_ZN8dScene_c14setFadeInFrameEt  0x800E2040      f
_ZN8dScene_c15setFadeOutFrameEt 0x800E2050      f
_ZN8dScene_c17setFadeInOutFrameEt 0x800E2060    f
_ZN11dScoreMng_c8ScoreSetER7mVec3_cmii 0x800E2070 f
_ZN11dScoreMng_c8ScoreSetEP8dActor_cmiff 0x800E2190 f
_ZN11dScoreMng_c9ScoreSet2ER7mVec3_cmi 0x800E2310 f
_ZN11dScoreMng_c9ScoreSet2EP8dActor_cmiff 0x800E23E0 f
_ZN11dScoreMng_c18UnKnownScoreCreateER7mVec3_cm 0x800E2430 f
_ZN11dScoreMng_c15UnKnownScoreSetEP8dActor_cmff 0x800E24B0 f
_ZN11dScoreMng_c16MiniGameScoreSetER7mVec3_cmi 0x800E2500 f
hash_35EF3058_E7A29805          0x800E25A0      f
_ZN7dAcPy_c14getHeadTopPosPEv   0x800E2640      f
_ZN7dScreen13GetScreenSizeEv    0x800E2670      f
_ZN7dScreen14GetScreenScaleEffff 0x800E27E0     f
_ZN7dScreen13GetScreenPosYEv    0x800E28B0      f
_ZN7dScreen20GetScreenCaptureSizeEv 0x800E2990  f
__sinit_\d_screen_cpp           0x800E2B40      f
_ZN9dSpline_cC1Eiii             0x800E2BC0      f
_ZN9dSpline_cD0Ev               0x800E2D20      f
_ZN9dSpline_c4calcEv            0x800E2D60      f
_ZN9dSpline_c6setPosEiR7mVec3_c 0x800E2DF0      f
_ZNK9dSpline_c9getVtxNumEv      0x800E2E20      f
_ZN9dSpline_c9getVtxPosEi       0x800E2E50      f
hash_48BB2E1E_575E6B4C          0x800E2E60      f
hash_814BC81D_C60133EF          0x800E2E80      f
hash_DD58431C_A5A63B0E          0x800E2EA0      f
hash_96009E75_2524ECDD          0x800E2EB0      f
hash_DCF0A2A4_C4293603          0x800E2ED0      f
hash_21012AC5_66958982          0x800E3000      f
hash_F77475C4_140327F2          0x800E3130      f
hash_18E0B1A4_3F87A4F2          0x800E3250      f
_ZN12SquareRail_cC1Ev           0x800E3370      f
_ZN12SquareRail_c4initEffff     0x800E33E0      f
_ZN12SquareRail_c7setKeyTEfffff 0x800E3490      f
_ZNK12SquareRail_c6getPosEf     0x800E34B0      f
_ZNK12SquareRail_c6getPosEff    0x800E3640      f
hash_E6437BF8_AAE4A88C          0x800E36B0      f
_ZN12SquareRail_cD0Ev           0x800E36F0      f
_ZN6dStage8getHeadPEh           0x800E3730      f
_ZN6dStage4linkEv               0x800E3750      f
_ZN6dStage6unlinkEv             0x800E3800      f
_ZN6dStage8doDeleteEv           0x800E38B0      f
_ZN6dStage12setNextStageEhm     0x800E38C0      f
__sinit_\d_stage_cpp            0x800E38D0      f
_ZN13dStageTimer_cC1Es          0x800E38E0      f
_ZN13dStageTimer_cD0Ev          0x800E3910      f
_ZN13dStageTimer_c14createInstanceEPN3EGG4HeapEs 0x800E3960 f
_ZN13dStageTimer_c14deleteInstanceEv 0x800E39D0 f
_ZN13dStageTimer_c8setTimerEs   0x800E3A00      f
_ZN13dStageTimer_c7executeEv    0x800E3A20      f
_ZN13dStageTimer_c15startTimeUPDispEv 0x800E3B50 f
_ZN12dStartInfo_cC1Ev           0x800E3BA0      f
_ZN16dSwitchFlagMng_c4initEv    0x800E3BD0      f
_ZN16dSwitchFlagMng_c5init2Eh   0x800E3C90      f
_ZN16dSwitchFlagMng_c9clearTimeEv 0x800E4010    f
_ZN16dSwitchFlagMng_c7executeEv 0x800E4100      f
hash_B3DA6D3A_2E4C70B6          0x800E42B0      f
_ZN16dSwitchFlagMng_c13switchBittoNoEy 0x800E4560 f
_ZN16dSwitchFlagMng_c19WaterSwichYposEntryEiffay 0x800E4640 f
_ZN16dSwitchFlagMng_c17getWaterSwichYposEi 0x800E4680 f
_ZN16dSwitchFlagMng_c23getWaterSwichYposOffsetEi 0x800E4690 f
_ZN16dSwitchFlagMng_c17getWaterSwichModeEi 0x800E46A0 f
_ZN16dSwitchFlagMng_c20getWaterSwichFlagBitEi 0x800E46B0 f
_ZN16dSwitchFlagMng_c18getWaterSwichStartEi 0x800E46D0 f
_ZN7dSystem23createEffectManagerHeapEPN3EGG4HeapEPN3EGG4HeapE 0x800E46E0 f
_ZN6dSys_c11beginRenderEv       0x800E4750      f
_ZN6dSys_c9endRenderEv          0x800E4770      f
_ZN6dSys_c10beginFrameEv        0x800E47D0      f
_ZN3EGG17ConfigurationData12onBeginFrameEv 0x800E4820 f
_ZN6dSys_c8endFrameEv           0x800E4830      f
_ZN3EGG17ConfigurationData10onEndFrameEv 0x800E4880 f
_ZN6dSys_c8setBlackEb           0x800E4890      f
_ZN6dSys_c9calcAudioEv          0x800E4910      f
_ZN6dSys_c12setFrameRateEh      0x800E4920      f
_ZN6dSys_c13setClearColorEN4nw4r2ut5ColorE 0x800E4940 f
_ZN6dSys_c13getClearColorEv     0x800E4990      f
_ZN6dSys_c6createEv             0x800E49C0      f
_ZN3EGG14CoreController11setPosParamEff 0x800E4C40 f
_ZN3EGG7TSystemIN3EGG5VideoEN3EGG12AsyncDisplayEN3EGG10XfbManagerEN3EGG14SimpleAudioMgrEN3EGG12SceneManagerEN3EGG12ProcessMeterEE13Configuration10initializeEv 0x800E4C50 f
_ZN22@unnamed@d_system_cpp@19myDylinkInitPhase_0EPv 0x800E4EC0 f
_ZN22@unnamed@d_system_cpp@19myDylinkInitPhase_1EPv 0x800E4EF0 f
_ZN22@unnamed@d_system_cpp@19myDylinkInitPhase_4EPv 0x800E4F20 f
_ZN6dSys_c7executeEv            0x800E4F50      f
_ZN7dSystem25createEffectManagerPhase1EPv 0x800E50C0 f
_ZN7dSystem25createEffectManagerPhase2EPv 0x800E5170 f
_ZN7dSystem22createFontManagerPhaseEPv 0x800E51E0 f
_ZN7dSystem25createMessageManagerPhaseEPv 0x800E5220 f
_ZN7dSystem8fixArenaEv          0x800E52B0      f
_ZN7dSystem11fixHeapsSubEPN3EGG7ExpHeapEi 0x800E5310 f
_ZN7dSystem8fixHeapsEv          0x800E53E0      f
__sinit_\d_system_cpp           0x800E5440      f
_ZN3EGG17ConfigurationData14initRenderModeEv 0x800E5480 f
_ZN3EGG7TSystemIN3EGG5VideoEN3EGG12AsyncDisplayEN3EGG10XfbManagerEN3EGG14SimpleAudioMgrEN3EGG12SceneManagerEN3EGG12ProcessMeterEE13Configuration8getVideoEv 0x800E5490 f
_ZN3EGG7TSystemIN3EGG5VideoEN3EGG12AsyncDisplayEN3EGG10XfbManagerEN3EGG14SimpleAudioMgrEN3EGG12SceneManagerEN3EGG12ProcessMeterEE13Configuration13getSystemHeapEv 0x800E54A0 f
_ZN3EGG7TSystemIN3EGG5VideoEN3EGG12AsyncDisplayEN3EGG10XfbManagerEN3EGG14SimpleAudioMgrEN3EGG12SceneManagerEN3EGG12ProcessMeterEE13Configuration10getDisplayEv 0x800E54B0 f
_ZN3EGG7TSystemIN3EGG5VideoEN3EGG12AsyncDisplayEN3EGG10XfbManagerEN3EGG14SimpleAudioMgrEN3EGG12SceneManagerEN3EGG12ProcessMeterEE13Configuration9getXfbMgrEv 0x800E54C0 f
_ZN3EGG7TSystemIN3EGG5VideoEN3EGG12AsyncDisplayEN3EGG10XfbManagerEN3EGG14SimpleAudioMgrEN3EGG12SceneManagerEN3EGG12ProcessMeterEE13Configuration11getPerfViewEv 0x800E54D0 f
_ZN3EGG7TSystemIN3EGG5VideoEN3EGG12AsyncDisplayEN3EGG10XfbManagerEN3EGG14SimpleAudioMgrEN3EGG12SceneManagerEN3EGG12ProcessMeterEE13Configuration11getSceneMgrEv 0x800E54F0 f
_ZN3EGG7TSystemIN3EGG5VideoEN3EGG12AsyncDisplayEN3EGG10XfbManagerEN3EGG14SimpleAudioMgrEN3EGG12SceneManagerEN3EGG12ProcessMeterEE13Configuration11getAudioMgrEv 0x800E5500 f
_ZN14TagProcessor_cC1Ev         0x800E5510      f
_ZN14TagProcessor_cD0Ev         0x800E5590      f
_ZN14TagProcessor_c13SetupGXCommonEv 0x800E55F0 f
_ZN14TagProcessor_c13SetupGXTevSetEv 0x800E5700 f
_ZN14TagProcessor_c17SetupVertexFormatEv 0x800E58A0 f
_ZN14TagProcessor_c10FontChangeEPN4nw4r2ut12PrintContextIwEE 0x800E5930 f
_ZN14TagProcessor_c8ScaleSetEPN4nw4r2ut12PrintContextIwEE 0x800E5B80 f
_ZN14TagProcessor_c7RuBySetEPN4nw4r2ut12PrintContextIwEE 0x800E5BE0 f
_ZN14TagProcessor_c15setScissorStartEi 0x800E5EE0 f
_ZN14TagProcessor_c13setScissorEndEi 0x800E6140 f
_ZN14TagProcessor_c17setScissorCursorXEPN4nw4r2ut12PrintContextIwEE 0x800E61A0 f
_ZN14TagProcessor_c10setScissorEPN4nw4r2ut12PrintContextIwEE 0x800E63A0 f
_ZN14TagProcessor_c7ProcessEtPN4nw4r2ut12PrintContextIwEE 0x800E6420 f
_ZN14TagProcessor_c19PictureFontCalcRectEPN4nw4r2ut4RectEPN4nw4r2ut12PrintContextIwEE 0x800E64B0 f
_ZN14TagProcessor_c13ScaleCalcRectEPN4nw4r2ut12PrintContextIwEE 0x800E66F0 f
_ZN14TagProcessor_c12RuByCalcRectEPN4nw4r2ut4RectEPN4nw4r2ut12PrintContextIwEE 0x800E6790 f
_ZN14TagProcessor_c8CalcRectEPN4nw4r2ut4RectEtPN4nw4r2ut12PrintContextIwEE 0x800E69C0 f
_ZN14TagProcessor_c10PlaceCheckEi 0x800E6A40    f
_ZN14TagProcessor_c12TextBufClearEv 0x800E6A80  f
_ZN14TagProcessor_c8MsgIDSetEP8MsgRes_cmm 0x800E6AD0 f
_ZN14TagProcessor_c11getWorldNumEPv 0x800E6BA0  f
_ZN14TagProcessor_c12getCourseNumEv 0x800E6C60  f
_ZN14TagProcessor_c16getOkCancellDispEP8MsgRes_cPv 0x800E6CC0 f
_ZN14TagProcessor_c22getTotalCollectionCoinEv 0x800E6CF0 f
_ZN14TagProcessor_c15getCrossKeyDispEP8MsgRes_c 0x800E6D40 f
_ZN14TagProcessor_c19getCourseSelectIconEP8MsgRes_cPv 0x800E6D50 f
_ZN14TagProcessor_c17getSaveFileNumberEv 0x800E6DF0 f
_ZN14TagProcessor_c29getCourseSelectButtonFunctionEP8MsgRes_cPv 0x800E6E50 f
_ZN14TagProcessor_c7setSizeEPv  0x800E6EC0      f
_ZN14TagProcessor_c7setRuBiEPv  0x800E6F10      f
_ZN14TagProcessor_c13getMenuButtonEP8MsgRes_cPv 0x800E6F90 f
_ZN14TagProcessor_c10getScissorEPv 0x800E7000   f
_ZN14TagProcessor_c14getEasyPairingEP8MsgRes_cPv 0x800E7150 f
hash_9E994207_B38240C7          0x800E7170      f
_ZN14TagProcessor_c12getDebugDispEv 0x800E71C0  f
_ZN14TagProcessor_c13getPlayNumberEv 0x800E7240 f
_ZN14TagProcessor_c16getOkCancellDispEP8MsgRes_c 0x800E72A0 f
_ZN14TagProcessor_c11getRedBlockEP8MsgRes_cPv 0x800E72B0 f
_ZN14TagProcessor_c10preProcessEPKwPwmPilP16__va_list_structP8MsgRes_c 0x800E72D0 f
_ZN13dTenCoinMng_cC1Ev          0x800E75D0      f
_ZN13dTenCoinMng_cD0Ev          0x800E75E0      f
_ZN13dTenCoinMng_c7executeEv    0x800E7640      f
_ZN13dTenCoinMng_c11allDoDeleteEv 0x800E76A0    f
_ZN13dTenCoinMng_c13tencoin_entryEP7mVec3_cii 0x800E7700 f
_ZN13dTenCoinMng_c13tencoin_checkEP7mVec3_cii 0x800E77B0 f
__sinit_\d_tencoin_mng_cpp      0x800E78B0      f
hash_118BC855_F7E98055          0x800E78D0      f
_ZN4Util6curve2Eff7mVec2_c7mVec2_c 0x800E7920   f
_ZN4Util10getNodePosERKN3m3d5mdl_cEmRK7mVec3_c 0x800E7990 f
_ZN4Util10getNodePosERKN3m3d5mdl_cEPKcRK7mVec3_c 0x800E79F0 f
_ZN4Util9setAnmChrEPN3m3d5mdl_cEPN3m3d8anmChr_cERKN4nw4r3g3d9ResAnmChrEN3m3d10playMode_eEff 0x800E7A80 f
_ZN4Util12setAnmTexPatEPN3m3d5mdl_cEPN3m3d11anmTexPat_cERKN4nw4r3g3d12ResAnmTexPatEN3m3d10playMode_eEffl 0x800E7B00 f
_ZN4Util12setAnmTexSrtEPN3m3d5mdl_cEPN3m3d11anmTexSrt_cERKN4nw4r3g3d12ResAnmTexSrtEN3m3d10playMode_eEffl 0x800E7B90 f
_ZN4Util9setAnmClrEPN3m3d5mdl_cEPN3m3d11anmMatClr_cERKN4nw4r3g3d9ResAnmClrEN3m3d10playMode_eEffl 0x800E7C20 f
_ZN4Util7dDisp_cC1Ev            0x800E7CB0      f
_ZN4Util7dDisp_cD0Ev            0x800E7D80      f
hash_10F7D37B_1C2A8D79          0x800E7DC0      f
hash_B045BD34_74BD8F24          0x800E7E60      f
_ZN4Util7dDisp_c8setSizeYEf     0x800E7EF0      f
_ZN4Util7dDisp_c8getSizeYEv     0x800E7F30      f
_ZN4Util7dDisp_c8getSizeXEv     0x800E7F40      f
_ZN4Util7dDisp_c7getPosXEv      0x800E7F50      f
_ZN4Util7dDisp_c10chaseBaseXEff 0x800E7F60      f
_ZN4Util7dDisp_c8setBaseXEf     0x800E7FE0      f
_ZN4Util7dDisp_c8getBaseXEv     0x800E7FF0      f
_ZN4Util7dDisp_c10resetBaseXEv  0x800E8030      f
_ZN4Util7dDisp_c7getOrgXEv      0x800E8090      f
_ZN4Util7dDisp_c9chaseOfsXEff   0x800E80A0      f
_ZN4Util7dDisp_c7setOfsXEf      0x800E8120      f
_ZN4Util7dDisp_c7getOfsXEv      0x800E8130      f
_ZN4Util7dDisp_c10chaseBaseYEff 0x800E8140      f
_ZN4Util7dDisp_c7getPosYEv      0x800E81C0      f
_ZN4Util7dDisp_c8setBaseYEf     0x800E81D0      f
_ZN4Util7dDisp_c8getBaseYEv     0x800E81E0      f
_ZN4Util7dDisp_c7setOfsYEf      0x800E8220      f
_ZN4Util7dDisp_c7getOfsYEv      0x800E8230      f
_ZN4Util14FrameCounter_cC1Ev    0x800E8240      f
_ZN4Util14FrameCounter_cD0Ev    0x800E8270      f
_ZN4Util14FrameCounter_c4initEff 0x800E82B0     f
_ZN4Util14FrameCounter_c4playEfN4Util14FrameCounter_c6Type_eEff 0x800E82C0 f
_ZN4Util14FrameCounter_c4playEfN4Util14FrameCounter_c6Type_eE 0x800E82D0 f
_ZN4Util14FrameCounter_c4calcEv 0x800E82F0      f
_ZN4Util12HermiteKey_sIfEC1Ev   0x800E8410      f
_ZN4Util12HermiteKey_sIlEC1Ev   0x800E8430      f
_ZN4Util12HermiteKey_sI7mVec3_cEC1Ev 0x800E8450 f
hash_18217B11_A7892674          0x800E8480      f
hash_8853BC9B_A2453004          0x800E86B0      f
hash_05DE21F5_C9F79445          0x800E8880      f
_ZN6mVideo6createEv             0x800E8BC0      f
_ZN12dWanKusari_c6createEii     0x800E8C40      f
_ZN12dWanKusari_c8allocateEv    0x800E8CB0      f
_ZN12dWanKusari_c7executeEv     0x800E8D10      f
_ZN12dWanKusari_c4drawEv        0x800E8D60      f
_ZN12dWanKusari_c7calcMdlEv     0x800E8DD0      f
_ZN12dWanKusari_c6removeEv      0x800E8E40      f
_ZN12dWanKusari_c11make_kusariEv 0x800E8ED0     f
_ZN12dWanKusari_c9createMdlEv   0x800E8FA0      f
_ZN12dWanKusari_c4initEv        0x800E9020      f
_ZNK12dWanKusari_c9getLengthEv  0x800E9130      f
_ZN12dWanKusari_c13calcTightRateEv 0x800E9170   f
_ZN12dWanKusari_c5readyEv       0x800E9240      f
_ZN12dWanKusari_c6normalEv      0x800E9650      f
_ZN12dWanKusari_c5tightEv       0x800E9A00      f
_ZN12dWanKusari_c7releaseEv     0x800E9B90      f
_ZN12dWanKusari_c21initializeState_ReadyEv 0x800E9E00 f
_ZN12dWanKusari_c19finalizeState_ReadyEv 0x800E9E10 f
_ZN12dWanKusari_c18executeState_ReadyEv 0x800E9E20 f
_ZN12dWanKusari_c22initializeState_NormalEv 0x800E9EA0 f
_ZN12dWanKusari_c20finalizeState_NormalEv 0x800E9EB0 f
_ZN12dWanKusari_c19executeState_NormalEv 0x800E9EC0 f
_ZN12dWanKusari_c21initializeState_TightEv 0x800E9ED0 f
_ZN12dWanKusari_c19finalizeState_TightEv 0x800E9EE0 f
_ZN12dWanKusari_c18executeState_TightEv 0x800E9EF0 f
_ZN12dWanKusari_c23initializeState_ReleaseEv 0x800E9F00 f
_ZN12dWanKusari_c21finalizeState_ReleaseEv 0x800E9F10 f
_ZN12dWanKusari_c20executeState_ReleaseEv 0x800E9F20 f
_ZN12dWanKusari_c24initializeState_CollapseEv 0x800E9F30 f
_ZN12dWanKusari_c22finalizeState_CollapseEv 0x800E9FF0 f
_ZN12dWanKusari_c21executeState_CollapseEv 0x800EA000 f
_ZN12dWanKusari_c20initializeState_DeadEv 0x800EA0B0 f
_ZN12dWanKusari_c18finalizeState_DeadEv 0x800EA0C0 f
_ZN12dWanKusari_c17executeState_DeadEv 0x800EA0D0 f
_ZNK11sFStateID_cI12dWanKusari_cE13finalizeStateER12dWanKusari_c 0x800EA0E0 f
_ZNK11sFStateID_cI12dWanKusari_cE12executeStateER12dWanKusari_c 0x800EA110 f
_ZNK11sFStateID_cI12dWanKusari_cE15initializeStateER12dWanKusari_c 0x800EA140 f
__sinit_\d_wan_kusari_cpp       0x800EA170      f
_ZN11sFStateID_cI12dWanKusari_cED0Ev 0x800EA650 f
_ZNK11sFStateID_cI12dWanKusari_cE10isSameNameEPKc 0x800EA6B0 f
_ZN17dWanKusariPiece_c9createMdlER16mHeapAllocator_c 0x800EA740 f
_ZN17dWanKusariPiece_c4drawEv   0x800EA7E0      f
_ZN17dWanKusariPiece_c7calcMdlEv 0x800EA800     f
_ZN17dWanKusariPiece_c12calcPosAngleEP8dActor_c 0x800EA8E0 f
_ZN17dWanKusariPiece_c12collapseMoveEv 0x800EA9E0 f
_ZN17dWanKusariPiece_c16setCollapseSpeedEi 0x800EAA90 f
_ZN12dWaterDraw_c11createWaterEP7mVec3_cffhh 0x800EAB10 f
_ZN12dWaterDraw_c12executeWaterEv 0x800EAB80    f
_ZN12dWaterDraw_c12executeWaterEP7mVec3_cff 0x800EABD0 f
_ZN12dWaterDraw_c9drawWaterEh   0x800EAC30      f
_ZN12dWaterDraw_c12color_insertE11_GXTevRegID14_GXTevKColorIDh 0x800EAEA0 f
_ZN12dWaterDraw_c17color_insert_heatE11_GXTevRegID14_GXTevKColorIDh 0x800EAFA0 f
_ZN12dWaterDraw_c11repeat_calcEP7mVec3_cff 0x800EB0A0 f
_ZN12dWaterDraw_c9model_setEh   0x800EB150      f
_ZN12dWaterDraw_c15model_repeatsetEv 0x800EB3A0 f
_ZN12dWaterDraw_c13model_anmplayEv 0x800EB520   f
_ZN16dWaterEntryMng_c16WaterEntryInitalEv 0x800EB5D0 f
hash_1E52DFB0_BB08F82F          0x800EB6D0      f
_ZN16dWaterEntryMng_c12square_checkEP7mVec2_ci 0x800EB750 f
_ZN16dWaterEntryMng_c21getPosDistancetoAngleEP7mVec2_c 0x800EB7C0 f
_ZN16dWaterEntryMng_c12circle_checkEP7mVec2_ciP7mVec2_cPfPs 0x800EB7F0 f
hash_ED4D5A12_BA929A82          0x800EBA40      f
hash_666A5750_C5E36D41          0x800EBBC0      f
hash_AF7566A7_242B6C3D          0x800EBC40      f
hash_4CF02396_783794ED          0x800EBC80      f
hash_97686963_392DEFF8          0x800EBCB0      f
_ZN12dWaterWave_c12wave_tex_setEP7mVec3_cfih 0x800EBCF0 f
_ZN12dWaterWave_c15waveDecoExecuteEv 0x800EC4C0 f
_ZN12dWaterWave_c11waveExecuteEv 0x800ECBF0     f
_ZN12dWaterWave_c4drawEv        0x800EDF20      f
_ZN12dWaterWave_c8doDeleteEv    0x800EDFC0      f
_ZN12dWipeFader_cC1EN4nw4r2ut5ColorEN12mFaderBase_c7EStatusE 0x800EE030 f
_ZN12dWipeFader_c13createTextureEv 0x800EE080   f
_ZN4mTex6base_cD0Ev             0x800EE240      f
_ZN12dWipeFader_c7calcMtxEv     0x800EE280      f
_ZN12dWipeFader_cD0Ev           0x800EE360      f
_ZN13dWmMapModel_cD0Ev          0x800EE3C0      f
_ZN13dWmMapModel_c8ChrAnm_tD0Ev 0x800EE4E0      f
_ZN12dWmBgmSync_cD0Ev           0x800EE540      f
_ZN13dWmMapModel_c10initializeEii 0x800EE580    f
_ZN13dWmMapModel_c14postInitializeEv 0x800EE5A0 f
_ZN13dWmMapModel_c6createEP16mHeapAllocator_cPPKciRK7mVec3_c 0x800EE5E0 f
_ZN13dWmMapModel_c11CreateModelEP16mHeapAllocator_c 0x800EE720 f
_ZN13dWmMapModel_c15bindChrAnimNodeEiPKc 0x800EE960 f
_ZN13dWmMapModel_c10CreateAnimEP16mHeapAllocator_cPPKci 0x800EEA40 f
_ZN13dWmMapModel_c14__CreateAnimExEP16mHeapAllocator_cPPKci 0x800EEAC0 f
_ZN13dWmMapModel_c18__CreateExMaskAnimEP16mHeapAllocator_c 0x800EEBF0 f
_ZN13dWmMapModel_c17__CreateWorldAnimEP16mHeapAllocator_c 0x800EEF80 f
hash_9E0350AD_B7951215          0x800EEFA0      f
_ZN13dWmMapModel_c14playSwitchAnimEbb 0x800EF100 f
_ZN13dWmMapModel_c16isSwitchAnimStopEv 0x800EF340 f
_ZN13dWmMapModel_c25playLoadToKoopaCastleAnimEv 0x800EF480 f
_ZN13dWmMapModel_c27isLoadToKoopaCastleAnimStopEv 0x800EF540 f
_ZN13dWmMapModel_c10setAntlionEbib 0x800EF680   f
_ZN13dWmMapModel_c16endAntlionEffectEv 0x800EF810 f
_ZN13dWmMapModel_c17__CreateBlendAnimEP16mHeapAllocator_c 0x800EF880 f
_ZN13dWmMapModel_c13playColorAnimEiff 0x800EF9A0 f
_ZN13dWmMapModel_c14playTexSrtAnimEiff 0x800EFA50 f
_ZN13dWmMapModel_c13isStop_ClrAnmEi 0x800EFB00  f
_ZN13dWmMapModel_c16isStop_TexSrtAnmEi 0x800EFBB0 f
_ZN13dWmMapModel_c4calcEv       0x800EFC60      f
_ZN13dWmMapModel_c4playEv       0x800EFD80      f
_ZN13dWmMapModel_c5entryEv      0x800EFF20      f
_ZN13dWmMapModel_c13GetTranslateVEPKc 0x800EFF30 f
_ZN13dWmMapModel_c15__GetTranslateVEPKc 0x800EFF70 f
_ZN13dWmMapModel_c13SetTranslateVEPKcf 0x800F0040 f
_ZN13dWmMapModel_c13PlayMaskAnimeEPKcf 0x800F0120 f
_ZN13dWmMapModel_c19playExMaskRouteAnimEPKcff 0x800F01A0 f
_ZN13dWmMapModel_c17IsMaskAnimeFinishEPKc 0x800F0280 f
_ZN13dWmMapModel_c17calcMaskRouteAnimEPKcf 0x800F02C0 f
_ZN13dWmMapModel_c15SetRouteClrAnimEPKci 0x800F03D0 f
_ZN13dWmMapModel_c18SetRouteTexSrtAnimEPKci 0x800F0490 f
_ZN13dWmMapModel_c15SetRouteChrAnimEPKci 0x800F0550 f
_ZN13dWmMapModel_c14getChrAnmIndexEPKc 0x800F0620 f
_ZN13dWmMapModel_c16SetRouteMaskAnimEPKcf 0x800F0690 f
_ZN13dWmMapModel_c14setRate_ChrAnmEPKcff 0x800F0740 f
_ZN13dWmMapModel_c13isStop_ChrAnmEv 0x800F0840  f
_ZN13dWmMapModel_c13isStop_ChrAnmEPKc 0x800F0910 f
_ZN13dWmMapModel_c15playCharaAnimSeEPKc 0x800F0970 f
_ZN13dWmMapModel_c14setRate_ClrAnmEPKcff 0x800F0AF0 f
_ZN13dWmMapModel_c13isStop_ClrAnmEPKc 0x800F0BE0 f
_ZN13dWmMapModel_c20checkEntryTexSrtAnimEPKc 0x800F0C70 f
_ZN13dWmMapModel_c19checkEntryColorAnimEPKc 0x800F0D20 f
_ZN13dWmMapModel_c17checkEntryChrAnimEPKc 0x800F0DD0 f
_ZN13dWmMapModel_c18checkExistMaskAnimEPKc 0x800F0E60 f
_ZN13dWmMapModel_c17checkIsExMaskAnimEPKc 0x800F0F30 f
_ZN13dWmMapModel_c10GetNodePosElR7mVec3_c 0x800F0FC0 f
_ZN13dWmMapModel_c10GetNodePosEPKcR7mVec3_c 0x800F0FD0 f
_ZN13dWmMapModel_c9GetNodeIDEPKc 0x800F1040     f
_ZN13dWmMapModel_c9CheckNodeEPKc 0x800F1080     f
_ZN13dWmMapModel_c16GetStartNodeTypeEv 0x800F10D0 f
_ZN13dWmMapModel_c15GetStartNodePosER7mVec3_c 0x800F1150 f
_ZN13dWmMapModel_c13CheckLinkNodeEN13dWmMapModel_c10LinkNode_eE 0x800F11C0 f
_ZN13dWmMapModel_c14GetLinkNodePosEN13dWmMapModel_c10LinkNode_eER7mVec3_c 0x800F11E0 f
_ZN13dWmMapModel_c12CheckEndNodeEv 0x800F1260   f
_ZN13dWmMapModel_c13GetEndNodePosER7mVec3_c 0x800F1270 f
_ZN13dWmMapModel_c15IsMaterialExistEPKc 0x800F12D0 f
_ZN13dWmMapModel_c14GetMaterialNumEv 0x800F12E0 f
_ZN13dWmMapModel_c15GetMaterialNameEi 0x800F12F0 f
_ZN13dWmMapModel_c13CreateChrAnimEP16mHeapAllocator_cPKcN3m3d10playMode_eEff 0x800F1300 f
_ZN13dWmMapModel_c16CreateTexSrtAnimEP16mHeapAllocator_cPKcN3m3d10playMode_eEff 0x800F14A0 f
_ZN13dWmMapModel_c15CreateColorAnimEP16mHeapAllocator_cPKcN3m3d10playMode_eEff 0x800F1660 f
_ZN13dWmMapModel_c20setStartKinokoShadowEb 0x800F1820 f
_ZN13dWmMapModel_c15setAnchorShadowEb 0x800F18C0 f
_ZN13dWmMapModel_c22deleteAllDebugMaterialEv 0x800F1960 f
__sinit_\d_wm_MapModel_cpp      0x800F19C0      f
__arraydtor$57741               0x800F1A30      f
_ZN19dWmMapExRouteAnim_cC1EPKc  0x800F1A50      f
_ZN19dWmMapExRouteAnim_cD0Ev    0x800F1A90      f
_ZN19dWmMapExRouteAnim_c6createEP13dWmMapModel_cRKN4nw4r3g3d7ResNodeEP16mHeapAllocator_c 0x800F1B10 f
_ZN19dWmMapExRouteAnim_c7destroyEP19dWmMapExRouteAnim_c 0x800F1BB0 f
_ZN19dWmMapExRouteAnim_c14createAnimListEP13dWmMapModel_cRKN4nw4r3g3d7ResNodeEP16mHeapAllocator_c 0x800F1BC0 f
_ZN19dWmMapExRouteAnim_c4playEP13dWmMapModel_cff 0x800F1C70 f
_ZN19dWmMapExRouteAnim_c4playEv 0x800F1C80      f
_ZN19dWmMapExRouteAnim_c6isStopEP13dWmMapModel_c 0x800F1C90 f
_ZN19dWmMapExRouteAnim_c13isExRouteAnimEPKc 0x800F1CA0 f
_ZN19dWmMapExRouteAnim_c12getCharaAnimEv 0x800F1CE0 f
_ZN19dWmMapExRouteAnim_c12hasCharaAnimEv 0x800F1CF0 f
_ZN18dWmMapExAnimInfo_cC1EPKc   0x800F1D00      f
_ZN18dWmMapExAnimInfo_c6createEP13dWmMapModel_cRKN4nw4r3g3d7ResNodeEP16mHeapAllocator_c 0x800F1D70 f
_ZN18dWmMapExAnimInfo_c4playEP13dWmMapModel_cff 0x800F1E20 f
_ZN18dWmMapExAnimInfo_c4playEv  0x800F1F20      f
_ZN18dWmMapExAnimInfo_c8bindNodeEP13dWmMapModel_c 0x800F1F40 f
_ZN18dWmMapExAnimInfo_c6isStopEP13dWmMapModel_c 0x800F1FA0 f
_ZN18dWmMapExAnimInfo_c10createAnimEP13dWmMapModel_cRKN4nw4r3g3d7ResNodeEP16mHeapAllocator_c 0x800F2090 f
_ZN18dWmMapExAnimInfo_c18createBindNodeListERKN4nw4r3g3d7ResNodeE 0x800F21C0 f
_ZN18dWmMapExAnimInfo_c11addBindNodeERKN4nw4r3g3d7ResNodeE 0x800F22B0 f
_ZN18dWmMapExAnimInfo_c6isBindEi 0x800F23C0     f
_ZN18dWmMapExAnimInfo_c12hasCharaAnimEv 0x800F2400 f
__sinit_\d_wm_Map_ExRouteAnim_cpp 0x800F2410    f
__arraydtor$53756               0x800F2480      f
hash_9AE02AFD_EC16C484          0x800F24A0      f
hash_CDE8797E_07293EE4          0x800F2580      f
_ZN10dWmSVMdl_c6createEP12mAllocator_cRN3m3d6smdl_cE 0x800F25C0 f
_ZN10dWmSVMdl_c7drawOpaEv       0x800F2640      f
_ZN10dWmSVMdl_c7drawXluEv       0x800F2720      f
_ZN10dWmSVMdl_cD0Ev             0x800F2730      f
__sinit_\d_wm_ShadowVolume_cpp  0x800F2790      f
__arraydtor$57873               0x800F2800      f
_ZN10dWmActor_cC1Ev             0x800F2820      f
_ZN10dWmActor_cD0Ev             0x800F2880      f
_ZN10dWmActor_c9preCreateEv     0x800F28E0      f
_ZN10dWmActor_c10postCreateEN7fBase_c12MAIN_STATE_eE 0x800F2910 f
_ZN10dWmActor_c9preDeleteEv     0x800F2920      f
_ZN10dWmActor_c10postDeleteEN7fBase_c12MAIN_STATE_eE 0x800F2950 f
_ZN10dWmActor_c10preExecuteEv   0x800F2960      f
_ZN10dWmActor_c11postExecuteEN7fBase_c12MAIN_STATE_eE 0x800F2A10 f
_ZN10dWmActor_c7preDrawEv       0x800F2A20      f
_ZN10dWmActor_c8postDrawEN7fBase_c12MAIN_STATE_eE 0x800F2AF0 f
_ZN10dWmActor_c9constructEtmPK7mVec3_cPK7mAng3_c 0x800F2B00 f
_ZN10dWmActor_c9constructEtP7dBase_cmPK7mVec3_cPK7mAng3_c 0x800F2B10 f
_ZN10dWmActor_c16setSoftLight_MapERN3m3d6bmdl_cE 0x800F2B20 f
_ZN10dWmActor_c19setSoftLight_MapObjERN3m3d6bmdl_cE 0x800F2B30 f
_ZN10dWmActor_c18setSoftLight_EnemyERN3m3d6bmdl_cE 0x800F2B40 f
_ZN10dWmActor_c17setSoftLight_BossERN3m3d6bmdl_cE 0x800F2B50 f
_ZN10dWmActor_c12GetActorTypeEv 0x800F2B60      f
__sinit_\d_wm_actor_cpp         0x800F2B70      f
__arraydtor$62271               0x800F2BE0      f
_ZN12dWmConnect_c6dPnt_c7SetInfoEPKcRN4nw4r4math4VEC3Ei 0x800F2C00 f
_ZN12dWmConnect_c6dPnt_c4initEv 0x800F2C70      f
_ZN12dWmConnect_c7SetInfoER10dCsvData_cRKN3m3d5mdl_cE 0x800F2CD0 f
_ZN12dWmConnect_c10initializeER10dCsvData_cRKN3m3d5mdl_cE 0x800F2E50 f
_ZN12dWmConnect_c11calcConnectER10dCsvData_c 0x800F2F00 f
_ZN12dWmConnect_c10GetPointNoEPKc 0x800F2FC0    f
_ZN12dWmConnect_c9__connectEii  0x800F3030      f
_ZN12dWmConnect_c13initAnimationER10dCsvData_c 0x800F31D0 f
_ZN12dWmConnect_c11SetCourseNoEi 0x800F32A0     f
_ZN12dWmConnect_c19GetCourseNoFromNameEPKc 0x800F32F0 f
_ZN12dWmConnect_c10GetConnectEPKci 0x800F3380   f
_ZN12dWmConnect_c17GetPointFromIndexEi 0x800F3400 f
_ZN12dWmConnect_c6GetDirEii     0x800F3440      f
_ZN12dWmConnect_c6dPnt_c7GetLinkEi 0x800F34D0   f
__sinit_\d_wm_connect_cpp       0x800F34E0      f
__arraydtor$53530               0x800F3550      f
_Z4readPcPKci                   0x800F3570      f
_ZN10dCsvData_cD0Ev             0x800F3610      f
_ZN10dCsvData_c10initializeEii  0x800F36B0      f
_ZN10dCsvData_c13RouteInfoInitEv 0x800F36F0     f
_ZN10dCsvData_c11ReadCsvDataEv  0x800F3AE0      f
_ZN10dCsvData_c13ReadPointNameEPcRi 0x800F3F30  f
_ZN10dCsvData_c13ReadPointTypeEPcRi 0x800F3F90  f
_ZN10dCsvData_c17ReadOpenPointNameEPcRib 0x800F4980 f
_ZN10dCsvData_c17ReadOpenRouteNameEPcRib 0x800F4C60 f
_ZN10dCsvData_c12ReadFlagDataEPcRib 0x800F4EB0  f
_ZN10dCsvData_c18ReadAnimeRouteNameEPcRi 0x800F5090 f
_ZN10dCsvData_c10ReadActionEPcRi 0x800F5160     f
_ZN10dCsvData_c13ReadRouteFlagEPcRi 0x800F5240  f
_ZN10dCsvData_c14GetActionLabelEPKc 0x800F5420  f
_ZN10dCsvData_c21GetIndexFromPointNameEPKc 0x800F54B0 f
_ZN10dCsvData_c11addKeyPointERKN3m3d5mdl_cE 0x800F5530 f
_ZN10dCsvData_c12SetRouteInfoERKN3m3d5mdl_cE 0x800F55E0 f
_ZNK10dCsvData_c12GetPointNameEi 0x800F57C0     f
_ZNK10dCsvData_c16GetOpenPointNameEbii 0x800F57D0 f
_ZNK10dCsvData_c15GetOpenPointNumEbi 0x800F5810 f
_ZNK10dCsvData_c16GetOpenRouteNameEbii 0x800F5840 f
_ZNK10dCsvData_c15GetOpenRouteNumEbi 0x800F5880 f
hash_245BD43F_4E26D63A          0x800F58B0      f
hash_66C303EE_8A9EF76B          0x800F58D0      f
_ZN10dCsvData_c13GetPointParamEi 0x800F58F0     f
_ZN10dCsvData_c12GetRouteNameEi 0x800F5900      f
_ZN10dCsvData_c17GetChildPointNameEii 0x800F5920 f
_ZN10dCsvData_c15GetSubRouteNameEi 0x800F5940   f
_ZN10dCsvData_c14GetSubRouteIdxEPKcPKc 0x800F5960 f
_ZN10dCsvData_c11GetPointNumEi  0x800F5A40      f
_ZN10dCsvData_c15GetSubRouteFlagEi 0x800F5A60   f
_ZN10dCsvData_c15GetRouteAnimNumEbi 0x800F5A80  f
_ZN10dCsvData_c16GetRouteAnimNameEbii 0x800F5AB0 f
hash_099DBB0F_F9EAB9F0          0x800F5AF0      f
hash_2929DA7E_6E4EE257          0x800F5B90      f
hash_FDD5B3B6_81128029          0x800F5BA0      f
hash_C0028A3F_AC6FB940          0x800F5D20      f
_ZN10dCsvData_c20appendChildFromModelERKN4nw4r3g3d7ResNodeEi 0x800F5E50 f
hash_58E4554B_ED58B862          0x800F5F70      f
_ZN10dCsvData_c9isLineEndEPci   0x800F6020      f
__sinit_\d_wm_csvdata_cpp       0x800F6050      f
__arraydtor$54234               0x800F60C0      f
_ZN14dWmDemoActor_cC1Ev         0x800F60E0      f
hash_450F8C3C_46CDD426          0x800F6130      f
hash_98925D36_31112E55          0x800F61C0      f
_ZN14dWmDemoActor_c9setCutEndEv 0x800F61E0      f
_ZN14dWmDemoActor_c7isStaffEv   0x800F61F0      f
_ZN14dWmDemoActor_c13InitJumpParamERK7mVec3_cRK7mVec3_ciff 0x800F6220 f
_ZN14dWmDemoActor_c16__initJumpParam1ERK7mVec3_cRK7mVec3_ciff 0x800F6240 f
_ZN14dWmDemoActor_c16__initJumpParam2ERK7mVec3_cRK7mVec3_ciff 0x800F6330 f
_ZN14dWmDemoActor_c12initJumpBaseE7mVec3_cif 0x800F6430 f
_ZN14dWmDemoActor_c12procJumpBaseEv 0x800F64A0  f
_ZN14dWmDemoActor_c12setDirectionERK7mVec3_c 0x800F6520 f
_ZN14dWmDemoActor_c13rotDirectionYEsb 0x800F65D0 f
_ZN14dWmDemoActor_c13rotDirectionXEsb 0x800F65F0 f
_ZN14dWmDemoActor_c20checkArriveTargetXYZERK7mVec3_cRK7mVec3_c 0x800F6610 f
_ZN14dWmDemoActor_c19checkArriveTargetXZERK7mVec3_cRK7mVec3_c 0x800F66D0 f
_ZN14dWmDemoActor_c17CreateShadowModelEPKcPKcPKcb 0x800F6820 f
_ZN14dWmDemoActor_c10CalcShadowEffff 0x800F6920 f
_ZN14dWmDemoActor_c10CalcShadowEff 0x800F6A20   f
_ZN14dWmDemoActor_c10DrawShadowEb 0x800F6A30    f
_ZN14dWmDemoActor_c21_initDemoJumpBaseCoreERK7mVec3_ciifffRKs 0x800F6A50 f
_ZN14dWmDemoActor_c17_initDemoJumpBaseERK7mVec3_ciifffRK7mVec3_c 0x800F6B00 f
_ZN14dWmDemoActor_c17_procDemoJumpBaseEv 0x800F6BC0 f
_ZN14dWmDemoActor_c9GetBgPosYERK7mVec3_cRK7mVec3_ci 0x800F6C60 f
hash_55BF65A2_677F2820          0x800F6D50      f
_ZN14dWmDemoActor_c13clearSpeedAllEv 0x800F6DC0 f
_ZN14dWmDemoActor_c16adjustHeightBaseERK7mVec3_cRK7mVec3_ci 0x800F6DE0 f
hash_0BBA0D02_E2DB304B          0x800F6E70      f
_ZN14dWmDemoActor_c11clearCutEndEv 0x800F6EE0   f
_ZN14dWmDemoActor_c11checkCutEndEv 0x800F6EF0   f
_ZN14dWmDemoActor_c12GetActorTypeEv 0x800F6F00  f
_ZN14dWmDemoActor_c8doDeleteEv  0x800F6F10      f
_ZN14dWmDemoActor_c4drawEv      0x800F6F20      f
_ZN14dWmDemoActor_c6createEv    0x800F6F30      f
_ZN14dWmDemoActor_cD0Ev         0x800F6F40      f
__sinit_\d_wm_demo_actor_cpp    0x800F6FC0      f
__arraydtor$58103               0x800F7030      f
_ZN11dWmEnPath_cC1Ev            0x800F7050      f
_ZN11dWmEnPath_cD0Ev            0x800F7130      f
hash_5BDB4F7F_86918DD4          0x800F7170      f
_ZN11dWmEnPath_c13SetStartPointEi 0x800F72B0    f
_ZN11dWmEnPath_c15GetNextPointIdxEv 0x800F72D0  f
_ZN11dWmEnPath_c14GetPathPointNoEPKc 0x800F7300 f
_ZN11dWmEnPath_c16GetNextPointInfoEb 0x800F7380 f
_ZN11dWmEnPath_c11UpdatePointEv 0x800F7400      f
_ZN11dWmEnPath_c9isPointInEi    0x800F7440      f
_ZN8dWmEnemy11isEnemyWalkEv     0x800F7510      f
_ZN10dWmEnemy_cD0Ev             0x800F75B0      f
_ZN10dWmEnemy_c14initializeBaseEPPKcib 0x800F7670 f
_ZN10dWmEnemy_c13getStartPointEv 0x800F7870     f
_ZN10dWmEnemy_c14getPointOffsetEi 0x800F7880    f
_ZN10dWmEnemy_c7executeEv       0x800F78B0      f
_ZN10dWmEnemy_c17updateBgmAnimRateEv 0x800F79C0 f
_ZN10dWmEnemy_c15calculateEffectEv 0x800F79D0   f
_ZN10dWmEnemy_c4calcEv          0x800F79E0      f
_ZN10dWmEnemy_c9init_execEv     0x800F79F0      f
_ZN10dWmEnemy_c9mode_execEv     0x800F7A00      f
_ZN10dWmEnemy_c9init_loseEv     0x800F7A80      f
_ZN10dWmEnemy_c16initDemoStarLoseEv 0x800F7AC0  f
_ZN10dWmEnemy_c9mode_loseEv     0x800F7AD0      f
_ZN10dWmEnemy_c16procDemoStarLoseEv 0x800F7B20  f
_ZN10dWmEnemy_c13init_bgmDanceEv 0x800F7B30     f
_ZN10dWmEnemy_c16initDemoBgmDanceEv 0x800F7B50  f
_ZN10dWmEnemy_c13mode_bgmDanceEv 0x800F7B60     f
_ZN10dWmEnemy_c16procDemoBgmDanceEv 0x800F7BB0  f
_ZN10dWmEnemy_c17init_DemoContinueEv 0x800F7BC0 f
_ZN10dWmEnemy_c17mode_DemoContinueEv 0x800F7BE0 f
_ZN10dWmEnemy_c13init_waitWalkEv 0x800F7BF0     f
_ZN10dWmEnemy_c16GetWalkWaitFrameEv 0x800F7C40  f
_ZN10dWmEnemy_c13mode_waitWalkEv 0x800F7C50     f
_ZN10dWmEnemy_c12IsRandomMoveEv 0x800F7D80      f
_ZN10dWmEnemy_c8initWalkEv      0x800F7D90      f
_ZN10dWmEnemy_c12PostWaitWalkEv 0x800F7DA0      f
_ZN10dWmEnemy_c8initWalkEf      0x800F7DB0      f
_ZN10dWmEnemy_c6doWalkEv        0x800F7EB0      f
_ZN10dWmEnemy_c10setWalkAnmEf   0x800F8130      f
_ZN10dWmEnemy_c14getWalkAnmRateEv 0x800F8140    f
_ZN10dWmEnemy_c12getWaitAngleEv 0x800F8150      f
_ZN10dWmEnemy_c16getNextPointInfoEv 0x800F8160  f
_ZN10dWmEnemy_c19getCurrentPointInfoEv 0x800F8240 f
_ZN10dWmEnemy_c14initShapeAngleEv 0x800F8300    f
hash_C9475735_6F10DD92          0x800F8340      f
_ZN10dWmEnemy_c13initDemoAngerEv 0x800F85D0     f
_ZN10dWmEnemy_c13procDemoAngerEv 0x800F8650     f
_ZN10dWmEnemy_c12initDemoLoseEv 0x800F86F0      f
hash_641B2293_5A06C548          0x800F8700      f
_ZN10dWmEnemy_c12procDemoLoseEv 0x800F8730      f
_ZN10dWmEnemy_c15procDemoLoseEndEv 0x800F8740   f
_ZN10dWmEnemy_c16procDemoLoseBaseEs 0x800F8790  f
_ZN10dWmEnemy_c18isNextThroughPointEv 0x800F8840 f
_ZN10dWmEnemy_c14isThroughPointEi 0x800F8880    f
_ZN10dWmEnemy_c10isMainCastEv   0x800F88D0      f
_ZN10dWmEnemy_c6isDeadEv        0x800F88F0      f
_ZN10dWmEnemy_c9ModelCalcEPN3m3d5mdl_cEfff 0x800F8930 f
_ZN10dWmEnemy_c14updatePathInfoEb 0x800F8A90    f
hash_6C41ACBD_D8AB34C1          0x800F8B80      f
_ZN10dWmEnemy_c11deleteSoundEv  0x800F8B90      f
_ZN10dWmEnemy_c12deleteEffectEv 0x800F8BE0      f
_ZN10dWmEnemy_c16getEnemyWalkSeIDEv 0x800F8C30  f
_ZN10dWmEnemy_c12IsExecEnableEv 0x800F8C80      f
_ZN10dWmEnemy_c18IsPlayerComingCoreEv 0x800F8C90 f
_ZN10dWmEnemy_c8GetIndexEv      0x800F8D40      f
_ZN10dWmEnemy_c17IsNeedChasePlayerEv 0x800F8D90 f
_ZN10dWmEnemy_c14IsPlayerComingEv 0x800F8E00    f
_ZN10dWmEnemy_c12IsRandomWalkEv 0x800F8E10      f
_ZN10dWmEnemy_c16GetChangeDirRateEv 0x800F8EB0  f
_ZN10dWmEnemy_c17IsHitToWaitPlayerEv 0x800F8EC0 f
_ZN10dWmEnemy_c12GetTerritoryEv 0x800F8F90      f
_ZN10dWmEnemy_c17IsHitToMovePlayerEv 0x800F8FA0 f
_ZN10dWmEnemy_c18CheckIsHitToPlayerEv 0x800F9080 f
_ZN10dWmEnemy_c17isAllEnemyMoveEndEv 0x800F9190 f
_ZN10dWmEnemy_c13isWaitWalkEndEv 0x800F9250     f
_ZN10dWmEnemy_c11GetMoveRateEv  0x800F9270      f
_ZN10dWmEnemy_c14calcBlowOffPosEf 0x800F9280    f
_ZN10dWmEnemy_c12GetNextIndexEv 0x800F92A0      f
_ZN10dWmEnemy_c12GetActorTypeEv 0x800F92B0      f
_ZN10dWmEnemy_c8doDeleteEv      0x800F92C0      f
_ZN10dWmEnemy_c4drawEv          0x800F92D0      f
_ZN10dWmEnemy_c6createEv        0x800F92E0      f
__sinit_\d_wm_enemy_cpp         0x800F92F0      f
__arraydtor$57931               0x800F9360      f
_ZN6dWmLib30GetStartPointNameFromRouteNameEPKcPc 0x800F9380 f
_ZN6dWmLib28GetEndPointNameFromRouteNameEPKcPc 0x800F93D0 f
_ZN6dWmLib13MakeRouteNameEPcPKcPKc 0x800F9420   f
_ZN6dWmLib25MakePointNameFromCourseNoEiiPc 0x800F9480 f
_ZN6dWmLib24GetCourseNoFromPointNameEPKc 0x800F9640 f
_ZN6dWmLib19MakeKinokoHouseNameEiPc 0x800F9730  f
_ZN6dWmLib22GetKinokoHouseCourseNoEPKc 0x800F9840 f
_ZN6dWmLib25GetCourseTypeFromCourseNoEi 0x800F9950 f
_ZN6dWmLib29IsCourseTypeStageFromCourseNoEi 0x800F9A40 f
_ZN6dWmLib25GetPointTypeFromPointNameEPKc 0x800F9A80 f
_ZN6dWmLib22__searchMapObjFromNameEti 0x800F9B00 f
_ZN6dWmLib20SearchMapObjFromNameEPKc 0x800F9B70 f
_ZN6dWmLib24SearchMapObjFromCourseNoEii 0x800F9CB0 f
_ZN6dWmLib24SearchMapObjFromCsvIndexEti 0x800F9CF0 f
_ZN6dWmLib11SearchEnemyEti      0x800F9D60      f
hash_B926E7FC_6698D948          0x800F9DE0      f
_ZN6dWmLib16ConvertScreenPosEPN4nw4r4math4VEC3E 0x800F9E40 f
_ZN6dWmLib22GetNormalizedScreenPosERK7mVec2_cRK7mVec2_cRK7mVec2_c 0x800F9EC0 f
hash_5E520657_6B2974E3          0x800F9FB0      f
hash_EBE11615_96E70DE8          0x800FA020      f
hash_D14C1C67_D4E9BFC0          0x800FA0D0      f
_ZN6dWmLib14CheckHalfAreaXERK7mVec3_c 0x800FA180 f
_ZN6dWmLib14CheckHalfAreaYERK7mVec3_c 0x800FA1F0 f
_ZN6dWmLib18CheckOnCenterLineXERK7mVec3_c 0x800FA260 f
_ZN6dWmLib18CheckOnCenterLineYERK7mVec3_c 0x800FA2E0 f
hash_93AD302A_F7D696CB          0x800FA360      f
_ZN6dWmLib13GetOpenStatusEii    0x800FA440      f
_ZN6dWmLib17GetOpenStatusCoreEiiRK10dCsvData_c 0x800FA460 f
hash_01156F59_5B7AA5A4          0x800FA6F0      f
hash_7510DE9F_08F71C6F          0x800FA740      f
hash_5BED2889_B48BE52F          0x800FA7D0      f
_ZN6dWmLib12GetRouteTypeEPKc    0x800FA8F0      f
_ZN6dWmLib14GetClearStatusEii   0x800FA9D0      f
_ZN6dWmLib26GetCurrentPlayResultStatusEiii 0x800FAAD0 f
_ZN6dWmLib26GetCurrentPlayResultStatusEv 0x800FAC80 f
_ZN6dWmLib14IsCourseOpenedEii   0x800FAE20      f
hash_D6E1D3FD_D7231A38          0x800FAE50      f
_ZN6dWmLib18IsCourseOmoteClearEii 0x800FAE70    f
_ZN6dWmLib16IsCourseUraClearEii 0x800FAEC0      f
_ZN6dWmLib20IsCourseOtasukeClearEii 0x800FAF20  f
_ZN6dWmLib13IsCourseClearEii    0x800FAF50      f
_ZN6dWmLib23IsCourseFirstOmoteClearEiii 0x800FAF90 f
_ZN6dWmLib21IsCourseFirstUraClearEiii 0x800FB080 f
_ZN6dWmLib18IsCourseFirstClearEii 0x800FB150    f
_ZN6dWmLib26IsCourseOtasukeClearSimpleEii 0x800FB260 f
_ZN6dWmLib29IsCourseUraOtasukeClearSimpleEii 0x800FB2B0 f
_ZN6dWmLib24IsCourseOmoteClearSimpleEii 0x800FB300 f
_ZN6dWmLib22IsCourseUraClearSimpleEii 0x800FB350 f
_ZN6dWmLib14IsCourseFailedEiii  0x800FB3A0      f
_ZN6dWmLib11IsWorldOpenEi       0x800FB3E0      f
_ZN6dWmLib16IsAirshipClearedEi  0x800FB430      f
_ZN6dWmLib13getZoromeTimeEv     0x800FB440      f
_ZN6dWmLib15clearZoromeTimeEv   0x800FB450      f
_ZN6dWmLib31getStartPointKinokoHouseKindNumEv 0x800FB460 f
_ZN6dWmLib31setStartPointKinokoHouseKindNumEh 0x800FB490 f
_ZN6dWmLib27isStartPointKinokoHouseStarEv 0x800FB4D0 f
_ZN6dWmLib26isStartPointKinokoHouse1upEv 0x800FB520 f
_ZN6dWmLib26isStartPointKinokoHouseRedEv 0x800FB570 f
hash_E9A67234_B5F06F5B          0x800FB5C0      f
hash_E7F34464_C12136DF          0x800FB780      f
_ZN6dWmLib19findRouteByMaterialEPKciPc 0x800FB7D0 f
_ZN6dWmLib17findShortMaterialEPKciPc 0x800FB900 f
hash_938AD3A7_8EE659D0          0x800FBA10      f
_ZN6dWmLib24checkIsAllPlayerWaitDemoEv 0x800FBAA0 f
hash_B2236CBA_5A0EE8E7          0x800FBAF0      f
_ZN6dWmLib18procCourseGameOverEb 0x800FBE40     f
_ZN6dWmLib25procRestoreAllKinokoHouseEv 0x800FBEB0 f
_ZN6dWmLib18isKinopioHouseUsedEv 0x800FBEF0     f
_ZN6dWmLib22procRestoreKinokoHouseEi 0x800FBF70 f
_ZN6dWmLib23procClearCourseDataFlagEiii 0x800FBFE0 f
_ZN6dWmLib17getKoopaShipWorldEv 0x800FC040      f
_ZN6dWmLib25isKoopaShipOnCurrentWorldEv 0x800FC0C0 f
_ZN6dWmLib17isKoopaShipAnchorEv 0x800FC100      f
_ZN6dWmLib17getStartPointTypeEv 0x800FC150      f
_ZN6dWmLib16hasKoopaShipStopEv  0x800FC1B0      f
_ZN6dWmLib20getEnemyRevivalCountEii 0x800FC250  f
_ZN6dWmLib20setEnemyRevivalCountEiii 0x800FC2A0 f
_ZN6dWmLib11getPointDirERK7mVec3_cRK7mVec3_c 0x800FC300 f
hash_4E5C756D_4AC89A25          0x800FC3E0      f
_ZN6dWmLib14isSpecialWorldEv    0x800FC480      f
_ZN6dWmLib23getMaxCollectionCoinNumEi 0x800FC4A0 f
hash_A3139551_2AC7BD5A          0x800FC510      f
_ZN6dWmLib24isSpecialWorldCourseOpenEi 0x800FC580 f
hash_67FB4F4F_CB51A7F4          0x800FC590      f
_ZN6dWmLib15getModelNodePosEPKN3m3d6bmdl_cEPKc 0x800FC600 f
_ZN6dWmLib15getModelNodePosEPKN3m3d6bmdl_cEi 0x800FC670 f
hash_1AA03399_74546065          0x800FC6D0      f
_ZN6dWmLib14IsAntlionWorldEv    0x800FC900      f
_ZN6dWmLib13IsKillerWorldEv     0x800FC920      f
_ZN6dWmLib13IsBubbleWorldEv     0x800FC940      f
hash_A98DB8A2_A99C59F0          0x800FC960      f
hash_F43267F1_0F62EE41          0x800FCA50      f
hash_900613F1_DFF08621          0x800FCA80      f
_ZN6dWmLib13IsSingleEntryEv     0x800FCAD0      f
_ZN6dWmLib22IsStartKinopioHelpDemoEv 0x800FCB00 f
_ZN6dWmLib17InitKinopioCourseEv 0x800FCB10      f
hash_5E25C256_93A58D46          0x800FCB30      f
_ZN6dWmLib18IsKinopioHelpStartEv 0x800FCB60     f
_ZN6dWmLib19IsKinopioStartFirstEv 0x800FCBF0    f
_ZN6dWmLib24IsKinopioOpenCourseClearEv 0x800FCC00 f
_ZN6dWmLib29IsKinopioOpenCourseFirstClearEv 0x800FCC60 f
_ZN6dWmLib17UpdateKinopioGameEv 0x800FCCC0      f
hash_7BDE57C9_98E57D39          0x800FCDB0      f
_ZN6dWmLib22IsKinopioLifeUpdatableEv 0x800FCEB0 f
_ZN6dWmLib18ClearKinopioChukanEv 0x800FCEC0     f
hash_D05ECBB0_EF1520A0          0x800FCED0      f
hash_3C8849BC_D3859B0C          0x800FCF70      f
hash_65B73A17_7E2889B1          0x800FD040      f
hash_199A3DDF_9B731D8D          0x800FD140      f
_ZN6dWmLib17IsKinopioInChukanEv 0x800FD1B0      f
_ZN6dWmLib26RestoreKinopioHelpGameInfoEv 0x800FD1C0 f
hash_EE9D55BD_ECFDD8CF          0x800FD230      f
_ZN6dWmLib24getSpecialWorldMessageIdEi 0x800FD240 f
_ZN6dWmLib18getWorldBossProfIDEi 0x800FD290     f
_ZN6dWmLib17savePlayerPosInfoEv 0x800FD300      f
_ZN6dWmLib13IsAllCompleteEv     0x800FD3F0      f
_ZN6dWmLib14IsKoopaJrEventEii   0x800FD420      f
_ZN6dWmLib9isYokoConEi          0x800FD4A0      f
_ZN6dWmLib16isCourseCompleteEii 0x800FD4C0      f
__sinit_\d_wm_lib_cpp           0x800FD610      f
__arraydtor$53530               0x800FD680      f
_ZN13dWmMaterial_c10initializeERKN3m3d5mdl_cE 0x800FD6A0 f
_ZN13dWmMaterial_c15MakeMatNameListERKN3m3d5mdl_cE 0x800FD740 f
_ZN13dWmMaterial_c10GetMatNameEi 0x800FD830     f
_ZN13dWmMaterial_c15isMaterialExistEPKc 0x800FD860 f
_ZN13dWmObjActor_c13GetOpenStatusEv 0x800FD8F0  f
_ZN13dWmObjActor_c14GetClearStatusEv 0x800FD910 f
_ZN13dWmObjActor_c26GetCurrentPlayResultStatusEv 0x800FD930 f
_ZN13dWmObjActor_c18IsCourseOmoteClearEv 0x800FD950 f
_ZN13dWmObjActor_c16IsCourseUraClearEv 0x800FD970 f
_ZN13dWmObjActor_c20IsCourseOtasukeClearEv 0x800FD990 f
_ZN13dWmObjActor_c13IsCourseClearEv 0x800FD9B0  f
_ZN13dWmObjActor_c23IsCourseFirstOmoteClearEv 0x800FD9D0 f
_ZN13dWmObjActor_c21IsCourseFirstUraClearEv 0x800FD9F0 f
_ZN13dWmObjActor_c14IsCourseFailedEv 0x800FDA10 f
_ZN13dWmObjActor_c18IsCourseFirstClearEv 0x800FDA30 f
_ZN13dWmObjActor_c26IsCourseOtasukeClearSimpleEv 0x800FDA50 f
_ZN13dWmObjActor_c24IsCourseOmoteClearSimpleEv 0x800FDA70 f
_ZN13dWmObjActor_c22IsCourseUraClearSimpleEv 0x800FDA90 f
_ZN13dWmObjActor_c29IsCourseUraOtasukeClearSimpleEv 0x800FDAB0 f
__sinit_\d_wm_obj_actor_cpp     0x800FDAD0      f
__arraydtor$57873               0x800FDB40      f
_ZN9dWmPath_cC1Ev               0x800FDB60      f
_ZN9dWmPath_cD0Ev               0x800FDBD0      f
_ZN15dWmPlayerBase_c17checkArriveSimpleERK7mVec3_ci 0x800FDC40 f
_ZN15dWmPlayerBase_c17checkArriveTargetERK7mVec3_cRK7mVec3_cN15dWmPlayerBase_c10MoveType_eE 0x800FDD40 f
_ZN15dWmPlayerBase_c21checkWalkArriveTargetERK7mVec3_cRK7mVec3_c 0x800FDD70 f
_ZN15dWmPlayerBase_c21checkJumpArriveTargetERK7mVec3_cRK7mVec3_c 0x800FDD80 f
_ZN15dWmPlayerBase_c12deleteEffectEv 0x800FDD90 f
_ZN15dWmPlayerBase_c11deleteSoundEv 0x800FDE00  f
hash_A7845675_D218A0D3          0x800FDE50      f
_ZN15dWmPlayerBase_c12procDemoLoseEv 0x800FDE70 f
hash_16A9A244_ACB48A62          0x800FE020      f
_ZN15dWmPlayerBase_c14isNormalCourseEv 0x800FE050 f
_ZN15dWmPlayerBase_c9calcSpeedEiif 0x800FE0A0   f
__sinit_\d_wm_player_base_cpp   0x800FE0B0      f
__arraydtor$67275               0x800FE120      f
_ZN13dWmViewClip_c3setEffffRK6mMtx_c 0x800FE140 f
_ZN13dWmViewClip_c15CheckClipSphereEPK9mSphere_c 0x800FE150 f
_ZN6dWorld8getHeadPEv           0x800FE160      f
_ZN6dWorld4linkEv               0x800FE170      f
_ZN6dWorld6unlinkEv             0x800FE220      f
_ZN6dWorld8doDeleteEv           0x800FE2D0      f
_ZN11dYoshiMdl_cC1Eh            0x800FE2E0      f
_ZN11dYoshiMdl_c14nodeCallback_cD0Ev 0x800FE3B0 f
_ZN11dYoshiMdl_cD0Ev            0x800FE3F0      f
_ZN11dYoshiMdl_c11createModelEv 0x800FE470      f
_ZN11dYoshiMdl_c10initializeEv  0x800FE4C0      f
_ZN11dYoshiMdl_c10getBodyMdlEv  0x800FE500      f
_ZN11dYoshiMdl_c18getPlayerObjectResEv 0x800FE510 f
_ZN11dYoshiMdl_c17createPlayerModelEv 0x800FE670 f
_ZN11dYoshiMdl_c5_calcEv        0x800FE870      f
_ZN11dYoshiMdl_c5calc2Ev        0x800FE940      f
_ZN11dYoshiMdl_c4playEv         0x800FEA00      f
_ZN11dYoshiMdl_c4drawEv         0x800FEAF0      f
_ZN11dYoshiMdl_c6setAnmEifff    0x800FEBA0      f
_ZN11dYoshiMdl_c14setPersonalAnmEiPN4nw4r3g3d9ResAnmChrEi 0x800FEBB0 f
_ZN11dYoshiMdl_c11_setFootAnmERN4nw4r3g3d9ResAnmChrEN3m3d10playMode_eEfff 0x800FEC50 f
_ZN11dYoshiMdl_c11_setBodyAnmERN4nw4r3g3d9ResAnmChrEN3m3d10playMode_eEfff 0x800FED20 f
_ZN11dYoshiMdl_c14releaseBodyAnmEf 0x800FEEE0   f
_ZN11dYoshiMdl_c10setAnmBindEv  0x800FEFE0      f
_ZN11dYoshiMdl_c8setFrameEf     0x800FF110      f
_ZN11dYoshiMdl_c12setBodyFrameEf 0x800FF170     f
_ZN11dYoshiMdl_c7setRateEf      0x800FF1D0      f
_ZN11dYoshiMdl_c11setBodyRateEf 0x800FF230      f
_ZN11dYoshiMdl_c15getFootAnmTransEP7mVec3_cPKc 0x800FF290 f
_ZNK11dYoshiMdl_c13getAnmResFileEv 0x800FF320   f
_ZN11dYoshiMdl_c14nodeCallback_c7timingAEmPN4nw4r3g3d12ChrAnmResultEN4nw4r3g3d6ResMdlE 0x800FF340 f
_ZN11dYoshiMdl_c14nodeCallback_c7timingBEmPN4nw4r3g3d13WorldMtxManipEN4nw4r3g3d6ResMdlE 0x800FF430 f
_ZN11dYoshiMdl_c11getJointMtxEP6mMtx_ci 0x800FF6A0 f
_ZN11dYoshiMdl_c12getTonguePosEv 0x800FF770     f
_ZN11dYoshiMdl_c15getTongueTipMtxEv 0x800FF790  f
_ZN11dYoshiMdl_c17setTongueJointMtxEiPK6mMtx_c 0x800FF7B0 f
_ZN11dYoshiMdl_c17getTongueJointMtxEi 0x800FF7C0 f
_ZN11dYoshiMdl_c20setTongueJointMtxBufEiPK6mMtx_c 0x800FF7D0 f
_ZN11dYoshiMdl_c20getTongueJointMtxBufEi 0x800FF840 f
_ZN11dYoshiMdl_c17setTongueBendCalcEv 0x800FF850 f
_ZN11dYoshiMdl_c15updateTongueMtxEv 0x800FFB60  f
_ZN11dYoshiMdl_c16setTongueBgCheckEv 0x800FFD50 f
_ZN11dYoshiMdl_c16setTongueCcCheckEf 0x800FFEC0 f
_ZN11dYoshiMdl_c14setFunbariRateEf 0x800FFF30   f
_ZNK11dYoshiMdl_c15getFaceJointIdxEv 0x800FFF70 f
hash_566C4308_68DBE9AB          0x800FFF80      f
hash_7C67545C_500FCB9B          0x80100060      f
hash_FBEF60B2_8440CD1F          0x801000A0      f
__sinit_\d_stage_field_cpp      0x801000D0      f
_ZN9daFarBG_c8CreateBGEv        0x801000F0      f
_ZN9daWmMap_c14GetNextSceneNoEiPc 0x80100140    f
_ZN9daWmMap_c6GetPosEi          0x80100310      f
_ZN9daWmMap_c6GetPosEPKc        0x80100380      f
_ZN9daWmMap_c8GetIndexEPKc      0x801003D0      f
_ZN9daWmMap_c8GetIndexEPKci     0x801003E0      f
_ZN9daWmMap_c17GetStartPointNameEv 0x80100400   f
hash_1A715627_07CFCCCC          0x801004A0      f
_ZN9daWmMap_c14GetNodeTreeNumEPKc 0x80100540    f
_ZN9daWmMap_c14GetChildNodeIDEPKci 0x801005C0   f
hash_6954B07D_895E50A6          0x80100640      f
hash_5C65BA4A_5035DAA7          0x801006D0      f
_ZN9daWmMap_c10GetNodePosElR7mVec3_c 0x801007D0 f
_ZN9daWmMap_c10GetNodePosEPKcR7mVec3_c 0x801007F0 f
_ZN9daWmMap_c9CheckNodeEPKc     0x80100810      f
hash_3A1E464D_706A54E6          0x80100830      f
__sinit_\d_a_wm_Map_static_cpp  0x80100940      f
__arraydtor$57873               0x801009F0      f
_ZN12daWmPlayer_c16checkWalkPlayersEv 0x80100A10 f
_ZN12daWmPlayer_c15getSubPlayerNumEv 0x80100A50 f
_ZN12daWmPlayer_c15getWalkEffectIdEi 0x80100A80 f
hash_543BDF27_920CF12F          0x80100B10      f
hash_2B2AB9A3_C364CC8B          0x80100B60      f
_ZN12daWmPlayer_c18getLandingEffectIdEi 0x80100BB0 f
_ZN12daWmPlayer_c18getCourseInVoiceIdEi 0x80100C50 f
hash_EAADF840_17D72988          0x80100CE0      f
hash_878D3A2A_BD5DC4A2          0x80100DB0      f
_ZN12daWmPlayer_c13getWipeCenterEv 0x80100EA0   f
_ZN12daWmPlayer_c13getWipeCenterERK7mVec3_c 0x80100EB0 f
hash_E3DBCCD4_812B952A          0x80101080      f
hash_2BAD7B7E_4CCC349D          0x801010A0      f
_ZN12daWmPlayer_c20startLastBridgeMotorEv 0x80101180 f
_ZN12daWmPlayer_c16startBridgeMotorEv 0x80101190 f
_ZN12daWmPlayer_c16isPlayerStarModeEv 0x801011A0 f
_ZN12daWmPlayer_c21checkOtherWaitAntlionEv 0x801011C0 f
_ZN12daWmPlayer_c14startStarSoundEv 0x80101220  f
_ZN12daWmPlayer_c17setEnemyDieByStarEP10dWmEnemy_c 0x80101280 f
_ZN12daWmPlayer_c14attackMapEnemyEb 0x80101340  f
_ZN12daWmPlayer_c19isWalkToAttackPointEv 0x80101400 f
__sinit_\d_a_wm_player_static_cpp 0x80101540    f
__arraydtor$62843               0x80101690      f
_ZN11dCsSeqMng_c11GetCutDataPEv 0x801016B0      f
_ZN11dCsSeqMng_c10GetCutNameEv  0x801016F0      f
_ZN11dCsSeqMng_c10GetCutArg0Ev  0x80101740      f
_ZN11dCsSeqMng_c7order_c4initEv 0x80101780      f
hash_9B3838C4_6CFEAB03          0x801017A0      f
hash_19CE912D_FAA77B9E          0x801017C0      f
__sinit_\d_cs_seq_mng_static_cpp 0x80101830     f
__arraydtor$62900               0x801018A0      f
_Z13dProf_getNamet              0x801018C0      f
_ZN17dScRestartCrsin_c10startTitleEhb 0x801018E0 f
_ZN17dScRestartCrsin_c18reStartPeachCastleEv 0x801019D0 f
_ZN10dScStage_c9setCameraEiP9dCamera_c 0x80101A50 f
_ZN10dScStage_c9getCameraEi     0x80101A60      f
_ZN10dScStage_c14getGameDisplayEv 0x80101A70    f
_ZN10dScStage_c11setLoopTypeEv  0x80101AA0      f
_ZN10dScStage_c11getLoopPosXEf  0x80101BB0      f
_ZN10dScStage_c16setChangePosFuncEi 0x80101CD0  f
_ZN10dScStage_c15changePosNormalEP7mVec3_c 0x80101CF0 f
_ZN10dScStage_c14changePosLoop1EP7mVec3_c 0x80101D00 f
_ZN10dScStage_c17addUnitTexArcListEPc 0x80101D70 f
_ZN10dScStage_c20deleteUnitTexArcListEv 0x80101DF0 f
_ZN10dScStage_c16addObjectArcListEPKc 0x80101E50 f
_ZN10dScStage_c19deleteObjectArcListEv 0x80101ED0 f
_ZN10dScStage_c18addObjectArcListExEPKc 0x80101F30 f
_ZN10dScStage_c21deleteObjectArcListExEv 0x80101FB0 f
_ZN10dScStage_c17addBossEffResListEi 0x80102010 f
_ZN10dScStage_c20deleteBossEffResListEv 0x80102060 f
hash_8EAB06A9_461BCD95          0x801020E0      f
_ZN10dScStage_c19createReplayPlay_chEPN3EGG4HeapEN4mPad4CH_eE 0x80102100 f
_ZN10dScStage_c19deleteReplayPlay_chEN4mPad4CH_eE 0x80102170 f
_ZN10dScStage_c16deleteReplayPlayEv 0x80102200  f
_ZN10dScStage_c4playEv          0x80102250      f
_ZN10dScStage_c11isNowReplayEv  0x801022C0      f
_ZN10dScStage_c20createReplayDataHeapEPN3EGG4HeapEmi 0x801022E0 f
_ZN10dScStage_c9ReplayEndEv     0x80102330      f
_ZN10dScStage_c12setNextSceneEtiN10dScStage_c6Exit_eEN8dFader_c12fader_type_eE 0x80102370 f
_ZN10dScStage_c16createReplayPathEPcPKciii 0x801025B0 f
_ZN10dScStage_c20calcTitleSwitchCountEv 0x80102690 f
_ZN10dScStage_c14calcTitleCountEv 0x801026B0    f
_ZN10dScStage_c25setTitleReplayRandomTableEv 0x801026D0 f
__sinit_\d_s_stage_static_cpp   0x801026E0      f
__arraydtor$78728               0x80102750      f
_ZN9dScWMap_c9setCameraEiP10dWCamera_c 0x80102770 f
_ZN9dScWMap_c18setWorldMapArcNameEhPc 0x80102780 f
hash_B4830656_E358852F          0x801027A0      f
_ZN9dScWMap_c13SetCourseTypeEiiN9dScWMap_c12CourseType_eE 0x801027E0 f
_ZN9dScWMap_c18SetCourseTypeForceEiiN9dScWMap_c12CourseType_eE 0x80102810 f
_ZN9dScWMap_c17SetWorldCourseNumEii 0x80102840  f
_ZN9dScWMap_c12IsCourseTypeEiiN9dScWMap_c12CourseType_eE 0x80102860 f
_ZN9dScWMap_c8initGameEv        0x801028A0      f
_ZN9dScWMap_c14UpdateStarInfoEv 0x801028D0      f
_ZN9dScWMap_c15CreateBootParamEv 0x80102B50     f
hash_EB02EC4F_5DA89449          0x80102B70      f
_ZN9dScWMap_c12initLoadGameEv   0x80102B90      f
__sinit_\d_s_world_map_static_cpp 0x80102D20    f
__arraydtor$65837               0x80102D90      f
_ZN12dWmBgmSync_c7executeEv     0x80102DB0      f
_ZN12dWmBgmSync_c10getAnmRateEf 0x80102EC0      f
hash_62041090_F2DEEBF6          0x80102F10      f
__sinit_\d_wm_bgm_sync_cpp      0x80102F90      f
__arraydtor$53530               0x80103000      f
_ZN18dWmEffectManager_c9constructEv 0x80103020  f
_ZN18dWmEffectManager_c13EffectParam_tC1Ev 0x801030A0 f
_ZN18dWmEffectManager_c13EffectParam_tD0Ev 0x80103110 f
_ZN18dWmEffectManager_c7destroyEv 0x801031A0    f
_ZN18dWmEffectManager_cD0Ev     0x801031F0      f
_ZN18dWmEffectManager_c10initializeEv 0x80103260 f
_ZN18dWmEffectManager_c7executeEv 0x801032C0    f
_ZN18dWmEffectManager_c18createFollowEffectEi 0x80103330 f
hash_4FB4D66B_54E8B332          0x80103420      f
hash_85800D4A_8A55DA47          0x801034A0      f
hash_DBE8BDAF_AFC9F436          0x80103520      f
hash_9D9CA64C_AEB0B4CF          0x80103530      f
hash_A0C7F309_C9F0D117          0x80103550      f
_ZN18dWmEffectManager_c9endEffectEi 0x801035F0  f
_ZN18dWmEffectManager_c18getEmptyEffectSlotEv 0x80103610 f
hash_0D87DA53_523585B7          0x80103690      f
__sinit_\d_wm_effectManager_cpp 0x80103840      f
__arraydtor$53819               0x801038B0      f
_ZN12dWmRotater_c10calcRotateEv 0x801038D0      f
_ZN12dWmRotater_c14calcRotateCoreEv 0x80103950  f
hash_30B29AAE_02086E65          0x80103A00      f
_ZN12dWmRotater_c12setAmplitudeEf 0x80103B20    f
_ZN12dWmRotater_c9setOffsetEf   0x80103B30      f
__sinit_\d_wm_rotater_cpp       0x80103B40      f
__arraydtor$53530               0x80103BB0      f
_ZN17dWmRouteManager_cC1Ev      0x80103BD0      f
_ZN17dWmRouteManager_cD0Ev      0x80103C10      f
_ZN17dWmRouteManager_c9calculateEv 0x80103C50   f
_ZN17dWmRouteManager_c13getCurrentPosEv 0x80103D90 f
_ZN17dWmRouteManager_c11getStartPosEv 0x80103DA0 f
_ZN17dWmRouteManager_c11getStartDirEv 0x80103DB0 f
_ZN17dWmRouteManager_c11getLengthToERK7mVec3_c 0x80103E40 f
hash_27F584E6_FD5C6B5A          0x80103E50      f
_ZN17dWmRouteManager_c12updateEndPosERK7mVec3_c 0x80103EA0 f
_ZN17dWmRouteManager_c12updateEndPosEi 0x80103EC0 f
_ZN17dWmRouteManager_c10resetRouteEv 0x80103F30 f
_ZN14dWmSeManager_c9constructEv 0x80103F50      f
_ZN14dWmSeManager_c9SeParam_tC1Ev 0x80103FD0    f
_ZN14dWmSeManager_c9SeParam_tD0Ev 0x80103FE0    f
_ZN14dWmSeManager_c7destroyEv   0x80104020      f
_ZN6dAudio15SndObjctCSPly_cD0Ev 0x80104160      f
_ZN14dWmSeManager_cD0Ev         0x801041E0      f
_ZN14dWmSeManager_c10initializeEv 0x80104250    f
_ZN14dWmSeManager_c7executeEv   0x801046B0      f
_ZN14dWmSeManager_c10calcHoldSeEi 0x80104DD0    f
_ZN6dAudio15SndObjctCSPly_c9holdSoundEmsm 0x801050C0 f
_ZN6dAudio15SndObjctCSPly_c9holdSoundEmm 0x801050D0 f
hash_A247823A_11216C9D          0x801050E0      f
hash_2AE90F90_37E959A7          0x80105170      f
_ZN6dAudio15SndObjctCSPly_c10startSoundEmm 0x801052C0 f
hash_E5CF6FD6_8EC8E22A          0x801052D0      f
hash_772251B2_9C05F5F4          0x801052E0      f
hash_6F0FC593_07A80AC1          0x80105350      f
hash_003163C6_34390AEB          0x80105480      f
hash_BEA42F1B_886986FA          0x80105520      f
hash_31448798_53B4A143          0x80105550      f
hash_4F71DEA7_120CF213          0x80105590      f
hash_28E0771E_44D4A582          0x80105640      f
_ZN14dWmSeManager_c8endSoundEi  0x801056E0      f
_ZN14dWmSeManager_c18getEmptyHoldSeSlotEv 0x80105700 f
hash_4B19E470_F042455D          0x801057D0      f
hash_E58A6122_A894BE6F          0x80105B30      f
hash_7B908CDA_7AD9847D          0x80105BC0      f
hash_7AF0FD81_A5C6CF6F          0x80105C50      f
hash_A16A93C1_08A9F64F          0x80105CA0      f
hash_7BCE36F0_8F93CAFD          0x80105D20      f
hash_5D5A5E69_961B0084          0x80105FF0      f
_ZN6dAudio15SndObjctCSPly_c10startSoundEmsm 0x80106040 f
__sinit_\d_wm_seManager_cpp     0x80106050      f
__arraydtor$54686               0x801060C0      f
_ZN11dWmSpline_cC1Eiif          0x801060E0      f
_ZN11dWmSpline_c14tagSegmentInfoD0Ev 0x801062A0 f
_ZN11dWmSpline_cD0Ev            0x80106310      f
_ZN11dWmSpline_c8setPointEiRK7mVec3_c 0x80106390 f
_ZN11dWmSpline_c4calcEv         0x801063C0      f
_ZN11dWmSpline_c15calcSplinePointERKN11dWmSpline_c14tagSegmentInfoEf 0x80106730 f
_ZN11dWmSpline_c16createDummyPointEv 0x801069C0 f
_ZN11dWmSpline_c15getThroughPointEi 0x80106C20  f
_ZN11dWmSpline_c16calcCurrentPointEf 0x80106C50 f
_ZN11dWmSpline_c11getLengthToERK7mVec3_c 0x80106D80 f
_ZN11dWmSpline_c16setStartControllERK7mVec3_c 0x80106E20 f
_ZN11dWmSpline_c14setEndControllERK7mVec3_c 0x80106E40 f
__sinit_\d_world_camera_static_cpp 0x80106E70   f
__arraydtor$61609               0x80106EE0      f
_ZN13dRomFontMgr_c14createInstanceEPN3EGG4HeapE 0x80106F00 f
_ZN13dRomFontMgr_c13load_resourceEPN3EGG4HeapE 0x80106F70 f
_ZN10TextWriterC1Ev             0x80106FF0      f
hash_A7C33FF9_119556CB          0x80107090      f
_ZN10TextWriter11SetFontSizeEff 0x801070B0      f
_ZN10TextWriter5BeginEv         0x801070D0      f
_ZN10TextWriter3EndEv           0x80107130      f
_ZN10TextWriter5PrintEPKcz      0x80107160      f
_ZN10TextWriter8CalcRectEPKcz   0x80107280      f
_ZNK14TextWriterBase10GetCursorYEv 0x801073C0   f
_ZNK14TextWriterBase10GetCursorXEv 0x801073D0   f
_ZN14TextWriterBase9SetCursorEff 0x801073E0     f
_ZN25@unnamed@d_dvd_error_cpp@17callbackCheckDiskElP15DVDCommandBlock 0x801073F0 f
_ZN25@unnamed@d_dvd_error_cpp@19startCheckDiskAsyncEv 0x80107400 f
_ZN25@unnamed@d_dvd_error_cpp@13waitCheckDiskEv 0x80107450 f
_ZN9dDvdErr_cC1Ev               0x80107470      f
_ZN9dDvdErr_c14createInstanceEPN3EGG4HeapE 0x801074C0 f
_ZN9dDvdErr_c10initializeEPPKcPKN4nw4r2ut7ResFontEPN3EGG4HeapE 0x80107520 f
_ZN9dDvdErr_c4drawEv            0x80107570      f
_ZN9dDvdErr_c7executeEv         0x801077C0      f
_ZN9dDvdErr_c14isErrorOccuredEv 0x80107960      f
_ZN9dDvdErr_c28isIdentificationErrorOccuredEv 0x80107970 f
_ZN18dDvdErrorWideMsg_cC1Ev     0x801079A0      f
_ZN18dDvdErrorWideMsg_c10initializeEPPKc 0x80107A30 f
hash_5668E6BD_8D69A5CA          0x80107AC0      f
hash_39103005_6B6BB680          0x80107AF0      f
hash_5CFD8557_90170386          0x80107BC0      f
_ZN13LangLocStringC1Ev          0x80107BE0      f
_ZN7LangLocC1Ev                 0x80107D80      f
hash_9D424DC1_3668A152          0x80107DA0      f
_ZN6dReset8Manage_c14CreateInstanceEPN3EGG4HeapE 0x80107FD0 f
_ZN6dReset8Manage_c11GetInstanceEv 0x80108020   f
_ZN6dReset8Manage_cC1EPN3EGG4HeapE 0x80108030   f
_ZN6dReset8Manage_c9ConfigureEv 0x801080D0      f
_ZN6dReset8Manage_c5ResetEv     0x80108180      f
_ZN6dReset8Manage_c9CalculateEv 0x80108200      f
_ZN6dReset8Manage_c4DrawEv      0x80108240      f
_ZN6dReset8Manage_c12BootCompleteEv 0x80108260  f
_ZN6dReset8Manage_c16ActiveSaveWindowEb 0x80108270 f
_ZN6dReset8Manage_c15PermitSoftResetEb 0x80108280 f
_ZNK6dReset8Manage_c16CanExecSoftResetEv 0x80108290 f
_ZN6dReset8Manage_c18SetSoftResetFinishEv 0x80108340 f
_ZN6dReset8Manage_c17SetSoftResetSceneEv 0x80108370 f
_ZN6dReset8Manage_c15PostDeleteSceneEv 0x801083E0 f
_ZNK6dReset8Manage_c12IsFaderBlankEv 0x80108440 f
_ZNK3EGG10ColorFader9getStatusEv 0x80108480     f
_ZN6dReset8Manage_c16SetHbmReturnMenuEv 0x80108490 f
_ZN6dReset8Manage_c11SetHbmResetEv 0x801084A0   f
_ZN6dReset8Manage_c13SetDelayResetEv 0x801084B0 f
_ZN6dReset8Manage_c16SetDelayPowerOffEv 0x801084C0 f
_ZN6dReset8Manage_c28SetInteriorReturnDataManagerEv 0x801084D0 f
_ZN6dReset8Manage_c11ExecProcPreEv 0x801084E0   f
_ZN6dReset8Manage_c12ExecProcMainEv 0x80108530  f
_ZN6dReset8Manage_c20DiskCheckModeRequestEv 0x80108580 f
_ZN6dReset8Manage_c14DebugPrintModeEPKc 0x801085E0 f
_ZN6dReset8Manage_c8ModeProcEv  0x801085F0      f
_ZN6dReset8Manage_c11ModeRequestEN6dReset8Manage_c6Mode_eE 0x80108770 f
_ZN6dReset8Manage_c21ModeRequestSafetyWaitEN6dReset8Manage_c6Exec_eE 0x80108780 f
_ZN6dReset8Manage_c20ModeRequestSoftResetEv 0x801087C0 f
_ZN6dReset8Manage_c15ModeInit_NormalEv 0x80108800 f
_ZN6dReset8Manage_c15ModeProc_NormalEv 0x80108840 f
_ZN6dReset8Manage_c18ModeInit_SoftResetEv 0x80108880 f
_ZN17dWarningManager_c15clsWarningCheckEv 0x801088F0 f
_ZN6dReset8Manage_c18ModeProc_SoftResetEv 0x80108900 f
_ZN6dReset8Manage_c16ModeInit_HbmWaitEv 0x80108970 f
_ZN6dReset8Manage_c16ModeProc_HbmWaitEv 0x80108980 f
_ZN6dReset8Manage_c17ModeInit_DiskWaitEv 0x80108B10 f
_ZN6dReset8Manage_c17ModeProc_DiskWaitEv 0x80108B20 f
_ZN6dReset8Manage_c19ModeInit_FatalErrorEv 0x80108BB0 f
_ZN6dReset8Manage_c19ModeProc_FatalErrorEv 0x80108BF0 f
_ZN6dReset8Manage_c19ModeInit_SafetyWaitEv 0x80108C00 f
_ZN6dReset8Manage_c19ModeProc_SafetyWaitEv 0x80108C40 f
_ZN6dReset8Manage_c16SetResetCallbackEv 0x80108CF0 f
_ZN6dReset8Manage_c16SetPowerCallbackEv 0x80108D00 f
_ZN6dReset8Manage_c13ResetCallbackEv 0x80108D10 f
_ZN6dReset8Manage_c13PowerCallbackEv 0x80108D40 f
_ZN6dReset8Manage_c9CleanUpGXEv 0x80108D70      f
_ZN6dReset8Manage_c9CleanUpLCEv 0x80108E00      f
_ZN6dReset8Manage_c13MotorCancelOnEv 0x80108E10 f
_ZN6dReset8Manage_c14MotorCancelOffEv 0x80108E70 f
_ZN6dReset8Manage_c14FadeOutRequestEv 0x80108E80 f
_ZN6dReset8Manage_c11FadeOutCalcEv 0x80108E90   f
_ZN6dReset8Manage_c13FadeOutCancelEv 0x80108F90 f
_ZN6dReset8Manage_c12IsFatalErrorEv 0x80108FB0  f
_ZN6dReset8Manage_c11IsDiskErrorEv 0x80109000   f
__sinit_\d_reset_cpp            0x80109010      f
_ZN19@unnamed@d_hbm_cpp@18allocCaptureBufferEv 0x80109020 f
_ZN19@unnamed@d_hbm_cpp@17freeCaptureBufferEPN3EGG13TextureBufferE 0x80109040 f
_ZN19@unnamed@d_hbm_cpp@20captureCaptureBufferEPN3EGG13TextureBufferE 0x80109050 f
_ZN19@unnamed@d_hbm_cpp@17drawCaptureBufferEPKN3EGG13TextureBufferERK6mColor 0x80109080 f
_ZN19@unnamed@d_hbm_cpp@18captureFrameBufferEv 0x80109370 f
_ZN19@unnamed@d_hbm_cpp@20cleanupCaptureBufferEv 0x801093B0 f
_ZN19@unnamed@d_hbm_cpp@17drawCaptureBufferERK6mColor 0x801093F0 f
_ZN4dHbm8Manage_c14CreateInstanceEPN3EGG4HeapE 0x80109400 f
_ZN4dHbm8Manage_c11GetInstanceEv 0x80109450     f
_ZN4dHbm8Manage_cC1EPN3EGG4HeapE 0x80109460     f
_ZN4dHbm8Manage_c4LoadEv        0x80109590      f
_ZN4dHbm8Manage_c9CalculateEv   0x80109770      f
_ZN4dHbm8Manage_c8DrawMenuEv    0x80109840      f
_ZN4dHbm8Manage_c15DrawMenuSettingEv 0x80109890 f
_ZN4dHbm8Manage_c8DrawIconEv    0x80109900      f
_ZN4dHbm8Manage_c12InitDataInfoEv 0x80109A60    f
_ZN4dHbm8Manage_c18InitControllerDataEv 0x80109B50 f
_ZN4dHbm8Manage_c19SetRegionLayoutNameEv 0x80109B60 f
_ZN4dHbm8Manage_c14SetSpkNameNameEv 0x80109BE0  f
_ZN4dHbm8Manage_c10SetMsgNameEv 0x80109BF0      f
_ZN4dHbm8Manage_c13SetConfigNameEv 0x80109C00   f
_ZN4dHbm8Manage_c11SetIconNameEv 0x80109C10     f
_ZN4dHbm8Manage_c12SetSoundNameEv 0x80109C20    f
_ZN4dHbm8Manage_c11SetContDataEv 0x80109C30     f
_ZNK4dHbm8Manage_c10CheckBeginEv 0x80109D10     f
_ZN4dHbm8Manage_c8MenuInitEv    0x80109D90      f
_ZN4dHbm8Manage_c8MenuCalcEv    0x80109E20      f
_ZN4dHbm8Manage_c8IconInitEv    0x80109F80      f
_ZN4dHbm8Manage_c8IconCalcEv    0x80109FD0      f
_ZN4dHbm8Manage_c9IconClearEv   0x8010A120      f
_ZN4dHbm8Manage_c9StopMotorEv   0x8010A140      f
hash_58221C0B_6C1B8B4F          0x8010A1A0      f
_ZN4dHbm8Manage_c10ForbidCalcEv 0x8010A200      f
_ZN6dNitro14GetUnitColorC0Ev    0x8010A3D0      f
_ZN6dNitro14GetUnitColorC1Ev    0x8010A460      f
hash_2F5F4D50_88BC8FB0          0x8010A4F0      f
_ZN6dNitro14drawBg2_sub_exEmmm  0x8010A7D0      f
_ZN6dNitro15drawBg2_sub_ex2Emfff 0x8010A8C0     f
_ZN6dNitro15drawBg2_sub_ex4Emfffi 0x8010A9B0    f
_ZN6dNitro17drawBg2_drawSetupEPvPvPvb 0x8010AAC0 f
_ZN6dNitro19drawBg2_drawCleanupEv 0x8010AB40    f
_ZN6dNitro17drawBg2_drawBeginEm 0x8010AB50      f
_ZN6dNitro17drawBg2_drawPanelEmmm 0x8010AB70    f
_ZN6dNitro20drawBg2_drawPanelObjEmfff 0x8010AB80 f
_ZN6dNitro25drawBg2_drawPanelObjPartsEmfffi 0x8010AB90 f
_ZN6dNitro15drawBg2_drawEndEv   0x8010ABA0      f
_ZN6dNitro23drawBg2_setupAnimePanelEv 0x8010ABB0 f
_ZN6dNitro25drawBg2_cleanupAnimePanelEv 0x8010ADD0 f
_ZN6dNitro24drawBg2_updateAnimePanelEPvmPvm 0x8010AE10 f
__sinit_\d_nitro_bg2_cpp        0x8010B000      f
_Z24dGoalManager_c_classInitv   0x8010B050      f
_ZN14dGoalManager_cC1Ev         0x8010B080      f
_ZN9sFState_cI14dGoalManager_cED0Ev 0x8010B120  f
_ZN12sFStateFct_cI14dGoalManager_cED0Ev 0x8010B160 f
_ZN11sStateMgr_cI14dGoalManager_c20sStateMethodUsr_FI_c12sFStateFct_c13sStateIDChk_cED0Ev 0x8010B1A0 f
_ZN12sFStateMgr_cI14dGoalManager_c20sStateMethodUsr_FI_cED0Ev 0x8010B200 f
_ZN14dGoalManager_cD0Ev         0x8010B270      f
_ZN14dGoalManager_c6createEv    0x8010B2F0      f
_ZN14dGoalManager_c7executeEv   0x8010B300      f
_ZN11sStateMgr_cI14dGoalManager_c20sStateMethodUsr_FI_c12sFStateFct_c13sStateIDChk_cE12executeStateEv 0x8010B330 f
_ZN14dGoalManager_c4drawEv      0x8010B340      f
_ZN14dGoalManager_c8doDeleteEv  0x8010B350      f
_ZN14dGoalManager_c25initializeState_StartWaitEv 0x8010B360 f
_ZN14dGoalManager_c22executeState_StartWaitEv 0x8010B370 f
_ZN11sStateMgr_cI14dGoalManager_c20sStateMethodUsr_FI_c12sFStateFct_c13sStateIDChk_cE11changeStateERK12sStateIDIf_c 0x8010B3A0 f
_ZN14dGoalManager_c23finalizeState_StartWaitEv 0x8010B3B0 f
_ZN14dGoalManager_c33initializeState_KiMePoseStartWaitEv 0x8010B3C0 f
_ZN14dGoalManager_c30executeState_KiMePoseStartWaitEv 0x8010B3D0 f
_ZN14dGoalManager_c31finalizeState_KiMePoseStartWaitEv 0x8010B460 f
_ZN14dGoalManager_c24initializeState_KiMePoseEv 0x8010B470 f
_ZN14dGoalManager_c21executeState_KiMePoseEv 0x8010B480 f
_ZN14dGoalManager_c22finalizeState_KiMePoseEv 0x8010B510 f
_ZN14dGoalManager_c30initializeState_MessageOnStageEv 0x8010B520 f
_ZN14dGoalManager_c27executeState_MessageOnStageEv 0x8010B530 f
_ZN14dGoalManager_c28finalizeState_MessageOnStageEv 0x8010B5D0 f
_ZN14dGoalManager_c25initializeState_ScoreCalcEv 0x8010B5E0 f
_ZN14dGoalManager_c22executeState_ScoreCalcEv 0x8010B5F0 f
_ZN14dGoalManager_c23finalizeState_ScoreCalcEv 0x8010B610 f
_ZN14dGoalManager_c27initializeState_MessageDispEv 0x8010B620 f
_ZN14dGoalManager_c24executeState_MessageDispEv 0x8010B630 f
_ZN14dGoalManager_c25finalizeState_MessageDispEv 0x8010B660 f
_ZN14dGoalManager_c27initializeState_MessageExitEv 0x8010B670 f
_ZN14dGoalManager_c24executeState_MessageExitEv 0x8010B680 f
_ZN14dGoalManager_c25finalizeState_MessageExitEv 0x8010B6F0 f
_ZN14dGoalManager_c25initializeState_ClearWaitEv 0x8010B700 f
_ZN14dGoalManager_c22executeState_ClearWaitEv 0x8010B7B0 f
_ZN14dGoalManager_c23finalizeState_ClearWaitEv 0x8010B7C0 f
_ZN12sFStateFct_cI14dGoalManager_cE5buildERK12sStateIDIf_c 0x8010B7D0 f
_ZN12sFStateFct_cI14dGoalManager_cE7disposeERP10sStateIf_c 0x8010B830 f
_ZN9sFState_cI14dGoalManager_cE10initializeEv 0x8010B840 f
_ZN9sFState_cI14dGoalManager_cE7executeEv 0x8010B860 f
_ZN9sFState_cI14dGoalManager_cE8finalizeEv 0x8010B880 f
_ZN11sStateMgr_cI14dGoalManager_c20sStateMethodUsr_FI_c12sFStateFct_c13sStateIDChk_cE15initializeStateEv 0x8010B8A0 f
_ZN11sStateMgr_cI14dGoalManager_c20sStateMethodUsr_FI_c12sFStateFct_c13sStateIDChk_cE13finalizeStateEv 0x8010B8B0 f
_ZN11sStateMgr_cI14dGoalManager_c20sStateMethodUsr_FI_c12sFStateFct_c13sStateIDChk_cE12refreshStateEv 0x8010B8C0 f
_ZNK11sStateMgr_cI14dGoalManager_c20sStateMethodUsr_FI_c12sFStateFct_c13sStateIDChk_cE8getStateEv 0x8010B8D0 f
_ZNK11sStateMgr_cI14dGoalManager_c20sStateMethodUsr_FI_c12sFStateFct_c13sStateIDChk_cE13getNewStateIDEv 0x8010B8E0 f
_ZNK11sStateMgr_cI14dGoalManager_c20sStateMethodUsr_FI_c12sFStateFct_c13sStateIDChk_cE10getStateIDEv 0x8010B8F0 f
_ZNK11sStateMgr_cI14dGoalManager_c20sStateMethodUsr_FI_c12sFStateFct_c13sStateIDChk_cE13getOldStateIDEv 0x8010B900 f
_ZNK11sFStateID_cI14dGoalManager_cE13finalizeStateER14dGoalManager_c 0x8010B910 f
_ZNK11sFStateID_cI14dGoalManager_cE12executeStateER14dGoalManager_c 0x8010B940 f
_ZNK11sFStateID_cI14dGoalManager_cE15initializeStateER14dGoalManager_c 0x8010B970 f
__sinit_\d_GoalManager_cpp      0x8010B9A0      f
__arraydtor$69614               0x8010C020      f
_ZN11sFStateID_cI14dGoalManager_cED0Ev 0x8010C040 f
_ZNK11sFStateID_cI14dGoalManager_cE10isSameNameEPKc 0x8010C0A0 f
_Z25dSelectCursor_c_classInitv  0x8010C130      f
_ZN15dSelectCursor_cC1Ev        0x8010C160      f
_ZN15dSelectCursor_c8Layout_cC1Ev 0x8010C1D0    f
_ZN15dSelectCursor_c8Layout_cD0Ev 0x8010C220    f
_ZN15dSelectCursor_cD0Ev        0x8010C280      f
_ZN15dSelectCursor_c6createEv   0x8010C310      f
_ZN15dSelectCursor_c7executeEv  0x8010C490      f
_ZN15dSelectCursor_c4drawEv     0x8010C530      f
_ZN15dSelectCursor_c8doDeleteEv 0x8010C5A0      f
_ZN15dSelectCursor_c6PosSetEi   0x8010C620      f
_ZN15dSelectCursor_c6CancelEi   0x8010C890      f
_ZN15dSelectCursor_c7SetPaneEPKN4nw4r3lyt4PaneEib 0x8010C900 f
_ZN15dSelectCursor_c8SetAlphaEPKN4nw4r3lyt4PaneEi 0x8010CAB0 f
_Z30dSmallScoreManager_c_classInitv 0x8010CAE0  f
_ZN20dSmallScoreManager_cC1Ev   0x8010CB10      f
_ZN20dSmallScoreManager_cD0Ev   0x8010CBA0      f
_ZN20dSmallScoreManager_c6createEv 0x8010CC50   f
_ZN20dSmallScoreManager_c7executeEv 0x8010CDE0  f
_ZN20dSmallScoreManager_c4drawEv 0x8010CE80     f
_ZN20dSmallScoreManager_c8doDeleteEv 0x8010CF00 f
_ZN20dSmallScoreManager_c16CreateBlueNumberERK7mVec3_cii 0x8010CFC0 f
_ZN20dSmallScoreManager_c15CreateRedNumberERK7mVec3_ci 0x8010CFE0 f
_ZN20dSmallScoreManager_c16CreateSmallScoreERK7mVec3_cii 0x8010D000 f
_ZN20dSmallScoreManager_c15CreateGoalScoreERK7mVec3_cii 0x8010D0B0 f
_ZN20dSmallScoreManager_c16GoalScoreExecuteERK7mVec3_ci 0x8010D160 f
__sinit_\d_SmallScoreManager_cpp 0x8010D200     f
_Z27dWarningManager_c_classInitv 0x8010D270     f
_ZN17dWarningManager_c20CreateWarningManagerEv 0x8010D2A0 f
_ZN17dWarningManager_cC1Ev      0x8010D2B0      f
_ZN9sFState_cI17dWarningManager_cED0Ev 0x8010D3A0 f
_ZN12sFStateFct_cI17dWarningManager_cED0Ev 0x8010D3E0 f
_ZN11sStateMgr_cI17dWarningManager_c20sStateMethodUsr_FI_c12sFStateFct_c13sStateIDChk_cED0Ev 0x8010D420 f
_ZN12sFStateMgr_cI17dWarningManager_c20sStateMethodUsr_FI_cED0Ev 0x8010D480 f
_ZN17dWarningManager_cD0Ev      0x8010D4F0      f
_ZN17dWarningManager_c6createEv 0x8010D5B0      f
_ZN17dWarningManager_c7executeEv 0x8010D6F0     f
_ZN11sStateMgr_cI17dWarningManager_c20sStateMethodUsr_FI_c12sFStateFct_c13sStateIDChk_cE12executeStateEv 0x8010D770 f
_ZN17dWarningManager_c4drawEv   0x8010D780      f
_ZN17dWarningManager_c8doDeleteEv 0x8010D7E0    f
_ZN17dWarningManager_c15LowBatteryCheckEv 0x8010D870 f
_ZNK11sStateMgr_cI17dWarningManager_c20sStateMethodUsr_FI_c12sFStateFct_c13sStateIDChk_cE10getStateIDEv 0x8010D9B0 f
_ZN11sStateMgr_cI17dWarningManager_c20sStateMethodUsr_FI_c12sFStateFct_c13sStateIDChk_cE11changeStateERK12sStateIDIf_c 0x8010D9C0 f
_ZN17dWarningManager_c16NunchukDispSetupEi 0x8010D9D0 f
_ZN17dWarningManager_c13YoKoDispSetupEi 0x8010DA80 f
_ZN17dWarningManager_c14OtherDispSetupEi 0x8010DB30 f
_ZN17dWarningManager_c9HitAnyKeyEv 0x8010DBE0   f
_ZN17dWarningManager_c16GotoWarningCheckEv 0x8010DC40 f
_ZN17dWarningManager_c11ForbidCheckEv 0x8010DC60 f
_ZN17dWarningManager_c18SaveErrorDispSetupEv 0x8010DCA0 f
_ZN17dWarningManager_c15ConnectCutCheckEv 0x8010DD90 f
_ZN17dWarningManager_c28initializeState_WarningCheckEv 0x8010DF30 f
_ZN17dWarningManager_c25executeState_WarningCheckEv 0x8010DF40 f
_ZN17dWarningManager_c26finalizeState_WarningCheckEv 0x8010E0D0 f
_ZN17dWarningManager_c30initializeState_WarningCautionEv 0x8010E0E0 f
_ZN17dWarningManager_c27executeState_WarningCautionEv 0x8010E0F0 f
_ZN17dWarningManager_c28finalizeState_WarningCautionEv 0x8010E190 f
_ZN17dWarningManager_c30initializeState_WarningNunchukEv 0x8010E1A0 f
_ZN17dWarningManager_c27executeState_WarningNunchukEv 0x8010E1B0 f
_ZN17dWarningManager_c28finalizeState_WarningNunchukEv 0x8010E220 f
_ZN17dWarningManager_c27initializeState_WarningYoKoEv 0x8010E230 f
_ZN17dWarningManager_c24executeState_WarningYoKoEv 0x8010E240 f
_ZN17dWarningManager_c25finalizeState_WarningYoKoEv 0x8010E2B0 f
_ZN17dWarningManager_c39initializeState_WarningExitAnimeEndWaitEv 0x8010E2C0 f
_ZN17dWarningManager_c36executeState_WarningExitAnimeEndWaitEv 0x8010E2D0 f
_ZN17dWarningManager_c37finalizeState_WarningExitAnimeEndWaitEv 0x8010E370 f
_ZN17dWarningManager_c30initializeState_WarningBatteryEv 0x8010E380 f
_ZN17dWarningManager_c27executeState_WarningBatteryEv 0x8010E390 f
_ZN17dWarningManager_c28finalizeState_WarningBatteryEv 0x8010E400 f
_ZN17dWarningManager_c28initializeState_WarningErrorEv 0x8010E410 f
_ZN17dWarningManager_c25executeState_WarningErrorEv 0x8010E420 f
_ZN17dWarningManager_c26finalizeState_WarningErrorEv 0x8010E4F0 f
_ZN17dWarningManager_c32initializeState_WarningSaveErrorEv 0x8010E500 f
_ZN17dWarningManager_c29executeState_WarningSaveErrorEv 0x8010E510 f
_ZN17dWarningManager_c30finalizeState_WarningSaveErrorEv 0x8010E590 f
_ZN17dWarningManager_c13AllWarningEndEb 0x8010E5A0 f
_ZN17dWarningManager_c15onControllerCutEi 0x8010E710 f
_ZN12sFStateFct_cI17dWarningManager_cE5buildERK12sStateIDIf_c 0x8010E780 f
_ZN12sFStateFct_cI17dWarningManager_cE7disposeERP10sStateIf_c 0x8010E7E0 f
_ZN9sFState_cI17dWarningManager_cE10initializeEv 0x8010E7F0 f
_ZN9sFState_cI17dWarningManager_cE7executeEv 0x8010E810 f
_ZN9sFState_cI17dWarningManager_cE8finalizeEv 0x8010E830 f
_ZN11sStateMgr_cI17dWarningManager_c20sStateMethodUsr_FI_c12sFStateFct_c13sStateIDChk_cE15initializeStateEv 0x8010E850 f
_ZN11sStateMgr_cI17dWarningManager_c20sStateMethodUsr_FI_c12sFStateFct_c13sStateIDChk_cE13finalizeStateEv 0x8010E860 f
_ZN11sStateMgr_cI17dWarningManager_c20sStateMethodUsr_FI_c12sFStateFct_c13sStateIDChk_cE12refreshStateEv 0x8010E870 f
_ZNK11sStateMgr_cI17dWarningManager_c20sStateMethodUsr_FI_c12sFStateFct_c13sStateIDChk_cE8getStateEv 0x8010E880 f
_ZNK11sStateMgr_cI17dWarningManager_c20sStateMethodUsr_FI_c12sFStateFct_c13sStateIDChk_cE13getNewStateIDEv 0x8010E890 f
_ZNK11sStateMgr_cI17dWarningManager_c20sStateMethodUsr_FI_c12sFStateFct_c13sStateIDChk_cE13getOldStateIDEv 0x8010E8A0 f
_ZNK11sFStateID_cI17dWarningManager_cE13finalizeStateER17dWarningManager_c 0x8010E8B0 f
_ZNK11sFStateID_cI17dWarningManager_cE12executeStateER17dWarningManager_c 0x8010E8E0 f
_ZNK11sFStateID_cI17dWarningManager_cE15initializeStateER17dWarningManager_c 0x8010E910 f
__sinit_\d_WarningManager_cpp   0x8010E940      f
_ZN11sFStateID_cI17dWarningManager_cED0Ev 0x8010EF90 f
_ZNK11sFStateID_cI17dWarningManager_cE10isSameNameEPKc 0x8010EFF0 f
_Z23dLogoScreen_c_classInitv    0x8010F080      f
_ZN13dLogoScreen_cC1Ev          0x8010F0B0      f
_ZN13dLogoScreen_cD0Ev          0x8010F100      f
_ZN13dLogoScreen_c6createEv     0x8010F170      f
_ZN13dLogoScreen_c12createLayoutEv 0x8010F1D0   f
_ZN13dLogoScreen_c10preExecuteEv 0x8010F430     f
_ZN13dLogoScreen_c7executeEv    0x8010F480      f
_ZN13dLogoScreen_c4drawEv       0x8010F4E0      f
_ZN13dLogoScreen_c8doDeleteEv   0x8010F520      f
_Z21dAcCursor_c_classInitv      0x8010F530      f
_ZN3m2d8Simple_cD0Ev            0x8010F5B0      f
_ZN11dAcCursor_c6createEv       0x8010F620      f
_ZN11dAcCursor_c8doDeleteEv     0x8010F700      f
_ZN11dAcCursor_c7executeEv      0x8010F740      f
_ZN11dAcCursor_c4drawEv         0x8010F870      f
_ZN11dAcCursor_c6setLytEN11dAcCursor_c5Lyt_eE 0x8010F8E0 f
_ZN11dAcCursor_cD0Ev            0x8010F900      f
__sinit_\d_a_cursor_cpp         0x8010F980      f
_Z23daEnEatCoin_c_classInitv    0x8010F9A0      f
_ZN13daEnEatCoin_c6createEv     0x8010FA10      f
_ZN13daEnEatCoin_c7executeEv    0x8010FA90      f
_ZN13daEnEatCoin_c4drawEv       0x8010FAC0      f
_ZN13daEnEatCoin_c8doDeleteEv   0x8010FBB0      f
_ZN13daEnEatCoin_c14setEatGlupDownEP8dActor_c 0x8010FBC0 f
_ZN13daEnEatCoin_c22initializeState_EatOutEv 0x8010FC60 f
_ZN13daEnEatCoin_c20finalizeState_EatOutEv 0x8010FC70 f
_ZN13daEnEatCoin_c19executeState_EatOutEv 0x8010FC80 f
_ZN13daEnEatCoin_c9model_setEv  0x8010FC90      f
_ZN13daEnEatCoin_cD0Ev          0x8010FD50      f
__sinit_\d_a_en_eatcoin_cpp     0x8010FDD0      f
_ZN11sFStateID_cI13daEnEatCoin_cED0Ev 0x8010FF00 f
_ZN18sFStateVirtualID_cI13daEnEatCoin_cED0Ev 0x8010FF60 f
_Z13baseID_EatOutI5dEn_cERK12sStateIDIf_cv 0x8010FFC0 f
_ZNK18sFStateVirtualID_cI13daEnEatCoin_cE6numberEv 0x8010FFD0 f
_ZNK18sFStateVirtualID_cI13daEnEatCoin_cE7superIDEv 0x801100B0 f
_ZNK11sFStateID_cI13daEnEatCoin_cE10isSameNameEPKc 0x80110190 f
_ZNK11sFStateID_cI13daEnEatCoin_cE15initializeStateER13daEnEatCoin_c 0x80110220 f
_ZNK11sFStateID_cI13daEnEatCoin_cE12executeStateER13daEnEatCoin_c 0x80110250 f
_ZNK11sFStateID_cI13daEnEatCoin_cE13finalizeStateER13daEnEatCoin_c 0x80110280 f
_Z29daEnHatenaBalloon_c_classInitv 0x801102B0   f
_ZN19daEnHatenaBalloon_c6createEv 0x80110410    f
_ZN19daEnHatenaBalloon_c7executeEv 0x80110720   f
_ZN19daEnHatenaBalloon_c7preDrawEv 0x80110910   f
_ZN19daEnHatenaBalloon_c4drawEv 0x80110A10      f
_ZN19daEnHatenaBalloon_c8doDeleteEv 0x80110C40  f
_ZN19daEnHatenaBalloon_c11ccLineCheckEff 0x80110C50 f
_ZN19daEnHatenaBalloon_c9setCcLineEv 0x80110CA0 f
_ZN19daEnHatenaBalloon_c12PlYsHitCheckEP8dActor_cP19daEnHatenaBalloon_c 0x80110DE0 f
_ZN19daEnHatenaBalloon_c19Normal_VsPlHitCheckEP5dCc_cP5dCc_c 0x80110F20 f
_ZN19daEnHatenaBalloon_c22Normal_VsYoshiHitCheckEP5dCc_cP5dCc_c 0x80111000 f
_ZN19daEnHatenaBalloon_c19Normal_VsEnHitCheckEP5dCc_cP5dCc_c 0x801110E0 f
_ZN19daEnHatenaBalloon_c16hitCallback_FireEP5dCc_cP5dCc_c 0x801112F0 f
_ZN19daEnHatenaBalloon_c23hitCallback_YoshiBulletEP5dCc_cP5dCc_c 0x801113D0 f
_ZN19daEnHatenaBalloon_c18hitCallback_CannonEP5dCc_cP5dCc_c 0x801113E0 f
_ZN19daEnHatenaBalloon_c15hitCallback_IceEP5dCc_cP5dCc_c 0x80111410 f
_ZN19daEnHatenaBalloon_c16hitCallback_StarEP5dCc_cP5dCc_c 0x80111420 f
_ZN19daEnHatenaBalloon_c17hitCallback_LargeEP5dCc_cP5dCc_c 0x80111450 f
_ZN19daEnHatenaBalloon_c16hitCallback_SpinEP5dCc_cP5dCc_c 0x80111480 f
_ZN19daEnHatenaBalloon_c17hitCallback_ShellEP5dCc_cP5dCc_c 0x801114B0 f
_ZN19daEnHatenaBalloon_c16hitCallback_SlipEP5dCc_cP5dCc_c 0x80111680 f
_ZN19daEnHatenaBalloon_c19hitCallback_WireNetEP5dCc_cP5dCc_c 0x801116B0 f
_ZN19daEnHatenaBalloon_c19hitCallback_HipAttkEP5dCc_cP5dCc_c 0x801116C0 f
_ZN19daEnHatenaBalloon_c24hitCallback_YoshiHipAttkEP5dCc_cP5dCc_c 0x801117A0 f
_ZN19daEnHatenaBalloon_c11hitYoshiEatEP5dCc_cP5dCc_c 0x801118C0 f
_ZN19daEnHatenaBalloon_c14block_hit_initEv 0x801118D0 f
_ZN19daEnHatenaBalloon_c12hipattackhitEa7mVec3_c 0x801118E0 f
_ZN19daEnHatenaBalloon_c9model_setEv 0x80111990 f
_ZN19daEnHatenaBalloon_c14item_draw_calcEP7mVec3_c 0x80111DB0 f
_ZN19daEnHatenaBalloon_c7anm_setEi 0x80111EC0   f
_ZN19daEnHatenaBalloon_c11pause_checkEv 0x80111F90 f
hash_9055A381_3A83830C          0x80112040      f
_ZN19daEnHatenaBalloon_c16shake_disp_checkEv 0x801120D0 f
_ZN19daEnHatenaBalloon_c10createItemEv 0x80112110 f
_ZN19daEnHatenaBalloon_c13break_balloonEs 0x801121C0 f
_ZN19daEnHatenaBalloon_c10player_setEv 0x80112260 f
_ZN19daEnHatenaBalloon_c12pointBgCheckERK7mVec3_cmmm 0x801122F0 f
_ZN19daEnHatenaBalloon_c14goalpole_checkEv 0x80112580 f
_ZN19daEnHatenaBalloon_c11floor_checkEv 0x801125C0 f
_ZN19daEnHatenaBalloon_c11all_bgcheckERh 0x801127E0 f
_ZN19daEnHatenaBalloon_c14fly_yspeed_setEv 0x80112950 f
_ZN19daEnHatenaBalloon_c14fly_xspeed_setEb 0x80112B00 f
_ZN19daEnHatenaBalloon_c15fly_ydisp_checkEb 0x80112C70 f
_ZN19daEnHatenaBalloon_c15fly_xdisp_checkEb 0x80112D50 f
_ZN19daEnHatenaBalloon_c16fly_dispin_checkEv 0x80112EF0 f
_ZN19daEnHatenaBalloon_c20escape_dispout_checkEv 0x80112FC0 f
_ZN19daEnHatenaBalloon_c17remocon_speed_setEv 0x80113090 f
_ZN19daEnHatenaBalloon_c15break_speed_setEv 0x801133A0 f
_ZN19daEnHatenaBalloon_c19remocon_times_checkEv 0x80113400 f
_ZN19daEnHatenaBalloon_c16player_out_checkEv 0x80113460 f
_ZN19daEnHatenaBalloon_c19remocon_shake_checkEv 0x801134F0 f
_ZN19daEnHatenaBalloon_c18ButtonPlayerColSetEv 0x801135B0 f
_ZN19daEnHatenaBalloon_c12break_effectEv 0x801135D0 f
_ZN19daEnHatenaBalloon_c18dispInFlyInitCheckEi 0x80113640 f
_ZN19daEnHatenaBalloon_c19create_wait_pos_setEv 0x80113740 f
_ZN19daEnHatenaBalloon_c27initializeState_DispFlyWaitEv 0x801138D0 f
_ZN19daEnHatenaBalloon_c25finalizeState_DispFlyWaitEv 0x80113A80 f
_ZN19daEnHatenaBalloon_c24executeState_DispFlyWaitEv 0x80113A90 f
_ZN19daEnHatenaBalloon_c27initializeState_DispFlyMoveEv 0x80113BF0 f
_ZN19daEnHatenaBalloon_c25finalizeState_DispFlyMoveEv 0x80113C10 f
_ZN19daEnHatenaBalloon_c24executeState_DispFlyMoveEv 0x80113C20 f
_ZN19daEnHatenaBalloon_c19initializeState_FlyEv 0x80113DC0 f
_ZN19daEnHatenaBalloon_c17finalizeState_FlyEv 0x80113DF0 f
_ZN19daEnHatenaBalloon_c16executeState_FlyEv 0x80113E00 f
_ZN19daEnHatenaBalloon_c22initializeState_EscapeEv 0x80113ED0 f
_ZN19daEnHatenaBalloon_c20finalizeState_EscapeEv 0x80113F70 f
_ZN19daEnHatenaBalloon_c19executeState_EscapeEv 0x80113F80 f
_ZN19daEnHatenaBalloon_c25initializeState_HipAttackEv 0x801140C0 f
_ZN19daEnHatenaBalloon_c23finalizeState_HipAttackEv 0x801140D0 f
_ZN19daEnHatenaBalloon_c22executeState_HipAttackEv 0x801140E0 f
_ZN19daEnHatenaBalloon_c27initializeState_SearchSpaceEv 0x80114140 f
_ZN19daEnHatenaBalloon_c25finalizeState_SearchSpaceEv 0x80114160 f
_ZN19daEnHatenaBalloon_c24executeState_SearchSpaceEv 0x80114190 f
_ZN19daEnHatenaBalloon_c13isQuakeDamageEv 0x80114470 f
_ZN19daEnHatenaBalloon_cD0Ev    0x80114480      f
__sinit_\d_a_en_hatena_balloon_cpp 0x80114580   f
_ZN11sFStateID_cI19daEnHatenaBalloon_cED0Ev 0x80114A80 f
_ZNK11sFStateID_cI19daEnHatenaBalloon_cE10isSameNameEPKc 0x80114AE0 f
_ZNK11sFStateID_cI19daEnHatenaBalloon_cE15initializeStateER19daEnHatenaBalloon_c 0x80114B70 f
_ZNK11sFStateID_cI19daEnHatenaBalloon_cE12executeStateER19daEnHatenaBalloon_c 0x80114BA0 f
_ZNK11sFStateID_cI19daEnHatenaBalloon_cE13finalizeStateER19daEnHatenaBalloon_c 0x80114BD0 f
_Z22daEnemyIce_c_classInitv     0x80114C00      f
_ZN12daEnemyIce_c6createEv      0x80114CE0      f
_ZN12daEnemyIce_c9createMdlEv   0x80114D80      f
_ZN12daEnemyIce_c7executeEv     0x80114EB0      f
_ZN12daEnemyIce_c11postExecuteEN7fBase_c12MAIN_STATE_eE 0x80114F10 f
_ZN12daEnemyIce_c4drawEv        0x80114F60      f
_ZN12daEnemyIce_c11deleteReadyEv 0x80114F90     f
_ZN12daEnemyIce_c8doDeleteEv    0x80114FA0      f
_ZN12daEnemyIce_c7calcMdlEv     0x80115010      f
_ZN12daEnemyIce_c9updatePosEv   0x80115100      f
_ZN12daEnemyIce_c17calcMeltScaleRateEv 0x80115170 f
_ZN12daEnemyIce_c13calcMeltSpeedEv 0x801151E0   f
_ZN12daEnemyIce_c13calcEffectPosEv 0x80115240   f
_ZN12daEnemyIce_c17freezeBeginEffectEv 0x80115320 f
_ZN12daEnemyIce_c12freezeEffectEv 0x80115330    f
_ZN12daEnemyIce_c13revivalEffectEv 0x80115340   f
_ZN12daEnemyIce_c10meltEffectEv 0x80115350      f
_ZN12daEnemyIce_c11breakEffectEv 0x80115360     f
_ZN12daEnemyIce_c22initializeState_FreezeEv 0x80115370 f
_ZN12daEnemyIce_c20finalizeState_FreezeEv 0x80115380 f
_ZN12daEnemyIce_c19executeState_FreezeEv 0x80115390 f
_ZN12daEnemyIce_c23initializeState_RevivalEv 0x801153E0 f
_ZN12daEnemyIce_c21finalizeState_RevivalEv 0x80115420 f
_ZN12daEnemyIce_c20executeState_RevivalEv 0x80115430 f
_ZN12daEnemyIce_c20initializeState_MeltEv 0x80115440 f
_ZN12daEnemyIce_c18finalizeState_MeltEv 0x80115490 f
_ZN12daEnemyIce_c17executeState_MeltEv 0x801154A0 f
_ZN12daEnemyIce_c21initializeState_BreakEv 0x80115520 f
_ZN12daEnemyIce_c19finalizeState_BreakEv 0x80115560 f
_ZN12daEnemyIce_c18executeState_BreakEv 0x80115570 f
_ZN12daEnemyIce_cD0Ev           0x80115580      f
__sinit_\d_a_enemy_ice_cpp      0x80115650      f
_ZN11sFStateID_cI12daEnemyIce_cED0Ev 0x80115A50 f
_ZNK11sFStateID_cI12daEnemyIce_cE10isSameNameEPKc 0x80115AB0 f
_ZNK11sFStateID_cI12daEnemyIce_cE15initializeStateER12daEnemyIce_c 0x80115B40 f
_ZNK11sFStateID_cI12daEnemyIce_cE12executeStateER12daEnemyIce_c 0x80115B70 f
_ZNK11sFStateID_cI12daEnemyIce_cE13finalizeStateER12daEnemyIce_c 0x80115BA0 f
_ZN13daFarBG_HIO_cC1Ev          0x80115BD0      f
_Z19daFarBG_c_classInitv        0x80115D60      f
_ZN9daFarBG_c14nodeCallback_cD0Ev 0x80115E10    f
_ZN9daFarBG_c6createEv          0x80115E50      f
_ZN9daFarBG_c7executeEv         0x80115F00      f
_ZN9daFarBG_c4drawEv            0x80115F60      f
_ZN9daFarBG_c8doDeleteEv        0x80116000      f
hash_2BCA2B8C_98EF8CCB          0x80116190      f
_ZN9daFarBG_c10initializeEv     0x80116250      f
_ZN9daFarBG_c6GetResEtPcPcPc    0x80116480      f
hash_7C2CEF18_7E34058E          0x80116570      f
_ZN9daFarBG_c13GetRepeatTypeEttt 0x80116A70     f
_ZN9daFarBG_c10SetBgDataPEv     0x80116B70      f
_ZN9daFarBG_c18GetHScrollSpdRatioEi 0x80116BB0  f
_ZN9daFarBG_c18GetVScrollSpdRatioEi 0x80116C00  f
_ZN9daFarBG_c14GetScrollBaseYEv 0x80116C50      f
_ZN9daFarBG_c17GetScrollBaseTypeEv 0x80116CF0   f
_ZN9daFarBG_c16GetModelBasePosXEiif 0x80116D40  f
hash_5CBB3FC9_8028241B          0x80116E60      f
hash_DB0AAD7E_5F3746CC          0x80117030      f
hash_9EDD0219_8B7A5F4B          0x801171F0      f
hash_BA5937AE_9241871C          0x801173A0      f
hash_F8D161C1_94D80C93          0x80117550      f
hash_83C2B164_4830FEF6          0x80117710      f
hash_7DFBA83E_B0F5976C          0x801178F0      f
_ZN9daFarBG_c13GetModelNumXYERiRi 0x80117B50    f
_ZN9daFarBG_c10InitBgDataEv     0x80117C00      f
_ZN9daFarBG_c8bgData_tC1Ev      0x80117D40      f
_ZN9daFarBG_c8bgData_tD0Ev      0x80117D50      f
_ZN9daFarBG_c13SetScrollFlagEiN4nw4r3g3d6ResMdlE 0x80117D90 f
_ZN9daFarBG_c10CreateHeapEv     0x80117F00      f
_ZN9daFarBG_c9CalcScaleEv       0x801184F0      f
_ZN9daFarBG_c12CalcScrollBGEv   0x80118590      f
_ZN9daFarBG_c11InitFrustumEv    0x801188A0      f
hash_8311C6CD_766FF9A1          0x801189A0      f
_ZN9daFarBG_c13GetScrollDiffEi  0x80118B20      f
_ZN9daFarBG_c14nodeCallback_c7timingBEmPN4nw4r3g3d13WorldMtxManipEN4nw4r3g3d6ResMdlE 0x80118B60 f
_ZN9daFarBG_c12GetMyBgDataPEv   0x80118EC0      f
_ZN9daFarBG_c15GetOtherBgDataPEv 0x80118EE0     f
_ZN9daFarBG_c10UpdateAnimEv     0x80118F00      f
_ZN9daFarBG_c13checkResourceEv  0x801191A0      f
_ZN9daFarBG_c18GetScreenCenterPosEv 0x80119280  f
hash_B85E2F17_E8480312          0x801192C0      f
hash_B216F9C2_47FECA87          0x80119320      f
hash_352F1BE9_16E42FA3          0x80119370      f
_ZN9daFarBG_c13effectExecuteEv  0x80119380      f
_ZN9daFarBG_c17CalcBasePosAndMtxEv 0x801195E0   f
_ZN9daFarBG_c12ReserveModelEv   0x80119D90      f
_ZN9daFarBG_c12GetCameraPosEv   0x8011A240      f
_ZN9daFarBG_c13GetZoomMagnifEv  0x8011A2E0      f
_ZN9daFarBG_c16CalcModelBasePosEv 0x8011A320    f
_ZN9daFarBG_cD0Ev               0x8011A420      f
__sinit_\d_a_farBG_cpp          0x8011A4C0      f
_ZN13daFarBG_HIO_cD0Ev          0x8011A550      f
__arraydtor$74778               0x8011A590      f
_Z29daFireBall_Player_c_classInitv 0x8011A5B0   f
_ZN19daFireBall_Player_c12entryHIOnodeEv 0x8011A690 f
_ZN19daFireBall_Player_c13retireHIOnodeEv 0x8011A6A0 f
_ZN19daFireBall_Player_c11createCheckEv 0x8011A6B0 f
_ZN19daFireBall_Player_c7chgZposEv 0x8011A730   f
_ZN19daFireBall_Player_c10initializeEv 0x8011A7C0 f
_ZN19daFireBall_Player_c5setCcEv 0x8011A8F0     f
_ZN19daFireBall_Player_c15checkInitVanishEv 0x8011A940 f
_ZN19daFireBall_Player_c13checkInitLineERf 0x8011A9F0 f
_ZN19daFireBall_Player_c11beginSplashEf 0x8011AAB0 f
_ZN19daFireBall_Player_c18fireball_collcheckEP5dCc_cP5dCc_c 0x8011AB90 f
_ZN19daFireBall_Player_c8doDeleteEv 0x8011AC90  f
_ZN19daFireBall_Player_c20initializeState_MoveEv 0x8011ACF0 f
_ZN19daFireBall_Player_c18finalizeState_MoveEv 0x8011AD00 f
_ZN19daFireBall_Player_c17executeState_MoveEv 0x8011AD10 f
_ZN19daFireBall_Player_c12killcheck_BgEv 0x8011AED0 f
_ZN19daFireBall_Player_c14killcheck_RideEv 0x8011AF60 f
_ZN19daFireBall_Player_c10boundCheckEv 0x8011AFC0 f
_ZN19daFireBall_Player_c12setSakaSpeedEhh 0x8011AFD0 f
hash_BBEC28DC_2D29A28D          0x8011B060      f
_ZN19daFireBall_Player_cD0Ev    0x8011B0B0      f
__sinit_\d_a_fireball_player_cpp 0x8011B160     f
_ZN11sFStateID_cI19daFireBall_Player_cED0Ev 0x8011B290 f
_ZN18sFStateVirtualID_cI19daFireBall_Player_cED0Ev 0x8011B2F0 f
_Z11baseID_MoveI17daFireBall_Base_cERK12sStateIDIf_cv 0x8011B350 f
_ZNK18sFStateVirtualID_cI19daFireBall_Player_cE6numberEv 0x8011B360 f
_ZNK18sFStateVirtualID_cI19daFireBall_Player_cE7superIDEv 0x8011B440 f
_ZNK11sFStateID_cI19daFireBall_Player_cE10isSameNameEPKc 0x8011B520 f
_ZNK11sFStateID_cI19daFireBall_Player_cE15initializeStateER19daFireBall_Player_c 0x8011B5B0 f
_ZNK11sFStateID_cI19daFireBall_Player_cE12executeStateER19daFireBall_Player_c 0x8011B5E0 f
_ZNK11sFStateID_cI19daFireBall_Player_cE13finalizeStateER19daFireBall_Player_c 0x8011B610 f
_Z17daIce_c_classInitv          0x8011B640      f
_ZN7daIce_c6createEv            0x8011B8B0      f
_ZN7daIce_c9createMdlEv         0x8011BB30      f
_ZN7daIce_c10preExecuteEv       0x8011BC70      f
_ZN7daIce_c7executeEv           0x8011BD70      f
_ZN7daIce_c4drawEv              0x8011BEB0      f
_ZN7daIce_c11deleteReadyEv      0x8011BEE0      f
_ZN7daIce_c8doDeleteEv          0x8011BF80      f
_ZN7daIce_c7calcMdlEv           0x8011BFB0      f
hash_525367B5_3F348266          0x8011C0F0      f
hash_0DEB2655_BF55B707          0x8011C160      f
_ZN7daIce_c7setInfoE7mVec3_c13dIceEfScale_c 0x8011C180 f
_ZN7daIce_c8initSizeERK7mVec3_c 0x8011C240      f
_ZN7daIce_c7initPosEv           0x8011C2D0      f
_ZN7daIce_c10initWeightEv       0x8011C3F0      f
_ZN7daIce_c13initCollisionEv    0x8011C450      f
_ZN7daIce_c10initEffectE13dIceEfScale_c 0x8011C770 f
_ZN7daIce_c17checkInstantBreakEi 0x8011C820     f
_ZN7daIce_c13checkPlayerInEv    0x8011C890      f
_ZN7daIce_c9checkBgInEv         0x8011C9F0      f
_ZN7daIce_c12calcLandLineERf    0x8011CBD0      f
_ZN7daIce_c11finalUpdateEv      0x8011CDC0      f
_ZN7daIce_c13isQuakeDamageEv    0x8011CFF0      f
_ZN7daIce_c11quakeDamageEv      0x8011D190      f
_ZN7daIce_c13combobreakReqEiP8dActor_c 0x8011D240 f
_ZN7daIce_c15plcombobreakReqEiP8dActor_c 0x8011D320 f
_ZN7daIce_c18treadcombobreakReqEiP8dActor_c 0x8011D3F0 f
_ZN7daIce_c12starbreakReqEiP8dActor_c 0x8011D4C0 f
_ZN7daIce_c5setBcEv             0x8011D590      f
_ZN7daIce_c10setCarryBcEv       0x8011D6D0      f
_ZN7daIce_c10enlargeBgcEv       0x8011D820      f
_ZN7daIce_c14enlargeBgcLandEv   0x8011D860      f
_ZN7daIce_c15enlargeBgcWaterEv  0x8011D920      f
_ZN7daIce_c11enemyAttachEv      0x8011DA00      f
_ZN7daIce_c5shakeEv             0x8011DA70      f
_ZN7daIce_c11normalShakeEv      0x8011DA90      f
_ZN7daIce_c14watertogeShakeEv   0x8011DAC0      f
_ZN7daIce_c14calcFloatAngleEv   0x8011DB70      f
_ZN7daIce_c14calcFloatSpeedEv   0x8011DBF0      f
_ZN7daIce_c13checkPushSinkEP8dActor_c 0x8011DCF0 f
_ZN7daIce_c10getManagerEv       0x8011DE20      f
_ZN7daIce_c15checkUnderBreakEP8dActor_c 0x8011DE30 f
_ZN7daIce_c15checkUpperBreakEP8dActor_c 0x8011DF80 f
_ZN7daIce_c14checkSideBreakEP8dActor_ci 0x8011DF90 f
_ZN7daIce_c11breakEffectEv      0x8011E040      f
_ZN7daIce_c10meltEffectEv       0x8011E0D0      f
_ZN7daIce_c12callBackHeadEP8dActor_cP8dActor_c 0x8011E160 f
_ZN7daIce_c12callBackFootEP8dActor_cP8dActor_c 0x8011E2E0 f
_ZN7daIce_c12callBackWallEP8dActor_cP8dActor_ch 0x8011E560 f
_ZN7daIce_c12checkRevHeadEP8dActor_cP8dActor_c 0x8011E7C0 f
_ZN7daIce_c12checkRevFootEP8dActor_cP8dActor_c 0x8011E7E0 f
_ZN7daIce_c12checkRevWallEP8dActor_cP8dActor_ch 0x8011E800 f
_ZN7daIce_c10ccCallBackEP5dCc_cP5dCc_c 0x8011E860 f
_ZN7daIce_c16ccCallBack_WaterEP5dCc_cP5dCc_c 0x8011EB40 f
_ZN7daIce_c14block_hit_initEv   0x8011EBF0      f
_ZN7daIce_c8breakReqEii         0x8011EC40      f
_ZN7daIce_c13floatbreakReqEv    0x8011ECF0      f
_ZN7daIce_c10checkNetInEv       0x8011ED50      f
_ZN7daIce_c8setCarryEP8dActor_c 0x8011EE50      f
_ZN7daIce_c13checkPlHasamiEPi   0x8011EEE0      f
_ZN7daIce_c18checkPlAttach_HeadEPi 0x8011EFC0   f
_ZN7daIce_c18checkPlAttach_FootEPiPi 0x8011F030 f
_ZN7daIce_c18checkPlAttach_WallEiPi 0x8011F120  f
_ZN7daIce_c18checkPlHasami_WallEP8dActor_ci 0x8011F270 f
_ZN7daIce_c12calcCarryPosEv     0x8011F310      f
_ZNK7daIce_c8canCarryEv         0x8011F420      f
_ZN7daIce_c11getParentIDEv      0x8011F530      f
_ZN7daIce_c11yoganEffectEv      0x8011F570      f
_ZN7daIce_c12poisonEffectEv     0x8011F660      f
_ZN7daIce_c22initializeState_FreezeEv 0x8011F6E0 f
_ZN7daIce_c20finalizeState_FreezeEv 0x8011F6F0  f
_ZN7daIce_c19executeState_FreezeEv 0x8011F710   f
_ZN7daIce_c19initializeState_HopEv 0x8011F770   f
_ZN7daIce_c17finalizeState_HopEv 0x8011F810     f
_ZN7daIce_c16executeState_HopEv 0x8011F840      f
_ZN7daIce_c20initializeState_LandEv 0x8011F9B0  f
_ZN7daIce_c18finalizeState_LandEv 0x8011F9F0    f
_ZN7daIce_c17executeState_LandEv 0x8011FA10     f
_ZN7daIce_c21initializeState_CoverEv 0x8011FD20 f
_ZN7daIce_c19finalizeState_CoverEv 0x8011FD30   f
_ZN7daIce_c18executeState_CoverEv 0x8011FD40    f
_ZN7daIce_c20initializeState_SinkEv 0x8011FDE0  f
_ZN7daIce_c18finalizeState_SinkEv 0x8011FE20    f
_ZN7daIce_c17executeState_SinkEv 0x8011FE30     f
_ZN7daIce_c21initializeState_FloatEv 0x8011FFD0 f
_ZN7daIce_c19finalizeState_FloatEv 0x80120000   f
_ZN7daIce_c18executeState_FloatEv 0x80120010    f
_ZN7daIce_c26initializeState_SmallFloatEv 0x801201C0 f
_ZN7daIce_c24finalizeState_SmallFloatEv 0x801201F0 f
_ZN7daIce_c23executeState_SmallFloatEv 0x80120200 f
_ZN7daIce_c25initializeState_FloatWaitEv 0x801203E0 f
_ZN7daIce_c23finalizeState_FloatWaitEv 0x80120440 f
_ZN7daIce_c22executeState_FloatWaitEv 0x80120450 f
_ZN7daIce_c24initializeState_PushSinkEv 0x80120620 f
_ZN7daIce_c22finalizeState_PushSinkEv 0x80120650 f
_ZN7daIce_c21executeState_PushSinkEv 0x80120660 f
_ZN7daIce_c25initializeState_TogeFloatEv 0x80120860 f
_ZN7daIce_c23finalizeState_TogeFloatEv 0x801208B0 f
_ZN7daIce_c22executeState_TogeFloatEv 0x801208C0 f
_ZN7daIce_c26initializeState_ShakeFloatEv 0x80120A50 f
_ZN7daIce_c24finalizeState_ShakeFloatEv 0x80120A80 f
_ZN7daIce_c23executeState_ShakeFloatEv 0x80120A90 f
_ZN7daIce_c19initializeState_AirEv 0x80120C00   f
_ZN7daIce_c17finalizeState_AirEv 0x80120C60     f
_ZN7daIce_c16executeState_AirEv 0x80120C80      f
_ZN7daIce_c20initializeState_FallEv 0x80120DB0  f
_ZN7daIce_c18finalizeState_FallEv 0x80120E30    f
_ZN7daIce_c17executeState_FallEv 0x80120E70     f
_ZN7daIce_c20initializeState_DiveEv 0x80121110  f
_ZN7daIce_c18finalizeState_DiveEv 0x801211A0    f
_ZN7daIce_c17executeState_DiveEv 0x801211D0     f
_ZN7daIce_c25initializeState_YoganDiveEv 0x80121320 f
_ZN7daIce_c23finalizeState_YoganDiveEv 0x801213B0 f
_ZN7daIce_c22executeState_YoganDiveEv 0x801213C0 f
_ZN7daIce_c21initializeState_CarryEv 0x801214D0 f
_ZN7daIce_c19finalizeState_CarryEv 0x80121580   f
_ZN7daIce_c18executeState_CarryEv 0x801215E0    f
_ZN7daIce_c20initializeState_DropEv 0x80121840  f
_ZN7daIce_c18finalizeState_DropEv 0x801218A0    f
_ZN7daIce_c17executeState_DropEv 0x80121900     f
_ZN7daIce_c21initializeState_ThrowEv 0x80121AD0 f
_ZN7daIce_c19finalizeState_ThrowEv 0x80121C00   f
_ZN7daIce_c18executeState_ThrowEv 0x80121C40    f
_ZN7daIce_c27initializeState_Melt_NormalEv 0x80121E90 f
_ZN7daIce_c25finalizeState_Melt_NormalEv 0x80121ED0 f
_ZN7daIce_c24executeState_Melt_NormalEv 0x80121EE0 f
_ZN7daIce_c18setSpinLiftUpActorEP8dActor_c 0x80121EF0 f
_ZN7daIce_c18isSpinLiftUpEnableEv 0x80121F00    f
_ZN7daIce_cD0Ev                 0x80121F30      f
_ZN18dIceWaterBreakEf_c6createERK7mVec3_c 0x801220C0 f
_ZN18dIceWaterBreakEf_c6followERK7mVec3_c 0x801220E0 f
_ZN14dIcePoisonEf_c6createERK7mVec3_c 0x801220F0 f
_ZN14dIcePoisonEf_c6followERK7mVec3_c 0x80122120 f
_ZN13dIceYoganEf_c6createERK7mVec3_c 0x80122140 f
_ZN13dIceYoganEf_c6followERK7mVec3_c 0x80122170 f
_ZN12dIceThawEf_c6createERK7mVec3_c 0x80122190  f
_ZN12dIceThawEf_c6followERK7mVec3_c 0x801221C0  f
_ZN15dIceReleaseEf_c6createERK7mVec3_c 0x801221E0 f
_ZN15dIceReleaseEf_c6followERK7mVec3_c 0x80122210 f
_ZN13dIceBreakEf_c6createERK7mVec3_c 0x80122230 f
_ZN13dIceBreakEf_c6followERK7mVec3_c 0x80122260 f
_ZN13dIceSmokeEf_c6createERK7mVec3_c 0x80122280 f
_ZN13dIceSmokeEf_c6followERK7mVec3_c 0x80122290 f
_ZN14dIceFreezeEf_c6createERK7mVec3_c 0x801222E0 f
_ZN14dIceFreezeEf_c6followERK7mVec3_c 0x80122310 f
__sinit_\d_a_ice_cpp            0x80122330      f
_ZN11sFStateID_cI7daIce_cED0Ev  0x80123270      f
_ZNK11sFStateID_cI7daIce_cE10isSameNameEPKc 0x801232D0 f
_ZNK11sFStateID_cI7daIce_cE15initializeStateER7daIce_c 0x80123360 f
_ZNK11sFStateID_cI7daIce_cE12executeStateER7daIce_c 0x80123390 f
_ZNK11sFStateID_cI7daIce_cE13finalizeStateER7daIce_c 0x801233C0 f
_Z21daIceBall_c_classInitv      0x801233F0      f
_ZN11daIceBall_c6createEv       0x80123470      f
_ZN11daIceBall_c7executeEv      0x80123720      f
_ZN11daIceBall_c4drawEv         0x801237D0      f
_ZN11daIceBall_c11deleteReadyEv 0x80123800      f
_ZN11daIceBall_c8doDeleteEv     0x80123810      f
_ZN11daIceBall_c15checkInitVanishEv 0x80123880  f
_ZN11daIceBall_c13checkInitLineERf 0x80123930   f
_ZN11daIceBall_c9lightProcEv    0x801239F0      f
_ZN11daIceBall_c12setEatTongueEP8dActor_c 0x80123A50 f
_ZN11daIceBall_c7bgCheckEv      0x80123AB0      f
_ZN11daIceBall_c15setDeleteEffectEv 0x80123B40  f
_ZN11daIceBall_c18ccCallback_IceballEP5dCc_cP5dCc_c 0x80123B50 f
_ZN11daIceBall_c7chgZposEv      0x80123CB0      f
_ZN11daIceBall_c9cullCheckEv    0x80123D40      f
_ZN11daIceBall_c7eatMoveEP8dActor_c 0x80123DA0  f
_ZN11daIceBall_c13checkDeleteBgEv 0x80123DE0    f
_ZN11daIceBall_c14waterlineCheckEv 0x80123EB0   f
_ZN11daIceBall_c11waterSplashEf 0x80123FA0      f
_ZN11daIceBall_c11yoganSplashEf 0x80124070      f
_ZN11daIceBall_c12poisonSplashEf 0x80124130     f
_ZN11daIceBall_c24initializeState_FireMoveEv 0x801241F0 f
_ZN11daIceBall_c22finalizeState_FireMoveEv 0x80124230 f
_ZN11daIceBall_c21executeState_FireMoveEv 0x80124240 f
_ZN11daIceBall_c20initializeState_MoveEv 0x80124390 f
_ZN11daIceBall_c18finalizeState_MoveEv 0x80124470 f
_ZN11daIceBall_c17executeState_MoveEv 0x80124480 f
_ZN11daIceBall_c21initializeState_EatInEv 0x801245F0 f
_ZN11daIceBall_c19finalizeState_EatInEv 0x80124600 f
_ZN11daIceBall_c18executeState_EatInEv 0x80124610 f
_ZN11daIceBall_c22initializeState_EatNowEv 0x80124670 f
_ZN11daIceBall_c20finalizeState_EatNowEv 0x80124680 f
_ZN11daIceBall_c19executeState_EatNowEv 0x80124690 f
_ZN11daIceBall_c20initializeState_KillEv 0x801246A0 f
_ZN11daIceBall_c18finalizeState_KillEv 0x801246E0 f
_ZN11daIceBall_c17executeState_KillEv 0x801246F0 f
hash_2549738B_570C82DA          0x80124700      f
_ZN11daIceBall_cD0Ev            0x80124750      f
__sinit_\d_a_iceball_cpp        0x801247C0      f
_ZN11sFStateID_cI11daIceBall_cED0Ev 0x80124BC0  f
_ZNK11sFStateID_cI11daIceBall_cE10isSameNameEPKc 0x80124C20 f
_ZNK11sFStateID_cI11daIceBall_cE15initializeStateER11daIceBall_c 0x80124CB0 f
_ZNK11sFStateID_cI11daIceBall_cE12executeStateER11daIceBall_c 0x80124CE0 f
_ZNK11sFStateID_cI11daIceBall_cE13finalizeStateER11daIceBall_c 0x80124D10 f
_Z22dLastActor_c_classInitv     0x80124D40      f
_ZN12dLastActor_c6createEv      0x80124D90      f
_ZN12dLastActor_c8doDeleteEv    0x80124DA0      f
_ZN12dLastActor_c7executeEv     0x80124DB0      f
_ZN12dLastActor_c4drawEv        0x80124E40      f
_ZN12dLastActor_cD0Ev           0x80124E50      f
_Z18daMask_c_classInitv         0x80124EB0      f
_ZN8daMask_c6createEv           0x80124FC0      f
_ZN8daMask_c7executeEv          0x801250C0      f
_ZN8daMask_c4drawEv             0x80125140      f
_ZN8daMask_c8doDeleteEv         0x80125200      f
_ZN8daMask_c12drawCaveMaskEv    0x80125210      f
_ZN8daMask_c12drawDarkMaskEv    0x80125280      f
_ZN8daMask_c14calcCaveCircleEf  0x80125350      f
_ZN8daMask_c14calcDarkCircleEf  0x80125380      f
_ZN8daMask_c21calcDarkCircleForStarEf 0x801253B0 f
_ZN8daMask_c14calcDarkSplineEff 0x801253E0      f
_ZN8daMask_c17calcDarkHandLightEv 0x80125410    f
_ZN8daMask_c9calculateEv        0x80125590      f
_ZN8daMask_c12calcCaveSizeEv    0x801257B0      f
_ZN8daMask_c12calcDarkSizeEv    0x80125970      f
_ZN8daMask_c12calcCaveMaskEv    0x80125B70      f
_ZN8daMask_c12calcDarkMaskEv    0x80125BD0      f
_ZN8daMask_c18isCalcCaveMaskSizeEv 0x80125CC0   f
_ZN8daMask_c18isCalcDarkMaskSizeEv 0x80125E00   f
_ZN8daMask_c10isDrawMaskEv      0x80125E60      f
hash_B3515D0F_72C66CCF          0x80125ED0      f
_ZN8daMask_c10GetPlayerPEv      0x80126050      f
_ZN8daMask_c7isYoshiEv          0x801260B0      f
_ZN8daMask_c13isItemKinopioEv   0x801260E0      f
_ZN8daMask_c12checkWallSubEPK7mVec3_cPK7mVec3_c 0x80126130 f
_ZN8daMask_c14checkGroundSubEPK7mVec3_cPK7mVec3_c 0x80126220 f
_ZN8daMask_c12checkCaveSubEPK7mVec3_cPK7mVec3_c 0x80126230 f
_ZN8daMask_c18calcPlayerDarkMaskERfRfRf 0x80126450 f
_ZN8daMask_cD0Ev                0x801265D0      f
_ZN7dAcPy_c19setHipAttackOnEnemyEP7mVec3_c 0x80126650 f
_ZN7dAcPy_c18setHipAttackEffectEv 0x80126770    f
_ZN7dAcPy_c18setHipAttackActionEv 0x801267F0    f
_ZNK7dAcPy_c7isCarryEv          0x801268F0      f
_ZN7dAcPy_c24setHipAttack_AttackStartEv 0x80126910 f
_ZN7dAcPy_c25initializeState_HipAttackEv 0x80126950 f
_ZN7dAcPy_c23finalizeState_HipAttackEv 0x801269A0 f
_ZN7dAcPy_c22executeState_HipAttackEv 0x801269E0 f
_ZN7dAcPy_c22setSpinHipAttackEffectEv 0x80126A30 f
_ZN7dAcPy_c29initializeState_SpinHipAttackEv 0x80126AB0 f
_ZN7dAcPy_c26executeState_SpinHipAttackEv 0x80126BC0 f
_ZN7dAcPy_c27finalizeState_SpinHipAttackEv 0x80126FD0 f
_ZN7dAcPy_c20initializeState_FallEv 0x80127080  f
_ZN7dAcPy_c18finalizeState_FallEv 0x80127190    f
_ZN7dAcPy_c17executeState_FallEv 0x80127230     f
_ZN7dAcPy_c20initializeState_JumpEv 0x801272B0  f
_ZN7dAcPy_c18finalizeState_JumpEv 0x80127380    f
_ZN7dAcPy_c17executeState_JumpEv 0x80127480     f
_ZN7dAcPy_c13calcJumpCountEv    0x80127550      f
_ZN7dAcPy_c12getJumpSpeedEv     0x801275B0      f
_ZN7dAcPy_c12setJumpSpeedEv     0x801276F0      f
hash_AF02617A_B8086D1E          0x80127740      f
_ZN7dAcPy_c11jump_commonEv      0x80127A20      f
_ZN7dAcPy_c14jumpExeTakeOffEv   0x80127AD0      f
_ZN7dAcPy_c11jumpExecAirEv      0x80127C70      f
_ZN7dAcPy_c17setJumpCommonBaseEv 0x80128050     f
_ZN7dAcPy_c8_jumpSetEPN10daPlBase_c8jmpInf_cE 0x80128100 f
hash_E2383350_326D0003          0x801282D0      f
_ZN7dAcPy_c20initializeState_LandEv 0x80128360  f
_ZN7dAcPy_c18finalizeState_LandEv 0x80128420    f
_ZN7dAcPy_c17executeState_LandEv 0x801284B0     f
_ZN7dAcPy_c20checkWallSlideEnableEi 0x80128600  f
_ZN7dAcPy_c13checkWallJumpEv    0x80128710      f
_ZN7dAcPy_c25initializeState_WallSlideEv 0x80128810 f
_ZN7dAcPy_c23finalizeState_WallSlideEv 0x801288F0 f
_ZN7dAcPy_c18setWallSlideEffectEv 0x80128970    f
_ZN7dAcPy_c22executeState_WallSlideEv 0x80128AC0 f
_ZN7dAcPy_c24initializeState_WallJumpEv 0x80128C40 f
_ZN7dAcPy_c22finalizeState_WallJumpEv 0x80128E60 f
_ZN7dAcPy_c21executeState_WallJumpEv 0x80128EA0 f
_ZN7dAcPy_c14setSpinHoldReqEf   0x80128FA0      f
_ZN7dAcPy_c12setSpinSpeedEff    0x80128FE0      f
_ZN7dAcPy_c17setSpinJumpEffectEi 0x80129100     f
_ZN7dAcPy_c20setSpinJumpEffectSubEi 0x80129190  f
_ZN7dAcPy_c17endSpinJumpEffectEv 0x80129330     f
_ZN7dAcPy_c21setMissSpinJumpEffectEi 0x80129360 f
_ZN7dAcPy_c24initializeState_SpinJumpEv 0x80129470 f
_ZN7dAcPy_c21executeState_SpinJumpEv 0x80129640 f
_ZN7dAcPy_c22finalizeState_SpinJumpEv 0x801298D0 f
_ZN7dAcPy_c19isMissSpinEnableAnmEv 0x801299F0   f
_ZN7dAcPy_c16getMissSpinAngleEv 0x80129A50      f
_ZN7dAcPy_c11setMissSpinEv      0x80129A90      f
_ZN7dAcPy_c13resetMissSpinEv    0x80129AF0      f
_ZN7dAcPy_c14updateMissSpinEv   0x80129B00      f
_ZN7dAcPy_c27initializeState_RideOffJumpEv 0x80129B40 f
_ZN7dAcPy_c25finalizeState_RideOffJumpEv 0x80129C70 f
_ZN7dAcPy_c24executeState_RideOffJumpEv 0x80129D60 f
_ZN7dAcPy_c23initializeState_SitJumpEv 0x80129DE0 f
_ZN7dAcPy_c21finalizeState_SitJumpEv 0x80129EE0 f
_ZN7dAcPy_c20executeState_SitJumpEv 0x80129FE0  f
_ZN7dAcPy_c24initializeState_KaniJumpEv 0x8012A140 f
_ZN7dAcPy_c22finalizeState_KaniJumpEv 0x8012A200 f
_ZN7dAcPy_c21executeState_KaniJumpEv 0x8012A2B0 f
_ZN7dAcPy_c26initializeState_CannonJumpEv 0x8012A350 f
_ZN7dAcPy_c24finalizeState_CannonJumpEv 0x8012A4B0 f
_ZN7dAcPy_c23executeState_CannonJumpEv 0x8012A570 f
_ZN7dAcPy_c25initializeState_BlockJumpEv 0x8012A940 f
_ZN7dAcPy_c23finalizeState_BlockJumpEv 0x8012AA10 f
_ZN7dAcPy_c22executeState_BlockJumpEv 0x8012AA60 f
_ZN7dAcPy_c13setSlipActionEv    0x8012AB70      f
_ZN7dAcPy_c9setSlipSEEv         0x8012AC40      f
_ZN7dAcPy_c13setSlipEffectEv    0x8012AC80      f
_ZN7dAcPy_c14slipActionMoveEi   0x8012ACC0      f
_ZN7dAcPy_c20initializeState_SlipEv 0x8012AD30  f
_ZN7dAcPy_c18finalizeState_SlipEv 0x8012AD80    f
_ZN7dAcPy_c17executeState_SlipEv 0x8012ADC0     f
_ZN7dAcPy_c24initializeState_RollSlipEv 0x8012ADD0 f
_ZN7dAcPy_c22finalizeState_RollSlipEv 0x8012AEE0 f
_ZN7dAcPy_c21executeState_RollSlipEv 0x8012AFA0 f
_ZN7dAcPy_c28initializeState_PenguinSlideEv 0x8012B310 f
_ZN7dAcPy_c26finalizeState_PenguinSlideEv 0x8012B4F0 f
_ZN7dAcPy_c21checkPenguinSlideJumpEv 0x8012B580 f
_ZN7dAcPy_c25executeState_PenguinSlideEv 0x8012B6F0 f
_ZN7dAcPy_c21setPenguinSlideEffectEv 0x8012BCE0 f
_ZN7dAcPy_c25setPenguinSlideLandEffectEv 0x8012BE60 f
_ZN7dAcPy_c19isWaitFrameCountMaxEv 0x8012BEB0   f
_ZN7dAcPy_c19checkWalkNextActionEv 0x8012BED0   f
_ZN7dAcPy_c16setWalkActionAnmEN10daPlBase_c10AnmBlend_eE 0x8012C0B0 f
_ZN7dAcPy_c16setWaitActionAnmEN10daPlBase_c10AnmBlend_eE 0x8012C360 f
_ZN7dAcPy_c16isIceSlipAnmPlayEv 0x8012C720      f
_ZN7dAcPy_c16setNormalWalkAnmEN10daPlBase_c10AnmBlend_eEf 0x8012C780 f
_ZN7dAcPy_c19walkActionInit_WaitEN10daPlBase_c10AnmBlend_eE 0x8012CAC0 f
_ZN7dAcPy_c15walkAction_WaitEv  0x8012CAF0      f
_ZN4sLib9calcTimerIsEEsPs       0x8012CC10      f
_ZN7dAcPy_c19walkActionInit_MoveEN10daPlBase_c10AnmBlend_eE 0x8012CC30 f
_ZN7dAcPy_c15walkAction_MoveEv  0x8012CC50      f
_ZN7dAcPy_c20initializeState_WalkEv 0x8012CCE0  f
_ZN7dAcPy_c17executeState_WalkEv 0x8012CE10     f
_ZN7dAcPy_c18finalizeState_WalkEv 0x8012CF80    f
_ZN7dAcPy_c19setRunOnWaterEffectEv 0x8012D070   f
_ZN7dAcPy_c20initializeState_TurnEv 0x8012D0C0  f
_ZN7dAcPy_c18finalizeState_TurnEv 0x8012D200    f
_ZN7dAcPy_c12turnPowerSetEv     0x8012D250      f
_ZN7dAcPy_c18setTurnSmokeEffectEv 0x8012D340    f
_ZN7dAcPy_c17executeState_TurnEv 0x8012D390     f
_ZN7dAcPy_c11checkCrouchEv      0x8012D5D0      f
_ZN7dAcPy_c20setCrouchSmokeEffectEv 0x8012D6F0  f
_ZN7dAcPy_c22initializeState_CrouchEv 0x8012D760 f
_ZN7dAcPy_c20finalizeState_CrouchEv 0x8012D900  f
_ZN7dAcPy_c18CrouchActionGroundEv 0x8012D990    f
_ZN7dAcPy_c17CrouchActionWaterEv 0x8012DA80     f
_ZN7dAcPy_c19executeState_CrouchEv 0x8012DBA0   f
_ZN7dAcPy_c15setCancelCrouchEv  0x8012DCD0      f
_ZN7dAcPy_c14getCarryPlayerEv   0x8012DD20      f
_ZN7dAcPy_c19getCarryPropelBlockEv 0x8012DD60   f
_ZN7dAcPy_c19getCarryPropelActorEv 0x8012DDA0   f
_ZN7dAcPy_c17getCarryHardBlockEv 0x8012DE00     f
_ZN7dAcPy_c8isLiftUpEv          0x8012DE50      f
_ZN7dAcPy_c17isCarryMamePlayerEv 0x8012DEB0     f
_ZN7dAcPy_c18isLiftUpExceptMameEv 0x8012DEF0    f
_ZN7dAcPy_c15getLiftUpOffsetEv  0x8012DF60      f
_ZN7dAcPy_c11getCarryPosEv      0x8012DFC0      f
_ZN7dAcPy_c12getLiftUpPosEv     0x8012E0F0      f
_ZN7dAcPy_c22clearSpinLiftUpReserveEv 0x8012E260 f
_ZN7dAcPy_c22checkSpinLiftUpReserveEP5dCc_c 0x8012E280 f
_ZN7dAcPy_c20setSpinLiftUpReserveEv 0x8012E330  f
_ZN7dAcPy_c25checkSpinLiftUpRoofHeightEv 0x8012E4A0 f
hash_2EA784C5_AB00278F          0x8012E540      f
_ZN7dAcPy_c11cancelCarryEP8dActor_c 0x8012E650  f
_ZN7dAcPy_c17releaseCarryActorEv 0x8012E6E0     f
_ZN7dAcPy_c15setCarryOffFallEPK7dAcPy_c 0x8012E790 f
_ZN7dAcPy_c16checkEnableThrowEv 0x8012E820      f
_ZN7dAcPy_c15checkCarryThrowEv  0x8012E8A0      f
_ZN7dAcPy_c25initializeThrowCommonBaseEv 0x8012E960 f
_ZN7dAcPy_c21initializeThrowCommonEv 0x8012EA80 f
_ZN7dAcPy_c23finalizeThrowCommonBaseEv 0x8012EAD0 f
_ZN7dAcPy_c19finalizeThrowCommonEv 0x8012EAE0   f
_ZN7dAcPy_c13setThrowActorEv    0x8012EB50      f
_ZN7dAcPy_c18getWallBgPointDataEv 0x8012EF00    f
_ZN7dAcPy_c18getHeadBgPointDataEv 0x8012EF30    f
_ZN7dAcPy_c18executeThrowCommonEv 0x8012EF60    f
_ZN7dAcPy_c21initializeState_ThrowEv 0x8012F180 f
_ZN7dAcPy_c19finalizeState_ThrowEv 0x8012F190   f
_ZN7dAcPy_c18executeState_ThrowEv 0x8012F1A0    f
_ZN7dAcPy_c27initializeState_PropelThrowEv 0x8012F210 f
_ZN7dAcPy_c25finalizeState_PropelThrowEv 0x8012F220 f
_ZN7dAcPy_c24executeState_PropelThrowEv 0x8012F230 f
_ZN7dAcPy_c18isSpinLiftUpEnableEv 0x8012F2E0    f
_ZN7dAcPy_c18setSpinLiftUpActorEP8dActor_c 0x8012F3B0 f
_ZN7dAcPy_c22initializeState_LiftUpEv 0x8012F480 f
_ZN7dAcPy_c20finalizeState_LiftUpEv 0x8012F5A0  f
_ZN7dAcPy_c19executeState_LiftUpEv 0x8012F600   f
hash_1686BC50_6293F72C          0x8012F810      f
_ZN7dAcPy_c12setUzuSpeedYEf     0x8012F950      f
_ZN7dAcPy_c12setUzuSpeedFEf     0x8012FA20      f
_ZN7dAcPy_c16setUzuSwimActionEv 0x8012FAB0      f
_ZN7dAcPy_c13setSwimActionEv    0x8012FB40      f
_ZN7dAcPy_c16setWaterInEffectEv 0x8012FC50      f
_ZN7dAcPy_c17setWaterOutEffectEv 0x8012FE30     f
_ZN7dAcPy_c19setPaddleSwimEffectEv 0x8012FF90   f
_ZN7dAcPy_c21resetPaddleSwimEffectEv 0x80130030 f
_ZN7dAcPy_c25setWaterSurfaceSwimEffectEv 0x80130080 f
_ZN7dAcPy_c20setFlutterKickEffectEv 0x80130180  f
_ZN7dAcPy_c20initializeState_SwimEv 0x80130220  f
_ZN7dAcPy_c19setWaterSurfaceJumpEv 0x80130480   f
_ZN7dAcPy_c18setSwimAction_SwimEN10daPlBase_c10AnmBlend_eE 0x80130640 f
_ZN7dAcPy_c15SwimAction_SwimEv  0x801306F0      f
_ZN7dAcPy_c21setSeaLandSmokeEffectEv 0x80130B40 f
_ZN7dAcPy_c20setSwimActionWalkAnmEv 0x80130BB0  f
_ZN7dAcPy_c18setSwimAction_WalkEN10daPlBase_c10AnmBlend_eE 0x80130C60 f
_ZN7dAcPy_c18setWaterGroundJumpEv 0x80130D00    f
_ZN7dAcPy_c15SwimAction_WalkEv  0x80130D50      f
_ZN7dAcPy_c20getPenguinSwinAngleXEv 0x80130E20  f
_ZN7dAcPy_c21setSwimAction_PenguinEN10daPlBase_c10AnmBlend_eE 0x80130EE0 f
_ZN7dAcPy_c20setPenWaterMoveSpeedEi 0x80131080  f
_ZN7dAcPy_c20setPenguinPaddleSwimEv 0x80131510  f
_ZN7dAcPy_c18SwimAction_PenguinEv 0x801315B0    f
_ZN7dAcPy_c26setInitSwimAction_FireBallEv 0x80131840 f
_ZN7dAcPy_c22setSwimAction_FireBallEv 0x801318D0 f
_ZN7dAcPy_c19SwimAction_FireBallEv 0x801319B0   f
_ZN7dAcPy_c17setWaterMoveSpeedEv 0x80131AD0     f
_ZN7dAcPy_c17executeState_SwimEv 0x80131F20     f
_ZN7dAcPy_c24calcPenguinSwimGroundRevEv 0x80132060 f
_ZN7dAcPy_c18finalizeState_SwimEv 0x80132370    f
_ZN7dAcPy_c16setIvyHangEffectEv 0x80132480      f
_ZN7dAcPy_c13setVineActionEv    0x80132580      f
_ZN7dAcPy_c16getHangBcOffsetYEv 0x80132670      f
_ZN7dAcPy_c23setKaniHangToVineActionEv 0x801326C0 f
_ZN7dAcPy_c23setVineToKaniHangActionEv 0x801327F0 f
_ZN7dAcPy_c20initializeState_VineEv 0x80132930  f
_ZN7dAcPy_c13calcVineSpeedEv    0x80132BC0      f
_ZN7dAcPy_c12checkVineEndEv     0x80132DB0      f
_ZN7dAcPy_c13setVineWalkSEEv    0x80132E80      f
_ZN7dAcPy_c13VineActionIvyEv    0x80132F30      f
_ZN7dAcPy_c13VineActionNetEv    0x801330A0      f
_ZN7dAcPy_c16VineActionAttackEv 0x80133410      f
_ZN7dAcPy_c14VineActionRollEv   0x80133630      f
_ZN7dAcPy_c17executeState_VineEv 0x80133710     f
_ZN7dAcPy_c13checkNetPunchEv    0x80133780      f
_ZN7dAcPy_c16setAmiRollActionEP7mVec3_c 0x80133820 f
_ZN7dAcPy_c15isAmiRollActionEv  0x80133920      f
_ZN7dAcPy_c13setAmiRollPosEsf   0x801339A0      f
_ZN7dAcPy_c13setAmiRollPosEsfR7mVec3_c 0x80133A90 f
_ZN7dAcPy_c16endAmiRollActionEs 0x80133B20      f
_ZN7dAcPy_c18finalizeState_VineEv 0x80133BA0    f
_ZN7dAcPy_c18setCarryPlayerHangEf 0x80133C20    f
_ZN7dAcPy_c13setHangActionEv    0x80133CA0      f
_ZN7dAcPy_c20initializeState_HangEv 0x80133DF0  f
_ZN7dAcPy_c15HangActionStartEv  0x80133ED0      f
_ZN7dAcPy_c17setHangActionWaitEv 0x80133F50     f
_ZN7dAcPy_c14HangActionWaitEv   0x80133FA0      f
_ZN7dAcPy_c17setHangActionMoveEv 0x80134000     f
_ZN7dAcPy_c14HangActionMoveEv   0x80134090      f
_ZN7dAcPy_c17executeState_HangEv 0x80134190     f
_ZN7dAcPy_c18finalizeState_HangEv 0x80134240    f
_ZN7dAcPy_c16setPoleTurnAngleEv 0x801342A0      f
_ZN7dAcPy_c13setPoleActionEv    0x801342F0      f
_ZN7dAcPy_c20initializeState_PoleEv 0x801343C0  f
_ZN7dAcPy_c15PoleActionStartEv  0x80134550      f
_ZN7dAcPy_c17setPoleActionWaitEv 0x80134620     f
_ZN7dAcPy_c14PoleActionWaitEv   0x80134660      f
_ZN7dAcPy_c15setPoleActionUpEv  0x80134700      f
_ZN7dAcPy_c12PoleActionUpEv     0x80134740      f
_ZN7dAcPy_c17setPoleActionDownEv 0x80134840     f
_ZN7dAcPy_c14PoleActionDownEv   0x80134880      f
_ZN7dAcPy_c11setPoleJumpEv      0x80134990      f
_ZN7dAcPy_c16setPoleShakeJumpEv 0x80134A30      f
_ZN7dAcPy_c17executeState_PoleEv 0x80134AD0     f
_ZN7dAcPy_c18finalizeState_PoleEv 0x80134BF0    f
_ZN7dAcPy_c25setKaniActionInitHangHandEv 0x80134C50 f
_ZN7dAcPy_c17setKaniHangActionEv 0x80134D00     f
_ZN7dAcPy_c17setKaniWalkEffectEv 0x80134DC0     f
_ZN7dAcPy_c17setKaniHangEffectEv 0x80134E70     f
_ZN7dAcPy_c23setKaniCliffCatchEffectEv 0x80134F20 f
_ZN7dAcPy_c20initializeState_KaniEv 0x80135010  f
_ZN7dAcPy_c18finalizeState_KaniEv 0x80135120    f
_ZN7dAcPy_c16setKaniMoveSpeedEb 0x801351B0      f
_ZN7dAcPy_c22setKaniHangStartEffectEv 0x801352C0 f
_ZN7dAcPy_c18setKaniAction_WalkEv 0x801352D0    f
_ZN7dAcPy_c18setKaniAction_HangEv 0x80135360    f
_ZN7dAcPy_c22setKaniAction_JumpHangEv 0x80135400 f
_ZN7dAcPy_c22setKaniAction_HangFallEv 0x80135490 f
_ZN7dAcPy_c20setKaniAction_HangUpEv 0x801354F0  f
_ZN7dAcPy_c22setKaniAction_HangHandEv 0x80135580 f
_ZN7dAcPy_c24setKaniAction_HangUpVineEv 0x80135610 f
_ZN7dAcPy_c15KaniAction_WalkEv  0x80135670      f
_ZN7dAcPy_c19KaniAction_HangInitEv 0x80135860   f
_ZN7dAcPy_c23KaniAction_JumpHangInitEv 0x801358F0 f
_ZN7dAcPy_c24checkCliffHangFootGroundEv 0x80135950 f
_ZN7dAcPy_c19checkCliffHangWaterEv 0x80135A20   f
_ZN7dAcPy_c15KaniAction_HangEv  0x80135B00      f
_ZN7dAcPy_c19KaniAction_HangFallEv 0x80135D60   f
_ZN7dAcPy_c17KaniAction_HangUpEv 0x80135DE0     f
_ZN7dAcPy_c21KaniAction_HangUpVineEv 0x80135E60 f
_ZN7dAcPy_c17executeState_KaniEv 0x80135E70     f
_ZN7dAcPy_c14setCatchRopeSEEv   0x80135FB0      f
_ZN7dAcPy_c14setClimbRopeSEEv   0x80136030      f
_ZN7dAcPy_c14setSlideRopeSEEv   0x80136060      f
_ZN7dAcPy_c15setRopeHasigoSEEv  0x80136090      f
_ZN7dAcPy_c16releasePoleCheckEv 0x80136100      f
_ZN7dAcPy_c19setTarzanRopeActionEv 0x80136140   f
_ZN7dAcPy_c26initializeState_TarzanRopeEv 0x801362D0 f
_ZN7dAcPy_c24finalizeState_TarzanRopeEv 0x80136480 f
_ZN7dAcPy_c17setTarzanRopeJumpEv 0x80136500     f
_ZN7dAcPy_c15updateRopeAngleEv  0x80136790      f
_ZN7dAcPy_c15setRopeSwingAnmEff 0x80136820      f
_ZN7dAcPy_c17checkStartSwingUpEv 0x80136850     f
_ZN7dAcPy_c19checkStartSwingDownEv 0x80136920   f
_ZN7dAcPy_c18updateRopeSwingAnmEv 0x80136A30    f
_ZN7dAcPy_c21TarzanRopeActionStartEv 0x80136CA0 f
_ZN7dAcPy_c23setTarzanRopeActionWaitEv 0x80136CF0 f
_ZN7dAcPy_c20TarzanRopeActionWaitEv 0x80136D50  f
_ZN7dAcPy_c21setTarzanRopeActionUpEv 0x80136DD0 f
_ZN7dAcPy_c18TarzanRopeActionUpEv 0x80136E10    f
_ZN7dAcPy_c23setTarzanRopeActionDownEv 0x80136F10 f
_ZN7dAcPy_c20TarzanRopeActionDownEv 0x80136F50  f
_ZN7dAcPy_c29setTarzanRopeActionHasigoMoveEv 0x80136FE0 f
_ZN7dAcPy_c26TarzanRopeActionHasigoMoveEv 0x80136FF0 f
_ZN7dAcPy_c30TarzanRopeActionHasigoHangDownEv 0x80137170 f
_ZN7dAcPy_c31setTarzanRopeActionHasigoHangUpEv 0x80137270 f
_ZN7dAcPy_c28TarzanRopeActionHasigoHangUpEv 0x80137370 f
_ZN7dAcPy_c23executeState_TarzanRopeEv 0x80137460 f
_ZN7dAcPy_c16startQuakeActionEN7dAcPy_c11QuakeMode_eE 0x80137650 f
_ZN7dAcPy_c14setQuakeActionEiN7dAcPy_c11QuakeMode_eE 0x80137690 f
_ZN7dAcPy_c19setQuakeActionLocalEiN7dAcPy_c11QuakeMode_eE 0x801376D0 f
_ZN7dAcPy_c14endQuakeActionEv   0x80137790      f
_ZN7dAcPy_c21initializeState_QuakeEv 0x80137810 f
_ZN7dAcPy_c19finalizeState_QuakeEv 0x801378E0   f
_ZN7dAcPy_c18executeState_QuakeEv 0x80137940    f
_ZN7dAcPy_c18setQuakeNumbEffectEv 0x801379F0    f
_ZN7dAcPy_c25initializeState_ElecShockEv 0x80137A90 f
_ZN7dAcPy_c23finalizeState_ElecShockEv 0x80137AF0 f
_ZN7dAcPy_c22executeState_ElecShockEv 0x80137B30 f
_ZN7dAcPy_c13initElecShockEv    0x80137BD0      f
_ZN7dAcPy_c16executeElecShockEv 0x80137C60      f
_ZN7dAcPy_c13setElecEffectEv    0x80137CA0      f
_ZN7dAcPy_c18setFlyDamageActionEiP8dActor_c 0x80137D50 f
_ZN7dAcPy_c25initializeState_FlyDamageEv 0x80137F60 f
_ZN7dAcPy_c23finalizeState_FlyDamageEv 0x80138210 f
_ZN7dAcPy_c22executeState_FlyDamageEv 0x80138280 f
_ZN7dAcPy_c19setBreakBalloonJumpEhs 0x80138650  f
_ZN7dAcPy_c22setDrawBalloonInPlayerER7mVec3_c 0x801387F0 f
_ZN7dAcPy_c18isNotBalloonCourseEv 0x80138890    f
_ZN7dAcPy_c23initializeState_BalloonEv 0x801388D0 f
_ZN7dAcPy_c21finalizeState_BalloonEv 0x80138AD0 f
_ZN7dAcPy_c20executeState_BalloonEv 0x80138BD0  f
_ZN7dAcPy_c19setBalloonHelpVoiceEv 0x80138E80   f
_ZN7dAcPy_c20setBalloonInNextgotoEv 0x80138F10  f
_ZN7dAcPy_c18setBalloonInDamageEv 0x80138FA0    f
_ZN7dAcPy_c17setBalloonButtonAEv 0x80139080     f
_ZN7dAcPy_c19checkAllBalloonFadeEv 0x801392C0   f
_ZN7dAcPy_c26setBalloonInDispOutByYoshiEi 0x80139330 f
_ZN7dAcPy_c19setBalloonInDispOutEi 0x80139340   f
_ZN7dAcPy_c23setBalloonInDispOutBaseEii 0x80139350 f
_ZN7dAcPy_c11setShakeIceEf      0x80139510      f
_ZN7dAcPy_c13getIceDrawPosEv    0x80139560      f
hash_F2D10153_C4F7AE41          0x801395A0      f
_ZN7dAcPy_c25initializeState_IceDamageEv 0x801395E0 f
_ZN7dAcPy_c23finalizeState_IceDamageEv 0x80139700 f
_ZN7dAcPy_c22executeState_IceDamageEv 0x80139780 f
_ZN7dAcPy_c20setRideOffPlayerJumpEff 0x80139800 f
_ZN7dAcPy_c19setRideOffYoshiJumpEP10daPlBase_c 0x80139910 f
_ZN7dAcPy_c12getRideYoshiEv     0x80139A90      f
_ZN7dAcPy_c14setRideOnYoshiEP9daYoshi_c 0x80139AE0 f
_ZN7dAcPy_c25initializeState_RideYoshiEv 0x80139B50 f
_ZN7dAcPy_c23finalizeState_RideYoshiEv 0x80139BD0 f
_ZN7dAcPy_c22executeState_RideYoshiEv 0x80139CC0 f
_ZN7dAcPy_c21initializeState_CloudEv 0x80139D90 f
_ZN7dAcPy_c19finalizeState_CloudEv 0x80139DD0   f
_ZN7dAcPy_c15getCloudOffsetYEv  0x80139E40      f
_ZN7dAcPy_c17setCloudStateMoveEv 0x80139EC0     f
_ZN7dAcPy_c21checkCloudStateCrouchEv 0x80139F20 f
_ZN7dAcPy_c23setCloudStateFireCreateEv 0x80139FD0 f
_ZN7dAcPy_c18executeState_CloudEv 0x8013A070    f
_ZN7dAcPy_c15checkCarryActorEP7dAcPy_c 0x8013A290 f
_ZN7dAcPy_c18setDropCarryPlayerEv 0x8013A2C0    f
_ZN7dAcPy_c27initializeState_CarryPlayerEv 0x8013A570 f
_ZN7dAcPy_c25finalizeState_CarryPlayerEv 0x8013A680 f
_ZN7dAcPy_c24executeState_CarryPlayerEv 0x8013A7B0 f
_ZN7dAcPy_c23setCarryPlayerMode_MoveEf 0x8013A9C0 f
_ZN7dAcPy_c23setCarryPlayerMode_FireEv 0x8013AA60 f
_ZN7dAcPy_c25setCarryPlayerMode_CrouchEv 0x8013AB10 f
_ZN7dAcPy_c16initRideSpinMoveEv 0x8013AB80      f
_ZN7dAcPy_c15endRideSpinMoveEv  0x8013ABD0      f
_ZN7dAcPy_c13getRidePlayerEv    0x8013ABE0      f
_ZN7dAcPy_c15setYoshiBackPosEv  0x8013AC30      f
_ZN7dAcPy_c16setPlayerHandPosEv 0x8013ACE0      f
_ZN7dAcPy_c12setEatTongueEP8dActor_c 0x8013AD90 f
_ZN7dAcPy_c15setEatTongueOffEP8dActor_c 0x8013ADB0 f
_ZN7dAcPy_c11setEatMouthEP8dActor_c 0x8013ADD0  f
_ZN7dAcPy_c13setEatSpitOutEP8dActor_c 0x8013AE70 f
_ZN7dAcPy_c15setPlayerEatPosEP8dActor_c 0x8013B1F0 f
_ZN7dAcPy_c7eatMoveEP8dActor_c  0x8013B2C0      f
_ZN7dAcPy_c25initializeState_PlayerEatEv 0x8013B370 f
_ZN7dAcPy_c23finalizeState_PlayerEatEv 0x8013B460 f
_ZN7dAcPy_c22executeState_PlayerEatEv 0x8013B510 f
_ZN7dAcPy_c17setPlayerEatReactEv 0x8013B5C0     f
_ZN7dAcPy_c14setRideJrCrownEPK8dActor_c 0x8013B690 f
_ZN7dAcPy_c16isRideJrCrownOwnEPK8dActor_c 0x8013B6F0 f
_ZN7dAcPy_c17setRideJrCrownMtxEPK6mMtx_c 0x8013B750 f
_ZN7dAcPy_c13setJrCrownPosEv    0x8013B800      f
_ZN7dAcPy_c17setRideJrCrownAnmEi 0x8013B850     f
_ZN7dAcPy_c23initializeState_JrCrownEv 0x8013B8E0 f
_ZN7dAcPy_c21finalizeState_JrCrownEv 0x8013B980 f
_ZN7dAcPy_c20executeState_JrCrownEv 0x8013BA00  f
_ZN7dAcPy_c20setJrCrownElecDamageEv 0x8013BAC0  f
_ZN7dAcPy_c16checkSetFireBallEv 0x8013BB00      f
_ZN7dAcPy_c17setFireBallActionEv 0x8013BBC0     f
_ZN7dAcPy_c13checkFireJumpEv    0x8013BC40      f
_ZN7dAcPy_c14createFireBallEi   0x8013BCD0      f
_ZN7dAcPy_c20initializeState_FireEv 0x8013BF10  f
_ZN7dAcPy_c18finalizeState_FireEv 0x8013BFC0    f
_ZN7dAcPy_c17executeState_FireEv 0x8013C050     f
_ZN7dAcPy_c15setSpinFireBallEv  0x8013C2F0      f
_ZN7dAcPy_c15setPropelActionEv  0x8013C3C0      f
_ZN7dAcPy_c18resetPropelFlyTimeEv 0x8013C4C0    f
_ZN7dAcPy_c20clearPropelFlyUpTimeEv 0x8013C4E0  f
_ZN7dAcPy_c20calcPropelMoveSpeedFEv 0x8013C530  f
_ZN7dAcPy_c22setPropelActionFlyInitEv 0x8013C660 f
_ZN7dAcPy_c21setPropelActionBigFlyEv 0x8013C730 f
_ZN7dAcPy_c18setPropelActionFlyEv 0x8013C7A0    f
_ZN7dAcPy_c15PropelActionFlyEv  0x8013C800      f
_ZN7dAcPy_c19setPropelActionFallEv 0x8013C900   f
_ZN7dAcPy_c16PropelActionFallEv 0x8013C990      f
_ZN7dAcPy_c22initializeState_PropelEv 0x8013CBC0 f
_ZN7dAcPy_c20finalizeState_PropelEv 0x8013CCD0  f
_ZN7dAcPy_c19executeState_PropelEv 0x8013CDD0   f
_ZN7dAcPy_c17updatePropelPartsEv 0x8013CF40     f
_ZN7dAcPy_c24updatePropelFlyPartsMoveEv 0x8013D0B0 f
_ZN7dAcPy_c21endPropelFlyPartsMoveEv 0x8013D150 f
_ZN7dAcPy_c24setPropelSpinSmokeEffectEv 0x8013D1A0 f
_ZN7dAcPy_c24setStartPropelJumpEffectEv 0x8013D280 f
_ZN7dAcPy_c23setPropelFallSpinEffectEv 0x8013D320 f
_ZN7dAcPy_c24calcPropelFallSpinEffectEv 0x8013D370 f
_ZN7dAcPy_c24stopPropelFallSpinEffectEv 0x8013D4F0 f
_ZN7dAcPy_c17initDemo_DownPoseEv 0x8013D540     f
_ZN7dAcPy_c17initDemo_DownFallEv 0x8013D620     f
_ZN7dAcPy_c16exeDemo_DownFallEv 0x8013D740      f
_ZN7dAcPy_c9checkRestEv         0x8013D7B0      f
_ZN7dAcPy_c20initPlayerDownCommonEv 0x8013D920  f
_ZN7dAcPy_c17stopOtherDownDemoEv 0x8013DA30     f
_ZN7dAcPy_c17playOtherDownDemoEv 0x8013DB30     f
_ZN7dAcPy_c15setTimeOverDemoEv  0x8013DBA0      f
_ZN7dAcPy_c24initializeState_DemoDownEv 0x8013DC40 f
_ZN7dAcPy_c22finalizeState_DemoDownEv 0x8013DD60 f
_ZN7dAcPy_c21executeState_DemoDownEv 0x8013DD70 f
_ZN7dAcPy_c15setFallDownDemoEv  0x8013DF10      f
_ZN7dAcPy_c28initializeState_DemoFallDownEv 0x8013DF80 f
_ZN7dAcPy_c26finalizeState_DemoFallDownEv 0x8013E080 f
_ZN7dAcPy_c25executeState_DemoFallDownEv 0x8013E090 f
_ZN7dAcPy_c28initializeState_DemoFireDownEv 0x8013E140 f
_ZN7dAcPy_c26finalizeState_DemoFireDownEv 0x8013E2A0 f
_ZN7dAcPy_c25executeState_DemoFireDownEv 0x8013E2B0 f
_ZN7dAcPy_c15setPlayerEatDieEv  0x8013E4C0      f
_ZN7dAcPy_c26initializeState_DemoEatDieEv 0x8013E540 f
_ZN7dAcPy_c24finalizeState_DemoEatDieEv 0x8013E5B0 f
_ZN7dAcPy_c23executeState_DemoEatDieEv 0x8013E5F0 f
_ZN7dAcPy_c13releaseEatDieEv    0x8013E700      f
_ZN7dAcPy_c13setEatDieHideEv    0x8013E770      f
_ZN7dAcPy_c16setEatDieFadeOutEv 0x8013E800      f
_ZN7dAcPy_c16setEatDieSpitOutEv 0x8013E890      f
_ZN7dAcPy_c20setEatDieScreamVoiceEv 0x8013E900  f
_ZN7dAcPy_c15searchDoorActorEv  0x8013E990      f
_ZN7dAcPy_c26initializeState_DemoInDoorEv 0x8013EA60 f
_ZN7dAcPy_c24finalizeState_DemoInDoorEv 0x8013EB70 f
_ZN7dAcPy_c18setDemoInDoor_WalkEv 0x8013EB90    f
_ZN7dAcPy_c23executeState_DemoInDoorEv 0x8013EBD0 f
_ZN7dAcPy_c26initializeState_DemoInJumpEv 0x8013EE50 f
_ZN7dAcPy_c24finalizeState_DemoInJumpEv 0x8013EF30 f
_ZN7dAcPy_c23executeState_DemoInJumpEv 0x8013EF40 f
_ZN7dAcPy_c26initializeState_DemoInVineEv 0x8013F090 f
_ZN7dAcPy_c24finalizeState_DemoInVineEv 0x8013F120 f
_ZN7dAcPy_c23executeState_DemoInVineEv 0x8013F130 f
_ZN7dAcPy_c16isDoorDemoEnableEv 0x8013F240      f
_ZN7dAcPy_c11setDoorDemoEP8dActor_c 0x8013F300  f
_ZN7dAcPy_c27initializeState_DemoOutDoorEv 0x8013F490 f
_ZN7dAcPy_c25finalizeState_DemoOutDoorEv 0x8013F600 f
_ZN7dAcPy_c23exeDemoOutDoor_OpenDoorEv 0x8013F610 f
_ZN7dAcPy_c26initDemoOutDoor_MoveCenterEv 0x8013F6B0 f
_ZN7dAcPy_c25exeDemoOutDoor_MoveCenterEv 0x8013F760 f
_ZN7dAcPy_c25initDemoOutDoor_MoveInterEv 0x8013F820 f
_ZN7dAcPy_c24exeDemoOutDoor_MoveInterEv 0x8013F890 f
_ZN7dAcPy_c24exeDemoOutDoor_WaitCloseEv 0x8013FA00 f
_ZN7dAcPy_c24exeDemoOutDoor_WaitEnterEv 0x8013FA90 f
_ZN7dAcPy_c24executeState_DemoOutDoorEv 0x8013FAE0 f
hash_A8370FB0_7FB6C71F          0x8013FB20      f
_ZN7dAcPy_c18endDemoDokanCannonER7mVec3_c 0x8013FBE0 f
_ZN7dAcPy_c15isDokanCannonInEv  0x8013FC00      f
_ZN7dAcPy_c31initializeState_DemoDokanCannonEv 0x8013FC80 f
_ZN7dAcPy_c29finalizeState_DemoDokanCannonEv 0x8013FCF0 f
_ZN7dAcPy_c28executeState_DemoDokanCannonEv 0x8013FD30 f
_ZN7dAcPy_c11setDemoGoalER7mVec3_cfh 0x8013FE20 f
_ZN7dAcPy_c17setOffYoshiInGoalEP10daPlBase_c 0x8013FEB0 f
_ZN7dAcPy_c20setHideNotGoalPlayerEv 0x8013FF40  f
_ZN7dAcPy_c16initDemoGoalBaseEv 0x8013FFC0      f
_ZN7dAcPy_c19executeDemoGoal_RunEv 0x801400B0   f
_ZN7dAcPy_c18updateDemoKimePoseEN10daPlBase_c11ClearType_eE 0x80140440 f
_ZN7dAcPy_c21initializeDemoControlEv 0x801406D0 f
_ZN7dAcPy_c17setDemoCannonWarpEiss 0x80140720   f
_ZN7dAcPy_c30initializeState_DemoCannonWarpEv 0x801407B0 f
_ZN7dAcPy_c28finalizeState_DemoCannonWarpEv 0x80140820 f
_ZN7dAcPy_c27executeState_DemoCannonWarpEv 0x80140830 f
_ZN7dAcPy_c21isEnableDokanInStatusEv 0x80140B70 f
_ZN7dAcPy_c10setDokanInEN10daPlBase_c10DokanDir_eE 0x80140C30 f
_ZN7dAcPy_c16initDemoOutDokanEv 0x80140D70      f
_ZN7dAcPy_c11initialDoorEv      0x80140DD0      f
_ZN7dAcPy_c16initialJumpRightEv 0x80140DE0      f
_ZN7dAcPy_c15initialJumpLeftEv  0x80140DF0      f
_ZN7dAcPy_c11initialVineEv      0x80140E00      f
_ZN7dAcPy_c11initialSwimEv      0x80140E10      f
_ZN7dAcPy_c16initialBlockJumpEv 0x80140E90      f
_ZN7dAcPy_c21initialBlockJumpBelowEv 0x80140EF0 f
_ZN7dAcPy_c15setCreateActionEi  0x80140F50      f
_ZN7dAcPy_c14initChangeInitEv   0x80141020      f
_ZN7dAcPy_c17executeChangeInitEv 0x80141080     f
_ZN7dAcPy_c24change_reverse_scale_setEv 0x80141130 f
_ZN7dAcPy_c16initChangeNormalEv 0x80141280      f
_ZN7dAcPy_c19executeChangeNormalEv 0x80141460   f
_ZN7dAcPy_c9setChangeEi         0x801415A0      f
_ZN7dAcPy_c12updateChangeEv     0x80141600      f
hash_41AF0D15_B6263789          0x801416C0      f
_ZN7dAcPy_c29initializeState_DemoStartWaitEv 0x801416E0 f
_ZN7dAcPy_c26executeState_DemoStartWaitEv 0x801416F0 f
_ZN7dAcPy_c27finalizeState_DemoStartWaitEv 0x80141770 f
_ZN7dAcPy_c17setFireBallDamageEh 0x80141780     f
_ZN7dAcPy_c13ccCheckAttackEP5dCc_cP5dCc_c 0x80141830 f
_ZN7dAcPy_c12ccCheckStampEP5dCc_cP5dCc_c 0x80141BA0 f
_ZN7dAcPy_c14ccCheckSideHitEP5dCc_cP5dCc_c 0x80141D30 f
_ZN7dAcPy_c10ccCallBackEP5dCc_cP5dCc_c 0x80141E10 f
_ZN7dAcPy_c15setCcDataDirectEv  0x80141F70      f
_ZN7dAcPy_c15setCcAtNetPunchEv  0x80141FD0      f
_ZN7dAcPy_c11setCcAtSpinEv      0x80142020      f
_ZN7dAcPy_c15setCcAtSpinFallEv  0x80142080      f
hash_85096B4E_7AF099BC          0x801420B0      f
_ZN7dAcPy_c17setCcAtSpinLiftUpEv 0x80142110     f
_ZN7dAcPy_c9setCcDataEv         0x80142170      f
_ZN7dAcPy_c12atCcCallBackEP5dCc_cP5dCc_c 0x80142570 f
hash_83419BE9_6150252F          0x80142650      f
_ZN7dAcPy_c20getStandHeadBgPointYEv 0x80142670  f
_ZN7dAcPy_c14getBgPointDataEv   0x801426C0      f
_ZN7dAcPy_c9setBcDataEi         0x801427A0      f
hash_9F038C8A_AEAC8976          0x80143060      f
hash_B9B1D401_2EBFDCFD          0x80143220      f
hash_638BD13C_C2136420          0x80143430      f
hash_3D248EE6_6804765A          0x80143550      f
_ZN7dAcPy_c10initCcDataEv       0x80143600      f
_ZN7dAcPy_c10initBcDataEv       0x80143620      f
_ZN7dAcPy_c15maxFallSpeedSetEv  0x80143670      f
_ZN7dAcPy_c18set1UpKinokoEffectEv 0x801436C0    f
_ZN7dAcPy_c16setFlagGetEffectEv 0x801436D0      f
_ZN7dAcPy_c15setFollowEffectEi  0x80143720      f
_ZN7dAcPy_c18updateFollowEffectEv 0x80143830    f
_ZN7dAcPy_c13calcTimerProcEv    0x801438D0      f
_ZN4sLib9calcTimerIhEEhPh       0x801439C0      f
_ZN7dAcPy_c11executeMainEv      0x801439E0      f
_ZN7dAcPy_c15checkBgCrossSubEv  0x80143BD0      f
_ZN7dAcPy_c11postBgCrossEv      0x80143D70      f
_ZN7dAcPy_c19clearJumpActionInfoEi 0x80144170   f
_ZN7dAcPy_c15getSandSinkRateEv  0x80144240      f
_ZN7dAcPy_c16setPressBgDamageEii 0x80144250     f
_Z17dAcPy_c_classInitv          0x801443C0      f
_ZN7dAcPy_cC1Ev                 0x801443F0      f
_ZN5dPc_cD0Ev                   0x801447E0      f
_ZN7dAcPy_cD0Ev                 0x80144820      f
_ZN7dAcPy_c8doDeleteEv          0x80144BE0      f
_ZN7dAcPy_c18setSceneChangeInfoEv 0x80144C60    f
_ZN10dScStage_c11getExitModeEv  0x80144E90      f
_ZN7dAcPy_c6createEv            0x80144EA0      f
_ZN7dAcPy_c10preExecuteEv       0x80145180      f
_ZN7dAcPy_c11postExecuteEN7fBase_c12MAIN_STATE_eE 0x801451E0 f
_ZN7dAcPy_c12selectActionEv     0x80145330      f
_ZN7dAcPy_c17executeLastPlayerEv 0x80145580     f
_ZN7dAcPy_c14executeLastAllEv   0x80145660      f
_ZN7dAcPy_c9calcModelEv         0x80145790      f
_ZN7dAcPy_c17getModelScaleBaseEv 0x80145AC0     f
_ZN7dAcPy_c13getModelScaleEv    0x80145AF0      f
_ZN7dAcPy_c4drawEv              0x80145BA0      f
hash_321DEF2F_02407793          0x80145C00      f
_ZN7dAcPy_c7setStarEN10daPlBase_c9StarSet_eEi 0x80145C90 f
_ZN7dAcPy_c11setStarBaseEN10daPlBase_c9StarSet_eEi 0x80145D10 f
_ZN7dAcPy_c7endStarEv           0x80145D90      f
_ZN7dAcPy_c13calcStarTimerEv    0x80145E00      f
_ZN7dAcPy_c12setVirusStarEP10daPlBase_c 0x80145F30 f
_ZN7dAcPy_c16setWaterWalkFlagEv 0x80145F80      f
hash_CE587EAF_7429115D          0x80145FD0      f
_ZN7dAcPy_c10isNoDamageEv       0x801461A0      f
_ZN7dAcPy_c9setDamageEP8dActor_cN10daPlBase_c12DamageType_eE 0x80146230 f
_ZN7dAcPy_c15setForcedDamageEP8dActor_cN10daPlBase_c12DamageType_eE 0x80146310 f
_ZN7dAcPy_c10setDamage2EP8dActor_cN10daPlBase_c12DamageType_eE 0x801463E0 f
_ZN7dAcPy_c11getTallTypeEa      0x801466C0      f
_ZN7dAcPy_c15setCenterOffsetEv  0x80146710      f
_ZN7dAcPy_c13setPlayerDataEv    0x80146810      f
_ZN7dAcPy_c12setSpeedDataEv     0x80146840      f
_ZN7dAcPy_c14setModeGravityEv   0x80146880      f
_ZN7dAcPy_c14getGravityDataEv   0x801468B0      f
hash_2BE02D90_3F30179A          0x801468F0      f
hash_B41768D2_01FE21AA          0x80146A10      f
hash_038EC158_938F9420          0x80146B10      f
hash_97593259_A61C276F          0x80146E40      f
_ZN7dAcPy_c13setCannonJumpEffi  0x80146F60      f
_ZN7dAcPy_c12setSwimSpeedEff    0x80146FD0      f
_ZN7dAcPy_c18isEnablePropelJumpEv 0x80147040    f
_ZN7dAcPy_c17getSpinActionModeEv 0x801470E0     f
_ZN7dAcPy_c16setSpinActionReqEv 0x80147180      f
_ZN7dAcPy_c13setSpinActionEv    0x80147240      f
_ZN7dAcPy_c13setScrollModeEa    0x80147390      f
_ZN7dAcPy_c18setInvalidKeyTimerEii 0x801473F0   f
_ZN7dAcPy_c21setInvalidKeyTimer_LREii 0x80147410 f
_ZN7dAcPy_c19calcInvalidKeyTimerEv 0x80147430   f
_ZN7dAcPy_c15startQuakeShockEN8dQuake_c12TYPE_SHOCK_eE 0x80147530 f
_ZN7dAcPy_c18startPatternRumbleEPKc 0x80147590  f
_ZN7dAcPy_c16setItemGetEffectEv 0x801475F0      f
_ZN7dAcPy_c22setChukanPowerUpEffectEv 0x80147610 f
_ZN7dAcPy_c16endPowerUpEffectEv 0x80147630      f
_ZN7dAcPy_c19updateItemGetEffectEv 0x801476A0   f
hash_9B640B6C_7736FF3E          0x801477C0      f
_ZN7dAcPy_c23searchKinopioNearPlayerEPf 0x80147840 f
_ZN7dAcPy_c21managePropelFukidashiEv 0x80147960 f
_ZN7dAcPy_c18isDrawingFukidashiEv 0x80147BC0    f
_ZN7dAcPy_c23isDrawingCarryFukidashiEv 0x80147CA0 f
_ZN7dAcPy_c18getFootBgPointDataEv 0x80147D00    f
__sinit_\d_a_player_cpp         0x80147D10      f
_ZN11sFStateID_cI7dAcPy_cED0Ev  0x8014A3A0      f
_ZN18sFStateVirtualID_cI7dAcPy_cED0Ev 0x8014A400 f
__arraydtor$87879               0x8014A460      f
_Z15baseID_DemoDownI10daPlBase_cERK12sStateIDIf_cv 0x8014A480 f
_Z12baseID_CloudI10daPlBase_cERK12sStateIDIf_cv 0x8014A490 f
_Z11baseID_KaniI10daPlBase_cERK12sStateIDIf_cv 0x8014A4A0 f
_Z11baseID_SwimI10daPlBase_cERK12sStateIDIf_cv 0x8014A4B0 f
_Z16baseID_HipAttackI10daPlBase_cERK12sStateIDIf_cv 0x8014A4C0 f
_Z11baseID_TurnI10daPlBase_cERK12sStateIDIf_cv 0x8014A4D0 f
_Z11baseID_SlipI10daPlBase_cERK12sStateIDIf_cv 0x8014A4E0 f
_Z14baseID_SitJumpI10daPlBase_cERK12sStateIDIf_cv 0x8014A4F0 f
_Z13baseID_CrouchI10daPlBase_cERK12sStateIDIf_cv 0x8014A500 f
_Z11baseID_LandI10daPlBase_cERK12sStateIDIf_cv 0x8014A510 f
_Z11baseID_FallI10daPlBase_cERK12sStateIDIf_cv 0x8014A520 f
_Z11baseID_JumpI10daPlBase_cERK12sStateIDIf_cv 0x8014A530 f
_Z11baseID_WalkI10daPlBase_cERK12sStateIDIf_cv 0x8014A540 f
_ZNK18sFStateVirtualID_cI7dAcPy_cE6numberEv 0x8014A550 f
_ZNK18sFStateVirtualID_cI7dAcPy_cE7superIDEv 0x8014A630 f
_ZNK11sFStateID_cI7dAcPy_cE10isSameNameEPKc 0x8014A710 f
_ZNK11sFStateID_cI7dAcPy_cE15initializeStateER7dAcPy_c 0x8014A7A0 f
_ZNK11sFStateID_cI7dAcPy_cE12executeStateER7dAcPy_c 0x8014A7D0 f
_ZNK11sFStateID_cI7dAcPy_cE13finalizeStateER7dAcPy_c 0x8014A800 f
_Z20daPlyIce_c_classInitv       0x8014A830      f
_ZN10daPlyIce_c6createEv        0x8014AAA0      f
_ZN10daPlyIce_c11createModelEv  0x8014AC30      f
_ZN10daPlyIce_c11deleteReadyEv  0x8014AD30      f
_ZN10daPlyIce_c8doDeleteEv      0x8014AD40      f
_ZN10daPlyIce_c13executeActionEv 0x8014AD50     f
_ZN10daPlyIce_c7executeEv       0x8014AEF0      f
_ZN10daPlyIce_c17setDamageBreakIceEv 0x8014AF70 f
_ZN10daPlyIce_c18setRevivalBreakIceEv 0x8014B030 f
_ZN10daPlyIce_c14callBackCommonEP8dActor_c 0x8014B100 f
_ZN10daPlyIce_c12callBackFootEP8dActor_cP8dActor_c 0x8014B140 f
_ZN10daPlyIce_c12callBackHeadEP8dActor_cP8dActor_c 0x8014B160 f
_ZN10daPlyIce_c12callBackWallEP8dActor_cP8dActor_ch 0x8014B180 f
_ZN10daPlyIce_c4drawEv          0x8014B1A0      f
_ZN10daPlyIce_cD0Ev             0x8014B270      f
_Z19daYoshi_c_classInitv        0x8014B400      f
_ZN9daYoshi_cC1Ev               0x8014B430      f
_ZN9sFState_cI9daYoshi_cED0Ev   0x8014B570      f
_ZN12sFStateFct_cI9daYoshi_cED0Ev 0x8014B5B0    f
_ZN11sStateMgr_cI9daYoshi_c20sStateMethodUsr_FI_c12sFStateFct_c13sStateIDChk_cED0Ev 0x8014B5F0 f
_ZN12sFStateMgr_cI9daYoshi_c20sStateMethodUsr_FI_cED0Ev 0x8014B650 f
_ZN9daYoshi_cD0Ev               0x8014B6C0      f
_ZN9daYoshi_c6createEv          0x8014B7B0      f
_ZN9daYoshi_c8doDeleteEv        0x8014B990      f
_ZN9daYoshi_c10preExecuteEv     0x8014BA00      f
_ZN9daYoshi_c11changeStateERK12sStateIDIf_cPv 0x8014BA60 f
_ZN9daYoshi_c12getMukiAngleEh   0x8014BB50      f
_ZN9daYoshi_c9turnAngleEv       0x8014BB60      f
_ZN9daYoshi_c25initializeState_AloneWaitEv 0x8014BC20 f
_ZN9daYoshi_c23finalizeState_AloneWaitEv 0x8014BD20 f
_ZN9daYoshi_c22executeState_AloneWaitEv 0x8014BD30 f
_ZN9daYoshi_c24initializeState_BlockOutEv 0x8014BF90 f
_ZN9daYoshi_c22finalizeState_BlockOutEv 0x8014C0F0 f
_ZN9daYoshi_c21executeState_BlockOutEv 0x8014C160 f
_ZN9daYoshi_c25initializeState_DamageRunEv 0x8014C2B0 f
_ZN9daYoshi_c23finalizeState_DamageRunEv 0x8014C340 f
_ZN9daYoshi_c22executeState_DamageRunEv 0x8014C380 f
_ZN9daYoshi_c18setDamageRunEffectEv 0x8014C470  f
_ZN9daYoshi_c27initializeState_StartRideOnEv 0x8014C4E0 f
_ZN9daYoshi_c25finalizeState_StartRideOnEv 0x8014C540 f
_ZN9daYoshi_c24executeState_StartRideOnEv 0x8014C550 f
_ZN9daYoshi_c16changeWalkActionEv 0x8014C640    f
_ZN9daYoshi_c19checkWalkNextActionEv 0x8014C6B0 f
_ZN9daYoshi_c20initializeState_WalkEv 0x8014C7D0 f
_ZN9daYoshi_c18finalizeState_WalkEv 0x8014C870  f
_ZN9daYoshi_c17executeState_WalkEv 0x8014C8C0   f
_ZN9daYoshi_c19walkActionInit_WaitEN10daPlBase_c10AnmBlend_eE 0x8014C9E0 f
_ZN9daYoshi_c15walkAction_WaitEv 0x8014CA00     f
_ZN9daYoshi_c19walkActionInit_MoveEN10daPlBase_c10AnmBlend_eE 0x8014CA40 f
_ZN9daYoshi_c15walkAction_MoveEv 0x8014CA60     f
_ZN9daYoshi_c16setWalkActionAnmEN10daPlBase_c10AnmBlend_eE 0x8014CA70 f
_ZN9daYoshi_c16setWaitActionAnmEN10daPlBase_c10AnmBlend_eE 0x8014CD70 f
_ZN9daYoshi_c17setJumpCommonBaseEv 0x8014CEB0   f
_ZN9daYoshi_c12setJumpSpeedEv   0x8014CF10      f
_ZN9daYoshi_c10setJumpAnmEv     0x8014CFF0      f
_ZN9daYoshi_c20setFunbariJumpEffectEv 0x8014D110 f
_ZN9daYoshi_c13calcYoshiJumpEv  0x8014D1B0      f
_ZN9daYoshi_c16updateJumpActionEv 0x8014D410    f
_ZN9daYoshi_c20initializeState_JumpEv 0x8014D5E0 f
_ZN9daYoshi_c18finalizeState_JumpEv 0x8014D710  f
_ZN9daYoshi_c17executeState_JumpEv 0x8014D750   f
_ZN9daYoshi_c13setFallActionEv  0x8014D7B0      f
_ZN9daYoshi_c20initializeState_FallEv 0x8014D810 f
_ZN9daYoshi_c18finalizeState_FallEv 0x8014D860  f
_ZN9daYoshi_c17executeState_FallEv 0x8014D8A0   f
_ZN9daYoshi_c20initializeState_LandEv 0x8014D910 f
_ZN9daYoshi_c18finalizeState_LandEv 0x8014D950  f
_ZN9daYoshi_c17executeState_LandEv 0x8014D960   f
_ZN9daYoshi_c23initializeState_SitJumpEv 0x8014DA80 f
_ZN9daYoshi_c21finalizeState_SitJumpEv 0x8014DB60 f
_ZN9daYoshi_c20executeState_SitJumpEv 0x8014DBF0 f
_ZN9daYoshi_c11checkCrouchEv    0x8014DCF0      f
_ZN9daYoshi_c22initializeState_CrouchEv 0x8014DDA0 f
_ZN9daYoshi_c20finalizeState_CrouchEv 0x8014DEE0 f
_ZN9daYoshi_c19executeState_CrouchEv 0x8014DF40 f
_ZN9daYoshi_c15setCancelCrouchEv 0x8014E020     f
_ZN9daYoshi_c20setCrouchSmokeEffectEv 0x8014E030 f
_ZN9daYoshi_c19CrouchAction_GroundEv 0x8014E0A0 f
_ZN9daYoshi_c20initializeState_SlipEv 0x8014E180 f
_ZN9daYoshi_c18finalizeState_SlipEv 0x8014E190  f
_ZN9daYoshi_c14slipActionMoveEi 0x8014E1A0      f
_ZN9daYoshi_c17executeState_SlipEv 0x8014E210   f
_ZN9daYoshi_c18setTurnSmokeEffectEv 0x8014E220  f
_ZN9daYoshi_c16setTurnMoveSpeedEv 0x8014E270    f
_ZN9daYoshi_c20initializeState_TurnEv 0x8014E3B0 f
_ZN9daYoshi_c18finalizeState_TurnEv 0x8014E4A0  f
_ZN9daYoshi_c17executeState_TurnEv 0x8014E4B0   f
_ZN9daYoshi_c18setHipAttackActionEv 0x8014E620  f
_ZN9daYoshi_c19setHipAttackOnEnemyEP7mVec3_c 0x8014E6B0 f
_ZN9daYoshi_c25initializeState_HipAttackEv 0x8014E760 f
_ZN9daYoshi_c23finalizeState_HipAttackEv 0x8014E7A0 f
_ZN9daYoshi_c22executeState_HipAttackEv 0x8014E7E0 f
_ZN9daYoshi_c21initializeState_CloudEv 0x8014E7F0 f
_ZN9daYoshi_c19finalizeState_CloudEv 0x8014E840 f
_ZN9daYoshi_c15getCloudOffsetYEv 0x8014E890     f
_ZN9daYoshi_c17setCloudStateMoveEv 0x8014E8A0   f
_ZN9daYoshi_c19setCloudStateCrouchEv 0x8014E8F0 f
_ZN9daYoshi_c18executeState_CloudEv 0x8014E960  f
_ZN9daYoshi_c22initializeState_FunsuiEv 0x8014EA50 f
_ZN9daYoshi_c20finalizeState_FunsuiEv 0x8014EA90 f
_ZN9daYoshi_c19executeState_FunsuiEv 0x8014EAD0 f
_ZN9daYoshi_c19releaseFunsuiActionEv 0x8014EAE0 f
_ZNK9daYoshi_c15getPlayerRideOnEv 0x8014EAF0    f
_ZN9daYoshi_c16checkRideOffAbleEv 0x8014EB10    f
hash_A5AA0EF2_B77AB9A0          0x8014EB70      f
_ZN9daYoshi_c16setRideOffPlayerEv 0x8014ECC0    f
_ZN9daYoshi_c11changePlrNoEh    0x8014ED80      f
_ZN9daYoshi_c15executeEatStateEv 0x8014EE20     f
_ZN11sStateMgr_cI9daYoshi_c20sStateMethodUsr_FI_c12sFStateFct_c13sStateIDChk_cE12executeStateEv 0x8014EE30 f
_ZN9daYoshi_c14changeEatStateERK12sStateIDIf_c 0x8014EE40 f
_ZN11sStateMgr_cI9daYoshi_c20sStateMethodUsr_FI_c12sFStateFct_c13sStateIDChk_cE11changeStateERK12sStateIDIf_c 0x8014EE60 f
_ZN9daYoshi_c23initializeState_EatNoneEv 0x8014EE70 f
_ZN9daYoshi_c21finalizeState_EatNoneEv 0x8014EE80 f
_ZN9daYoshi_c20executeState_EatNoneEv 0x8014EE90 f
_ZN9daYoshi_c17setHitTongueActorEP8dActor_c 0x8014EED0 f
_ZN9daYoshi_c12setEatActionEv   0x8014EF50      f
hash_53D05495_D2177549          0x8014F030      f
_ZNK11sStateMgr_cI9daYoshi_c20sStateMethodUsr_FI_c12sFStateFct_c13sStateIDChk_cE10getStateIDEv 0x8014F0E0 f
_ZN9daYoshi_c16setDamageSpitOutEb 0x8014F0F0    f
_ZN9daYoshi_c19initializeState_EatEv 0x8014F200 f
_ZN9daYoshi_c17finalizeEatCommonEv 0x8014F2A0   f
_ZN9daYoshi_c17finalizeState_EatEv 0x8014F340   f
_ZN9daYoshi_c13calcOpenMouthEv  0x8014F3D0      f
_ZN9daYoshi_c26setEatAction_StartTurnWaitEv 0x8014F510 f
_ZN9daYoshi_c23EatAction_StartTurnWaitEv 0x8014F520 f
_ZN9daYoshi_c18setEatAction_StartEv 0x8014F5B0  f
_ZN9daYoshi_c15EatAction_StartEv 0x8014F680     f
_ZN9daYoshi_c18setEatActorMouthInEv 0x8014F6D0  f
_ZN9daYoshi_c20setEatAction_SuccessEi 0x8014F770 f
_ZN9daYoshi_c20EatAction_SuccessEatEv 0x8014F980 f
_ZN9daYoshi_c22EatAction_SuccessDrinkEv 0x8014FAF0 f
_ZN9daYoshi_c23eatDrinkBigCommonActionEv 0x8014FC10 f
_ZN9daYoshi_c25EatAction_SuccessDrinkBigEv 0x8014FD00 f
_ZN9daYoshi_c17setEatAction_FailEv 0x8014FD90   f
_ZN9daYoshi_c14EatAction_FailEv 0x8014FE00      f
_ZN9daYoshi_c16executeState_EatEv 0x8014FEA0    f
_ZN9daYoshi_c24initializeState_EatMouthEv 0x8014FEF0 f
_ZN9daYoshi_c22finalizeState_EatMouthEv 0x8014FFA0 f
_ZN9daYoshi_c21executeState_EatMouthEv 0x80150020 f
_ZN9daYoshi_c22initializeState_EatOutEv 0x80150040 f
_ZN9daYoshi_c20finalizeState_EatOutEv 0x801500C0 f
_ZN9daYoshi_c11setEatOutSEEv    0x80150160      f
_ZN9daYoshi_c19executeState_EatOutEv 0x801501D0 f
_ZN9daYoshi_c15releaseEatActorEv 0x80150290     f
_ZN9daYoshi_c21clearHitTongueReserveEv 0x801502F0 f
_ZN9daYoshi_c21checkHitTongueReserveEP5dCc_c 0x80150310 f
_ZN9daYoshi_c19setHitTongueReserveEv 0x80150420 f
_ZN9daYoshi_c13checkHitMouthEP8dActor_c 0x80150520 f
_ZN9daYoshi_c20createYoshiEggCommonEv 0x80150610 f
_ZN9daYoshi_c14createYoshiEggEv 0x80150680      f
_ZN9daYoshi_c17isEnableCreateEggEv 0x80150790   f
_ZN9daYoshi_c13addFruitCountEv  0x801507C0      f
_ZN9daYoshi_c16setEatTongueCallEP8dActor_c 0x801507E0 f
_ZN9daYoshi_c19setEatTongueOffCallEP8dActor_c 0x80150840 f
_ZN9daYoshi_c15setEatMouthCallEP8dActor_c 0x801508A0 f
_ZN9daYoshi_c17setEatSpitOutCallEP8dActor_c 0x80150900 f
_ZN9daYoshi_c18setEatGlupDownCallEP8dActor_c 0x80150970 f
_ZN9daYoshi_c11executeMainEv    0x801509E0      f
_ZN9daYoshi_c12selectActionEv   0x80150BF0      f
_ZN9daYoshi_c17executeLastPlayerEv 0x80150CC0   f
_ZN9daYoshi_c14executeLastAllEv 0x80150E10      f
_ZN9daYoshi_c4drawEv            0x80150EF0      f
_ZN9daYoshi_c8getPlrNoEv        0x80150F20      f
_ZN9daYoshi_c12setZPositionEv   0x80150F50      f
_ZN9daYoshi_c12setZPositionEf   0x80151020      f
_ZN9daYoshi_c18setZPositionDirectEf 0x801510A0  f
_ZN9daYoshi_c14offZPosSetNoneEv 0x80151120      f
hash_B204C0D2_E1818564          0x80151170      f
hash_9FC54858_41659FEE          0x80151180      f
_ZN9daYoshi_c10isNoDamageEv     0x801513B0      f
_ZN9daYoshi_c9setDamageEP8dActor_cN10daPlBase_c12DamageType_eE 0x80151460 f
_ZN9daYoshi_c15setForcedDamageEP8dActor_cN10daPlBase_c12DamageType_eE 0x80151510 f
_ZN9daYoshi_c10setDamage2EP8dActor_cN10daPlBase_c12DamageType_eE 0x801515B0 f
_ZN9daYoshi_c14getBgPointDataEv 0x80151700      f
_ZN9daYoshi_c20getStandHeadBgPointYEv 0x80151730 f
_ZN9daYoshi_c9setBcDataEv       0x80151770      f
_ZN9daYoshi_c11postBgCrossEv    0x80151A10      f
_ZN9daYoshi_c15getSandSinkRateEv 0x80151B50     f
_ZN9daYoshi_c19clearJumpActionInfoEi 0x80151BB0 f
_ZN9daYoshi_c18setCcAtYoshiEatReqEv 0x80151C00  f
_ZN9daYoshi_c15setCcAtYoshiEatEv 0x80151C10     f
_ZN9daYoshi_c20setCcAtYoshiMouthReqEv 0x80151D60 f
_ZN9daYoshi_c17setCcAtYoshiMouthEv 0x80151D70   f
_ZN9daYoshi_c9setCcDataEv       0x80151E40      f
_ZN9daYoshi_c13ccCheckAttackEP5dCc_cP5dCc_c 0x80151F90 f
_ZN9daYoshi_c12ccCheckStampEP5dCc_cP5dCc_c 0x80152160 f
_ZN9daYoshi_c10ccCallBackEP5dCc_cP5dCc_c 0x80152270 f
_ZN9daYoshi_c12atCcCallBackEP5dCc_cP5dCc_c 0x801523F0 f
_ZN9daYoshi_c17setReductionScaleEv 0x801524A0   f
_ZN9daYoshi_c18initStampReductionEv 0x801524E0  f
_ZN9daYoshi_c25calcJumpDaiReductionScaleEii 0x80152520 f
_ZN9daYoshi_c17setReductionBoyonEv 0x80152580   f
_ZN9daYoshi_c15getTongueTipMtxEP6mMtx_c 0x801525C0 f
_ZN9daYoshi_c11getMouthMtxEP6mMtx_c 0x80152660  f
_ZNK9daYoshi_c6isStarEv         0x801526A0      f
_ZN9daYoshi_c7setStarEN10daPlBase_c9StarSet_eEi 0x801526E0 f
_ZN9daYoshi_c7endStarEv         0x80152780      f
_ZN9daYoshi_c12setVirusStarEP10daPlBase_c 0x801527C0 f
_ZN9daYoshi_c14clearStarCountEv 0x80152810      f
_ZNK9daYoshi_c12getStarCountEv  0x80152850      f
_ZN9daYoshi_c13calcStarCountEi  0x80152890      f
_ZN9daYoshi_c8isChangeEv        0x801528E0      f
_ZN9daYoshi_c9setLandSEEv       0x80152930      f
_ZN9daYoshi_c18set1UpKinokoEffectEv 0x80152940  f
_ZN9daYoshi_c16setFlagGetEffectEv 0x80152980    f
_ZN9daYoshi_c18setTongueHitEffectER7mVec3_c 0x801529C0 f
hash_5ED0C7E1_5E6C0895          0x80152A60      f
hash_2B408A2E_BE0C85DA          0x80152AC0      f
_ZN9daYoshi_c15setCreateActionEi 0x80152B30     f
_ZN9daYoshi_c15setTimeOverDemoEv 0x80152B40     f
_ZN9daYoshi_c15setFallDownDemoEv 0x80152C10     f
_ZN9daYoshi_c19setBalloonInDispOutEi 0x80152C70 f
_ZN9daYoshi_c15changeNextSceneEi 0x80152D60     f
_ZN9daYoshi_c21isEnableDokanInStatusEv 0x80152DC0 f
_ZN9daYoshi_c11setDemoGoalER7mVec3_cfh 0x80152E30 f
_ZN9daYoshi_c20setHideNotGoalPlayerEv 0x80152F20 f
_ZN9daYoshi_c16initDemoGoalBaseEv 0x80152F80    f
_ZN9daYoshi_c19executeDemoGoal_RunEv 0x80152F90 f
_ZN9daYoshi_c18updateDemoKimePoseEN10daPlBase_c11ClearType_eE 0x801530F0 f
_ZN9daYoshi_c18isSpinLiftUpEnableEv 0x801532D0  f
_ZN9daYoshi_c14getHeadTopPosPEv 0x801532E0      f
_ZN9daYoshi_c18getFootBgPointDataEv 0x80153310  f
_ZN9daYoshi_c18getWallBgPointDataEv 0x80153320  f
_ZN9daYoshi_c18getHeadBgPointDataEv 0x80153350  f
_ZN12sFStateFct_cI9daYoshi_cE5buildERK12sStateIDIf_c 0x80153380 f
_ZN12sFStateFct_cI9daYoshi_cE7disposeERP10sStateIf_c 0x801533E0 f
_ZN9sFState_cI9daYoshi_cE10initializeEv 0x801533F0 f
_ZN9sFState_cI9daYoshi_cE7executeEv 0x80153410  f
_ZN9sFState_cI9daYoshi_cE8finalizeEv 0x80153430 f
_ZN11sStateMgr_cI9daYoshi_c20sStateMethodUsr_FI_c12sFStateFct_c13sStateIDChk_cE15initializeStateEv 0x80153450 f
_ZN11sStateMgr_cI9daYoshi_c20sStateMethodUsr_FI_c12sFStateFct_c13sStateIDChk_cE13finalizeStateEv 0x80153460 f
_ZN11sStateMgr_cI9daYoshi_c20sStateMethodUsr_FI_c12sFStateFct_c13sStateIDChk_cE12refreshStateEv 0x80153470 f
_ZNK11sStateMgr_cI9daYoshi_c20sStateMethodUsr_FI_c12sFStateFct_c13sStateIDChk_cE8getStateEv 0x80153480 f
_ZNK11sStateMgr_cI9daYoshi_c20sStateMethodUsr_FI_c12sFStateFct_c13sStateIDChk_cE13getNewStateIDEv 0x80153490 f
_ZNK11sStateMgr_cI9daYoshi_c20sStateMethodUsr_FI_c12sFStateFct_c13sStateIDChk_cE13getOldStateIDEv 0x801534A0 f
_ZNK11sFStateID_cI9daYoshi_cE13finalizeStateER9daYoshi_c 0x801534B0 f
_ZNK11sFStateID_cI9daYoshi_cE12executeStateER9daYoshi_c 0x801534E0 f
_ZNK11sFStateID_cI9daYoshi_cE15initializeStateER9daYoshi_c 0x80153510 f
__sinit_\d_a_yoshi_cpp          0x80153540      f
_ZN11sFStateID_cI9daYoshi_cED0Ev 0x80154440     f
_ZN18sFStateVirtualID_cI9daYoshi_cED0Ev 0x801544A0 f
_Z12baseID_CloudI10daPlBase_cERK12sStateIDIf_cv 0x80154500 f
_Z13baseID_FunsuiI10daPlBase_cERK12sStateIDIf_cv 0x80154510 f
_Z16baseID_HipAttackI10daPlBase_cERK12sStateIDIf_cv 0x80154520 f
_Z11baseID_TurnI10daPlBase_cERK12sStateIDIf_cv 0x80154530 f
_Z11baseID_SlipI10daPlBase_cERK12sStateIDIf_cv 0x80154540 f
_Z14baseID_SitJumpI10daPlBase_cERK12sStateIDIf_cv 0x80154550 f
_Z13baseID_CrouchI10daPlBase_cERK12sStateIDIf_cv 0x80154560 f
_Z11baseID_LandI10daPlBase_cERK12sStateIDIf_cv 0x80154570 f
_Z11baseID_FallI10daPlBase_cERK12sStateIDIf_cv 0x80154580 f
_Z11baseID_JumpI10daPlBase_cERK12sStateIDIf_cv 0x80154590 f
_Z11baseID_WalkI10daPlBase_cERK12sStateIDIf_cv 0x801545A0 f
_ZNK18sFStateVirtualID_cI9daYoshi_cE6numberEv 0x801545B0 f
_ZNK18sFStateVirtualID_cI9daYoshi_cE7superIDEv 0x80154690 f
_ZNK11sFStateID_cI9daYoshi_cE10isSameNameEPKc 0x80154770 f
_Z17dBgGm_c_classInitv          0x80154800      f
_ZN7dBgGm_c6createEv            0x80154880      f
_ZN7dBgGm_c20InitialScrollTypeSetEv 0x801549E0  f
_ZN7dBgGm_c16InitialScrollSetEtt 0x80154BB0     f
_ZN7dBgGm_c8doDeleteEv          0x80154E40      f
_ZN7dBgGm_c4drawEv              0x80154E90      f
_ZN7dBgGm_c18AnyPlayerYposCheckEff 0x80154F90   f
_ZN7dBgGm_c7executeEv           0x801550A0      f
_ZN7dBgGm_c16getNumberPlayerPEi 0x80156960      f
_ZN7dBgGm_c18getActScrPlayerNumEv 0x80156A10    f
hash_97318809_8BB5C911          0x80156A70      f
hash_A570EDA5_F7EF8DBD          0x80156BF0      f
hash_5953ADD6_5D6F35E8          0x80156D70      f
_ZN7dBgGm_c21checkZoomCannonExtentEv 0x80156EB0 f
